 vncviewer

 Timestamp is 58be5add (Tue Mar 07 15:01:49 2017)

 Preferred load address is 00400000

 Start         Length     Name                   Class
 0001:00000000 000af14aH .textbss                DATA
 0002:00000000 00169a56H .text                   CODE
 0002:00169a60 00006178H .text$x                 CODE
 0002:0016fbe0 00001677H .text$yc                CODE
 0002:00171260 000010c9H .text$yd                CODE
 0003:00000000 00000104H .CRT$XCA                DATA
 0003:00000104 00000104H .CRT$XCC                DATA
 0003:00000208 000001d4H .CRT$XCU                DATA
 0003:000003dc 00000104H .CRT$XCZ                DATA
 0003:000004e0 00000104H .CRT$XIA                DATA
 0003:000005e4 00000113H .CRT$XIC                DATA
 0003:000006f8 00000104H .CRT$XIY                DATA
 0003:000007fc 00000104H .CRT$XIZ                DATA
 0003:00000900 00000104H .CRT$XPA                DATA
 0003:00000a04 00000109H .CRT$XPX                DATA
 0003:00000b10 00000104H .CRT$XPXA               DATA
 0003:00000c14 00000104H .CRT$XPZ                DATA
 0003:00000d18 00000104H .CRT$XTA                DATA
 0003:00000e1c 00000104H .CRT$XTZ                DATA
 0003:00000f20 0002828cH .rdata                  DATA
 0003:000291ac 0000015cH .rdata$debug            DATA
 0003:00029308 0000120cH .rdata$r                DATA
 0003:0002a514 00000104H .rtc$IAA                DATA
 0003:0002a618 0000018bH .rtc$IMZ                DATA
 0003:0002a7a4 00000104H .rtc$IZZ                DATA
 0003:0002a8a8 00000104H .rtc$TAA                DATA
 0003:0002a9ac 0000018bH .rtc$TMZ                DATA
 0003:0002ab38 00000104H .rtc$TZZ                DATA
 0003:0002ac40 00006400H .xdata$x                DATA
 0003:00031040 00000000H .edata                  DATA
 0004:00000000 000075a7H .data                   DATA
 0004:000075c0 00065884H .bss                    DATA
 0005:00000000 000000c8H .idata$2                DATA
 0005:000000c8 00000014H .idata$3                DATA
 0005:000000dc 00000920H .idata$4                DATA
 0005:000009fc 00000920H .idata$5                DATA
 0005:0000131c 00001e7aH .idata$6                DATA
 0006:00000000 000017e9H .rsrc$01                DATA
 0006:000017f0 0008ca70H .rsrc$02                DATA

  Address         Publics by Value              Rva+Base       Lib:Object

 0000:00000000       ___safe_se_handler_count   00000000     <absolute>
 0000:00000000       __except_list              00000000     <absolute>
 0000:00000000       ___safe_se_handler_table   00000000     <absolute>
 0000:00000000       ___ImageBase               00400000     <linker-defined>
 0001:00000000       __enc$textbss$begin        00401000     <linker-defined>
 0001:000af14a       __enc$textbss$end          004b014a     <linker-defined>
 0002:00008440       ?DoGetBkGndBitmap@@YAPAUHBITMAP__@@I@Z 004b9440 f   AboutBox.obj
 0002:000084a0       ?DoSDKEraseBkGnd@@YAHQAUHDC__@@K@Z 004b94a0 f   AboutBox.obj
 0002:00008600       ?ShowAboutBox@@YAXXZ       004b9600 f   AboutBox.obj
 0002:00008750       ??0AccelKeys@@QAE@XZ       004b9750 f   AccelKeys.obj
 0002:000089e0       ?TranslateAccelKeys@AccelKeys@@QAE_NPAUtagMSG@@@Z 004b99e0 f   AccelKeys.obj
 0002:00008a20       ??1AccelKeys@@UAE@XZ       004b9a20 f   AccelKeys.obj
 0002:00008b00       ??_GAccelKeys@@UAEPAXI@Z   004b9b00 f i AccelKeys.obj
 0002:00008b00       ??_EAccelKeys@@UAEPAXI@Z   004b9b00 f i AccelKeys.obj
 0002:00008b40       ??0AuthDialog@@QAE@XZ      004b9b40 f   AuthDialog.obj
 0002:00008b70       ??1AuthDialog@@UAE@XZ      004b9b70 f   AuthDialog.obj
 0002:00008b90       ?DoDialog@AuthDialog@@QAEH_N0@Z 004b9b90 f   AuthDialog.obj
 0002:00008c20       ?DlgProc@AuthDialog@@SGHPAUHWND__@@IIJ@Z 004b9c20 f   AuthDialog.obj
 0002:00008d70       ?DlgProc1@AuthDialog@@SGHPAUHWND__@@IIJ@Z 004b9d70 f   AuthDialog.obj
 0002:00008f50       ??_GAuthDialog@@UAEPAXI@Z  004b9f50 f i AuthDialog.obj
 0002:00008f50       ??_EAuthDialog@@UAEPAXI@Z  004b9f50 f i AuthDialog.obj
 0002:00008f90       ??$SafeGetWindowUserData@VAuthDialog@@@helper@@YAPAVAuthDialog@@PAUHWND__@@@Z 004b9f90 f i AuthDialog.obj
 0002:00008fb0       ??0ClientConnection@@QAE@PAVVNCviewerApp@@@Z 004b9fb0 f   ClientConnection.obj
 0002:00009190       ??0ClientConnection@@QAE@PAVVNCviewerApp@@I@Z 004ba190 f   ClientConnection.obj
 0002:00009430       ??0ClientConnection@@QAE@PAVVNCviewerApp@@PADH@Z 004ba430 f   ClientConnection.obj
 0002:000096a0       ?Init@ClientConnection@@AAEXPAVVNCviewerApp@@@Z 004ba6a0 f   ClientConnection.obj
 0002:0000a070       ?SetSendTimeout@ClientConnection@@QAE_NH@Z 004bb070 f   ClientConnection.obj
 0002:0000a0d0       ?SetRecvTimeout@ClientConnection@@QAE_NH@Z 004bb0d0 f   ClientConnection.obj
 0002:0000a130       ?Run@ClientConnection@@QAEXXZ 004bb130 f   ClientConnection.obj
 0002:0000a2b0       ?DoConnection@ClientConnection@@QAEXXZ 004bb2b0 f   ClientConnection.obj
 0002:0000a3f0       ?ReconnectThreadProc@@YGKPAX@Z 004bb3f0 f   ClientConnection.obj
 0002:0000a520       ?Reconnect@ClientConnection@@AAEXXZ 004bb520 f   ClientConnection.obj
 0002:0000a640       ?GTGBS_ShowConnectWindow@ClientConnection@@AAEPAUHWND__@@XZ 004bb640 f   ClientConnection.obj
 0002:0000a690       ?CreateButtons@ClientConnection@@QAEXHH@Z 004bb690 f   ClientConnection.obj
 0002:0000b6d0       ?RebuildToolbar@ClientConnection@@QAEXPAUHWND__@@@Z 004bc6d0 f   ClientConnection.obj
 0002:0000b7b0       ?GTGBS_CreateToolbar@ClientConnection@@AAEXXZ 004bc7b0 f   ClientConnection.obj
 0002:0000be60       ?CreateDisplay@ClientConnection@@AAEXXZ 004bce60 f   ClientConnection.obj
 0002:0000c840       ?WatchClipboard@ClientConnection@@AAEXXZ 004bd840 f   ClientConnection.obj
 0002:0000c8b0       ?UpdateMenuItems@ClientConnection@@AAEXXZ 004bd8b0 f   ClientConnection.obj
 0002:0000cb30       ?LoadDSMPlugin@ClientConnection@@AAEX_N@Z 004bdb30 f   ClientConnection.obj
 0002:0000ccc0       ?SetDSMPluginStuff@ClientConnection@@AAEXXZ 004bdcc0 f   ClientConnection.obj
 0002:0000d000       ?HandleQuickOption@ClientConnection@@QAEXXZ 004be000 f   ClientConnection.obj
 0002:0000d1b0       ?GetConnectDetails@ClientConnection@@AAEXXZ 004be1b0 f   ClientConnection.obj
 0002:0000d510       ?SocketTimeout@@YGKPAX@Z   004be510 f   ClientConnection.obj
 0002:0000d570       ?Connect@ClientConnection@@AAEXXZ 004be570 f   ClientConnection.obj
 0002:0000d990       ?ConnectProxy@ClientConnection@@AAEXXZ 004be990 f   ClientConnection.obj
 0002:0000dd20       ?SetSocketOptions@ClientConnection@@AAEXXZ 004bed20 f   ClientConnection.obj
 0002:0000de10       ?NegotiateProtocolVersion@ClientConnection@@AAEXXZ 004bee10 f   ClientConnection.obj
 0002:0000e6a0       ?NegotiateProxy@ClientConnection@@AAEXXZ 004bf6a0 f   ClientConnection.obj
 0002:0000e9b0       ?Authenticate@ClientConnection@@AAEXAAV?$vector@KV?$allocator@K@std@@@std@@@Z 004bf9b0 f   ClientConnection.obj
 0002:0000f000       ?AuthenticateServer@ClientConnection@@AAEXKAAV?$vector@KV?$allocator@K@std@@@std@@@Z 004c0000 f   ClientConnection.obj
 0002:0000fb10       ?AuthSecureVNCPlugin@ClientConnection@@AAEXXZ 004c0b10 f   ClientConnection.obj
 0002:00010110       ?AuthMsLogonII@ClientConnection@@AAEXXZ 004c1110 f   ClientConnection.obj
 0002:00010530       ?AuthMsLogonI@ClientConnection@@AAEXXZ 004c1530 f   ClientConnection.obj
 0002:00010af0       ?AuthVnc@ClientConnection@@AAEXXZ 004c1af0 f   ClientConnection.obj
 0002:00010e00       ?AuthSCPrompt@ClientConnection@@AAEXXZ 004c1e00 f   ClientConnection.obj
 0002:00010f90       ?AuthSessionSelect@ClientConnection@@AAEXXZ 004c1f90 f   ClientConnection.obj
 0002:00011030       ?SendClientInit@ClientConnection@@AAEXXZ 004c2030 f   ClientConnection.obj
 0002:00011070       ?ReadServerInit@ClientConnection@@AAEXXZ 004c2070 f   ClientConnection.obj
 0002:00011520       ?SizeWindow@ClientConnection@@AAEXXZ 004c2520 f   ClientConnection.obj
 0002:00011f70       ?CreateLocalFramebuffer@ClientConnection@@AAEXXZ 004c2f70 f   ClientConnection.obj
 0002:00011fa0       ?SetupPixelFormat@ClientConnection@@AAEXXZ 004c2fa0 f   ClientConnection.obj
 0002:00012280       ?SetFormatAndEncodings@ClientConnection@@AAEXXZ 004c3280 f   ClientConnection.obj
 0002:00012990       ?Createdib@ClientConnection@@AAEXXZ 004c3990 f   ClientConnection.obj
 0002:000131c0       ?KillThread@ClientConnection@@QAEXXZ 004c41c0 f   ClientConnection.obj
 0002:00013250       ?SuspendThread@ClientConnection@@QAEXXZ 004c4250 f   ClientConnection.obj
 0002:00013430       ?CloseWindows@ClientConnection@@QAEXXZ 004c4430 f   ClientConnection.obj
 0002:000134a0       ??1ClientConnection@@UAE@XZ 004c44a0 f   ClientConnection.obj
 0002:00013c40       ?ScrollScreen@ClientConnection@@AAE_NHH@Z 004c4c40 f   ClientConnection.obj
 0002:00013e30       ?FlushThrottledMouseMove@ClientConnection@@AAE_NXZ 004c4e30 f   ClientConnection.obj
 0002:00013ed0       ?SendClientCutText@ClientConnection@@AAEXPADH@Z 004c4ed0 f   ClientConnection.obj
 0002:000140e0       ?ShowConnInfo@ClientConnection@@AAEXXZ 004c50e0 f   ClientConnection.obj
 0002:00014320       ?run_undetached@ClientConnection@@EAEPAXPAX@Z 004c5320 f   ClientConnection.obj
 0002:00014c90       ?Internal_SendFramebufferUpdateRequest@ClientConnection@@AAEXHHHH_N@Z 004c5c90 f   ClientConnection.obj
 0002:00014db0       ?HandleFramebufferUpdateRequest@ClientConnection@@AAEXIJ@Z 004c5db0 f   ClientConnection.obj
 0002:00014df0       ?SendIncrementalFramebufferUpdateRequest@ClientConnection@@AAEX_N@Z 004c5df0 f   ClientConnection.obj
 0002:00014e10       ?SendFullFramebufferUpdateRequest@ClientConnection@@AAEX_N@Z 004c5e10 f   ClientConnection.obj
 0002:00014e30       ?SendAppropriateFramebufferUpdateRequest@ClientConnection@@AAEX_N@Z 004c5e30 f   ClientConnection.obj
 0002:00014e50       ?SendFramebufferUpdateRequest@ClientConnection@@AAEXI_N@Z 004c5e50 f   ClientConnection.obj
 0002:00014ea0       ?Internal_SendIncrementalFramebufferUpdateRequest@ClientConnection@@AAEXXZ 004c5ea0 f   ClientConnection.obj
 0002:00014ed0       ?Internal_SendFullFramebufferUpdateRequest@ClientConnection@@AAEXXZ 004c5ed0 f   ClientConnection.obj
 0002:00014f00       ?Internal_SendAppropriateFramebufferUpdateRequest@ClientConnection@@AAEXXZ 004c5f00 f   ClientConnection.obj
 0002:000151e0       ?SendServerScale@ClientConnection@@AAE_NH@Z 004c61e0 f   ClientConnection.obj
 0002:00015220       ?SendServerInput@ClientConnection@@AAE_NH@Z 004c6220 f   ClientConnection.obj
 0002:00015260       ?SendSW@ClientConnection@@AAE_NHH@Z 004c6260 f   ClientConnection.obj
 0002:00015350       ?SetDormant@ClientConnection@@AAEX_N@Z 004c6350 f   ClientConnection.obj
 0002:000153d0       ?ReadServerCutText@ClientConnection@@AAEXXZ 004c63d0 f   ClientConnection.obj
 0002:00015720       ?ReadBell@ClientConnection@@AAEXXZ 004c6720 f   ClientConnection.obj
 0002:000157d0       ?ReadServerState@ClientConnection@@AAEXXZ 004c67d0 f   ClientConnection.obj
 0002:00015a00       ?ReadExact@ClientConnection@@QAEXPADH@Z 004c6a00 f   ClientConnection.obj
 0002:00015ce0       ?ReadExactProtocolVersion@ClientConnection@@AAEXPADHAA_N@Z 004c6ce0 f   ClientConnection.obj
 0002:00016220       ?ReadExactProxy@ClientConnection@@AAEXPADH@Z 004c7220 f   ClientConnection.obj
 0002:00016320       ?ReadString@ClientConnection@@AAEXPADH@Z 004c7320 f   ClientConnection.obj
 0002:00016370       ?Send@ClientConnection@@AAEHPBDIH@Z 004c7370 f   ClientConnection.obj
 0002:000164f0       ?WriteTransformed@ClientConnection@@AAEXPADHE_N@Z 004c74f0 f   ClientConnection.obj
 0002:00016570       ?WriteExact@ClientConnection@@AAEXPADHE@Z 004c7570 f   ClientConnection.obj
 0002:000165a0       ?WriteTransformed_timeout@ClientConnection@@AAEXPADHEH_N@Z 004c75a0 f   ClientConnection.obj
 0002:00016630       ?WriteExact_timeout@ClientConnection@@AAEXPADHEH@Z 004c7630 f   ClientConnection.obj
 0002:00016660       ?Write@ClientConnection@@AAEXPADH_N1H@Z 004c7660 f   ClientConnection.obj
 0002:000168b0       ?FlushOutstandingWriteQueue@ClientConnection@@AAEXAAPADAAH_NH@Z 004c78b0 f   ClientConnection.obj
 0002:00016af0       ?FlushWriteQueue@ClientConnection@@AAEX_NH@Z 004c7af0 f   ClientConnection.obj
 0002:00016b20       ?WriteTransformed@ClientConnection@@AAEXPADH_N@Z 004c7b20 f   ClientConnection.obj
 0002:00016c30       ?WriteExact@ClientConnection@@AAEXPADH@Z 004c7c30 f   ClientConnection.obj
 0002:00016c50       ?WriteQueue@ClientConnection@@AAEXPADH@Z 004c7c50 f   ClientConnection.obj
 0002:00016c80       ?WriteExactQueue@ClientConnection@@AAEXPADH@Z 004c7c80 f   ClientConnection.obj
 0002:00016ca0       ?WriteExactQueue@ClientConnection@@AAEXPADHE@Z 004c7ca0 f   ClientConnection.obj
 0002:00016cd0       ?WriteExactQueue_timeout@ClientConnection@@AAEXPADHH@Z 004c7cd0 f   ClientConnection.obj
 0002:00016d00       ?WriteExactQueue_timeout@ClientConnection@@AAEXPADHEH@Z 004c7d00 f   ClientConnection.obj
 0002:00016d30       ?WriteTransformed_timeout@ClientConnection@@AAEXPADHH_N@Z 004c7d30 f   ClientConnection.obj
 0002:00016e40       ?WriteExact_timeout@ClientConnection@@AAEXPADHH@Z 004c7e40 f   ClientConnection.obj
 0002:00016e70       ?Write_timeout@ClientConnection@@AAEXPADHH_N@Z 004c7e70 f   ClientConnection.obj
 0002:00016ea0       ?WriteExactProxy@ClientConnection@@AAEXPADH@Z 004c7ea0 f   ClientConnection.obj
 0002:00016ed0       ?CheckBufferSize@ClientConnection@@AAEXH@Z 004c7ed0 f   ClientConnection.obj
 0002:00017010       ?CheckZipBufferSize@ClientConnection@@AAEXH@Z 004c8010 f   ClientConnection.obj
 0002:00017150       ?CheckFileZipBufferSize@ClientConnection@@AAEXH@Z 004c8150 f   ClientConnection.obj
 0002:00017290       ?CheckFileChunkBufferSize@ClientConnection@@AAEXH@Z 004c8290 f   ClientConnection.obj
 0002:000173d0       ?ReadNewFBSize@ClientConnection@@AAEXPAUrfbFramebufferUpdateRectHeader@@@Z 004c83d0 f   ClientConnection.obj
 0002:00017480       ?TransformBuffer@ClientConnection@@AAEPAEPAEHPAH@Z 004c8480 f   ClientConnection.obj
 0002:000174e0       ?RestoreBufferStep1@ClientConnection@@AAEPAEPAEHPAH@Z 004c84e0 f   ClientConnection.obj
 0002:00017540       ?RestoreBufferStep2@ClientConnection@@AAEPAEPAEHPAH@Z 004c8540 f   ClientConnection.obj
 0002:000175a0       ?GetFriendlySizeString@ClientConnection@@AAEX_JPAD@Z 004c85a0 f   ClientConnection.obj
 0002:00017760       ?UpdateStatusFields@ClientConnection@@AAEXXZ 004c8760 f   ClientConnection.obj
 0002:00017d30       ?GTGBS_ScrollToolbar@ClientConnection@@QAEXHH@Z 004c8d30 f   ClientConnection.obj
 0002:00017d40       ?GTGBS_CreateDisplay@ClientConnection@@QAEXXZ 004c8d40 f   ClientConnection.obj
 0002:00017eb0       ?GTGBS_ShowStatusWindow@ClientConnection@@CGJPAX@Z 004c8eb0 f   ClientConnection.obj
 0002:00017f00       ?GTGBS_StatusProc@ClientConnection@@CGJPAUHWND__@@IIJ@Z 004c8f00 f   ClientConnection.obj
 0002:00018400       ?GTGBS_SendCustomKey_proc@ClientConnection@@CGJPAUHWND__@@IIJ@Z 004c9400 f   ClientConnection.obj
 0002:00018600       ?WndProc@ClientConnection@@CGJPAUHWND__@@IIJ@Z 004c9600 f   ClientConnection.obj
 0002:0001b190       ?WndProcTBwin@ClientConnection@@CGJPAUHWND__@@IIJ@Z 004cc190 f   ClientConnection.obj
 0002:0001b8e0       ?WndProchwnd@ClientConnection@@CGJPAUHWND__@@IIJ@Z 004cc8e0 f   ClientConnection.obj
 0002:0001c5a0       ?ConvertAll@ClientConnection@@AAEXHHHHHPAE0H@Z 004cd5a0 f   ClientConnection.obj
 0002:0001c660       ?Copybuffer@ClientConnection@@AAEXHHHHHPAE0H@Z 004cd660 f   ClientConnection.obj
 0002:0001c730       ?Copyto0buffer@ClientConnection@@AAEXHHHHHPAE0H@Z 004cd730 f   ClientConnection.obj
 0002:0001c7f0       ?Copyfrom0buffer@ClientConnection@@AAEXHHHHHPAE0H@Z 004cd7f0 f   ClientConnection.obj
 0002:0001c8b0       ?Switchbuffer@ClientConnection@@AAEXHHHHHPAE0H@Z 004cd8b0 f   ClientConnection.obj
 0002:0001c9d0       ?ConvertPixel@ClientConnection@@AAEXHHHPAE0H@Z 004cd9d0 f   ClientConnection.obj
 0002:0001ca50       ?ConvertPixel_to_bpp_from_32@ClientConnection@@AAEXHHHPAE0H@Z 004cda50 f   ClientConnection.obj
 0002:0001cc80       ?SolidColor@ClientConnection@@AAEXHHHHHPAE0H@Z 004cdc80 f   ClientConnection.obj
 0002:0001cd50       ?Check_Rectangle_borders@ClientConnection@@AAE_NHHHH@Z 004cdd50 f   ClientConnection.obj
 0002:0001cdd0       ?SendKeepAlive@ClientConnection@@QAEX_N0@Z 004cddd0 f   ClientConnection.obj
 0002:0001ce30       ?Internal_SendKeepAlive@ClientConnection@@QAEX_N@Z 004cde30 f   ClientConnection.obj
 0002:0001cfd0       ??0PendingMouseMove@ClientConnection@@QAE@XZ 004cdfd0 f   ClientConnection.obj
 0002:0001d020       ?NotifyPluginStreamingSupport@ClientConnection@@AAEXXZ 004ce020 f   ClientConnection.obj
 0002:0001d060       ?DialogProc@@YGHPAUHWND__@@IIJ@Z 004ce060 f   ClientConnection.obj
 0002:00022740       ?run@omni_thread@@EAEXPAX@Z 004d3740 f i ClientConnection.obj
 0002:00022750       ??_EClientConnection@@UAEPAXI@Z 004d3750 f i ClientConnection.obj
 0002:00022750       ??_GClientConnection@@UAEPAXI@Z 004d3750 f i ClientConnection.obj
 0002:00022790       ??1Clipboard@@QAE@XZ       004d3790 f i ClientConnection.obj
 0002:00022820       ?Print@Log@@QAAXHPADZZ     004d3820 f i ClientConnection.obj
 0002:00022860       ?GetSafeHwnd@CTitleBar@@QAEPAUHWND__@@XZ 004d3860 f i ClientConnection.obj
 0002:00022880       ?SetWindowHandle@AccelKeys@@QAEXPAUHWND__@@@Z 004d3880 f i ClientConnection.obj
 0002:000228a0       ?IsLoaded@CDSMPlugin@@QAE_NXZ 004d38a0 f i ClientConnection.obj
 0002:000228c0       ?IsEnabled@CDSMPlugin@@QAE_NXZ 004d38c0 f i ClientConnection.obj
 0002:000228e0       ??0WarningException@@QAE@ABV0@@Z 004d38e0 f i ClientConnection.obj
 0002:00022920       ??0Exception@@QAE@ABV0@@Z  004d3920 f i ClientConnection.obj
 0002:00022960       ??_GWarningException@@UAEPAXI@Z 004d3960 f i ClientConnection.obj
 0002:00022960       ??_EWarningException@@UAEPAXI@Z 004d3960 f i ClientConnection.obj
 0002:000229a0       ??_GException@@UAEPAXI@Z   004d39a0 f i ClientConnection.obj
 0002:000229a0       ??_EException@@UAEPAXI@Z   004d39a0 f i ClientConnection.obj
 0002:000229e0       ??0QuietException@@QAE@ABV0@@Z 004d39e0 f i ClientConnection.obj
 0002:00022a10       ??_GQuietException@@UAEPAXI@Z 004d3a10 f i ClientConnection.obj
 0002:00022a10       ??_EQuietException@@UAEPAXI@Z 004d3a10 f i ClientConnection.obj
 0002:00022a50       ?SetDSMMode@FdInStream@rdr@@QAEX_N@Z 004d3a50 f i ClientConnection.obj
 0002:00022a70       ??1?$_Vector_iterator@V?$_Vector_val@KV?$allocator@K@std@@@std@@@std@@QAE@XZ 004d3a70 f i ClientConnection.obj
 0002:00022a90       ??1?$_Vector_iterator@V?$_Vector_val@EV?$allocator@E@std@@@std@@@std@@QAE@XZ 004d3a90 f i ClientConnection.obj
 0002:00022ab0       ??1?$_Vector_const_iterator@V?$_Vector_val@KV?$allocator@K@std@@@std@@@std@@QAE@XZ 004d3ab0 f i ClientConnection.obj
 0002:00022ad0       ??1?$_Vector_const_iterator@V?$_Vector_val@EV?$allocator@E@std@@@std@@@std@@QAE@XZ 004d3ad0 f i ClientConnection.obj
 0002:00022af0       ??1?$_Iterator012@Urandom_access_iterator_tag@std@@KHPBKABKU_Iterator_base12@2@@std@@QAE@XZ 004d3af0 f i ClientConnection.obj
 0002:00022b10       ??1_Iterator_base12@std@@QAE@XZ 004d3b10 f i ClientConnection.obj
 0002:00022b90       ?_Orphan_me@_Iterator_base12@std@@QAEXXZ 004d3b90 f i ClientConnection.obj
 0002:00022c20       ??1?$_Iterator012@Urandom_access_iterator_tag@std@@EHPBEABEU_Iterator_base12@2@@std@@QAE@XZ 004d3c20 f i ClientConnection.obj
 0002:00022c40       ??0ErrorException@@QAE@ABV0@@Z 004d3c40 f i ClientConnection.obj
 0002:00022c70       ??_EErrorException@@UAEPAXI@Z 004d3c70 f i ClientConnection.obj
 0002:00022c70       ??_GErrorException@@UAEPAXI@Z 004d3c70 f i ClientConnection.obj
 0002:00022cb0       ?GetPluginName@CDSMPlugin@@QAEPADXZ 004d3cb0 f i ClientConnection.obj
 0002:00022cd0       ?GetPluginVersion@CDSMPlugin@@QAEPADXZ 004d3cd0 f i ClientConnection.obj
 0002:00022cf0       ?GetPluginAuthor@CDSMPlugin@@QAEPADXZ 004d3cf0 f i ClientConnection.obj
 0002:00022d10       ??0omni_mutex_lock@@QAE@AAVomni_mutex@@@Z 004d3d10 f i ClientConnection.obj
 0002:00022d40       ??1omni_mutex_lock@@QAE@XZ 004d3d40 f i ClientConnection.obj
 0002:00022d60       ??0TempDC@@QAE@PAUHWND__@@@Z 004d3d60 f i ClientConnection.obj
 0002:00022da0       ??1TempDC@@QAE@XZ          004d3da0 f i ClientConnection.obj
 0002:00022dd0       ??BTempDC@@QAEPAUHDC__@@XZ 004d3dd0 f i ClientConnection.obj
 0002:00022df0       ??0ObjectSelector@@QAE@PAUHDC__@@PAX@Z 004d3df0 f i ClientConnection.obj
 0002:00022e30       ??1ObjectSelector@@QAE@XZ  004d3e30 f i ClientConnection.obj
 0002:00022e60       ??_GKeyMap@@QAEPAXI@Z      004d3e60 f i ClientConnection.obj
 0002:00022ea0       ??1KeyMap@@QAE@XZ          004d3ea0 f i ClientConnection.obj
 0002:00023190       ??1?$map@_WKU?$less@_W@std@@V?$allocator@U?$pair@$$CB_WK@std@@@2@@std@@QAE@XZ 004d4190 f i ClientConnection.obj
 0002:000231b0       ??1?$map@K_WU?$less@K@std@@V?$allocator@U?$pair@$$CBK_W@std@@@2@@std@@QAE@XZ 004d41b0 f i ClientConnection.obj
 0002:000231d0       ?SubProcessPointerEvent@ClientConnection@@AAEXHHK@Z 004d41d0 f i ClientConnection.obj
 0002:000234b0       ?SendPointerEvent@ClientConnection@@AAEXHHH@Z 004d44b0 f i ClientConnection.obj
 0002:00023610       ?UsingOldProtocol@FileTransfer@@QAE_NXZ 004d4610 f i ClientConnection.obj
 0002:00023640       ?UpdateScrollbars@ClientConnection@@AAEXXZ 004d4640 f i ClientConnection.obj
 0002:00023770       ?readU8@InStream@rdr@@QAEEXZ 004d4770 f i ClientConnection.obj
 0002:000237c0       ?check@InStream@rdr@@QAEHHH@Z 004d47c0 f i ClientConnection.obj
 0002:00023840       ?ReadScreenUpdate@ClientConnection@@AAEXXZ 004d4840 f i ClientConnection.obj
 0002:00025640       ?GetReadFromMemoryBuffer@FdInStream@rdr@@QAE_NXZ 004d6640 f i ClientConnection.obj
 0002:00025660       ??0omni_mutex_conditional_lock@@QAE@AAVomni_mutex@@_N@Z 004d6660 f i ClientConnection.obj
 0002:000256b0       ??1omni_mutex_conditional_lock@@QAE@XZ 004d66b0 f i ClientConnection.obj
 0002:000256e0       ??0EndOfStream@rdr@@QAE@ABU01@@Z 004d66e0 f i ClientConnection.obj
 0002:00025710       ?str@Exception@rdr@@UBEPBDXZ 004d6710 f i ClientConnection.obj
 0002:00025730       ??0Exception@rdr@@QAE@ABU01@@Z 004d6730 f i ClientConnection.obj
 0002:00025770       ?CheckNetRectBufferSize@ClientConnection@@AAEXH@Z 004d6770 f i ClientConnection.obj
 0002:00025880       ?CheckZRLENetRectBufferSize@ClientConnection@@AAEXH@Z 004d6880 f i ClientConnection.obj
 0002:00025990       ?GetBytesRead@FdInStream@rdr@@QAE_JXZ 004d6990 f i ClientConnection.obj
 0002:000259b0       ?ProcessMouseWheel@ClientConnection@@AAEXH@Z 004d69b0 f i ClientConnection.obj
 0002:00025a70       ?ProcessKeyEvent@ClientConnection@@AAEXHK@Z 004d6a70 f i ClientConnection.obj
 0002:00025e20       ?SendKeyEvent@ClientConnection@@QAEXK_N@Z 004d6e20 f i ClientConnection.obj
 0002:00025f20       ??0PaletteSelector@@QAE@PAUHDC__@@PAUHPALETTE__@@@Z 004d6f20 f i ClientConnection.obj
 0002:00025f90       ??1PaletteSelector@@QAE@XZ 004d6f90 f i ClientConnection.obj
 0002:00025fe0       ?ProcessPointerEvent@ClientConnection@@AAE_NHHKI@Z 004d6fe0 f i ClientConnection.obj
 0002:00026460       ?ShouldThrottle@PendingMouseMove@ClientConnection@@QAE_N_N@Z 004d7460 f i ClientConnection.obj
 0002:000264b0       ?DoBlit@ClientConnection@@AAEXXZ 004d74b0 f i ClientConnection.obj
 0002:00026760       ??0?$basic_string@DU?$char_traits@D@std@@V?$allocator@D@2@@std@@QAE@PBD@Z 004d7760 f i ClientConnection.obj
 0002:00026800       ??1?$basic_string@DU?$char_traits@D@std@@V?$allocator@D@2@@std@@QAE@XZ 004d7800 f i ClientConnection.obj
 0002:00026870       ??4?$basic_string@DU?$char_traits@D@std@@V?$allocator@D@2@@std@@QAEAAV01@ABV01@@Z 004d7870 f i ClientConnection.obj
 0002:00026890       ??4?$basic_string@DU?$char_traits@D@std@@V?$allocator@D@2@@std@@QAEAAV01@PBD@Z 004d7890 f i ClientConnection.obj
 0002:000268b0       ?empty@?$basic_string@DU?$char_traits@D@std@@V?$allocator@D@2@@std@@QBE_NXZ 004d78b0 f i ClientConnection.obj
 0002:000268d0       ?compare@?$basic_string@DU?$char_traits@D@std@@V?$allocator@D@2@@std@@QBEHABV12@@Z 004d78d0 f i ClientConnection.obj
 0002:00026910       ?size@?$basic_string@DU?$char_traits@D@std@@V?$allocator@D@2@@std@@QBEIXZ 004d7910 f i ClientConnection.obj
 0002:00026930       ??1?$_Tree@V?$_Tmap_traits@_WKU?$less@_W@std@@V?$allocator@U?$pair@$$CB_WK@std@@@2@$0A@@std@@@std@@QAE@XZ 004d7930 f i ClientConnection.obj
 0002:000269a0       ??1?$_Tree@V?$_Tmap_traits@K_WU?$less@K@std@@V?$allocator@U?$pair@$$CBK_W@std@@@2@$0A@@std@@@std@@QAE@XZ 004d79a0 f i ClientConnection.obj
 0002:00026a10       ??0?$vector@KV?$allocator@K@std@@@std@@QAE@XZ 004d7a10 f i ClientConnection.obj
 0002:00026a40       ??1?$vector@KV?$allocator@K@std@@@std@@QAE@XZ 004d7a40 f i ClientConnection.obj
 0002:00026ab0       ?begin@?$vector@KV?$allocator@K@std@@@std@@QAE?AV?$_Vector_iterator@V?$_Vector_val@KV?$allocator@K@std@@@std@@@2@XZ 004d7ab0 f i ClientConnection.obj
 0002:00026b00       ?end@?$vector@KV?$allocator@K@std@@@std@@QAE?AV?$_Vector_iterator@V?$_Vector_val@KV?$allocator@K@std@@@std@@@2@XZ 004d7b00 f i ClientConnection.obj
 0002:00026b50       ?size@?$vector@KV?$allocator@K@std@@@std@@QBEIXZ 004d7b50 f i ClientConnection.obj
 0002:00026b70       ?push_back@?$vector@KV?$allocator@K@std@@@std@@QAEXABK@Z 004d7b70 f i ClientConnection.obj
 0002:00026cb0       ??0?$vector@EV?$allocator@E@std@@@std@@QAE@XZ 004d7cb0 f i ClientConnection.obj
 0002:00026ce0       ?push_back@?$vector@EV?$allocator@E@std@@@std@@QAEX$$QAE@Z 004d7ce0 f i ClientConnection.obj
 0002:00026e30       ??1?$vector@EV?$allocator@E@std@@@std@@QAE@XZ 004d7e30 f i ClientConnection.obj
 0002:00026ea0       ?begin@?$vector@EV?$allocator@E@std@@@std@@QAE?AV?$_Vector_iterator@V?$_Vector_val@EV?$allocator@E@std@@@std@@@2@XZ 004d7ea0 f i ClientConnection.obj
 0002:00026ef0       ?end@?$vector@EV?$allocator@E@std@@@std@@QAE?AV?$_Vector_iterator@V?$_Vector_val@EV?$allocator@E@std@@@std@@@2@XZ 004d7ef0 f i ClientConnection.obj
 0002:00026f40       ?empty@?$vector@EV?$allocator@E@std@@@std@@QBE_NXZ 004d7f40 f i ClientConnection.obj
 0002:00026f70       ?push_back@?$vector@EV?$allocator@E@std@@@std@@QAEXABE@Z 004d7f70 f i ClientConnection.obj
 0002:000270b0       ??9?$_Vector_const_iterator@V?$_Vector_val@KV?$allocator@K@std@@@std@@@std@@QBE_NABV01@@Z 004d80b0 f i ClientConnection.obj
 0002:000270e0       ??D?$_Vector_iterator@V?$_Vector_val@EV?$allocator@E@std@@@std@@@std@@QBEAAEXZ 004d80e0 f i ClientConnection.obj
 0002:00027100       ??E?$_Vector_iterator@V?$_Vector_val@EV?$allocator@E@std@@@std@@@std@@QAE?AV01@H@Z 004d8100 f i ClientConnection.obj
 0002:000271a0       ??9?$_Vector_const_iterator@V?$_Vector_val@EV?$allocator@E@std@@@std@@@std@@QBE_NABV01@@Z 004d81a0 f i ClientConnection.obj
 0002:000271d0       ??0?$_Vector_iterator@V?$_Vector_val@EV?$allocator@E@std@@@std@@@std@@QAE@ABV01@@Z 004d81d0 f i ClientConnection.obj
 0002:00027200       ??0?$_Vector_const_iterator@V?$_Vector_val@EV?$allocator@E@std@@@std@@@std@@QAE@ABV01@@Z 004d8200 f i ClientConnection.obj
 0002:00027240       ??0?$_Iterator012@Urandom_access_iterator_tag@std@@EHPBEABEU_Iterator_base12@2@@std@@QAE@ABU01@@Z 004d8240 f i ClientConnection.obj
 0002:00027270       ??0_Iterator_base12@std@@QAE@ABU01@@Z 004d8270 f i ClientConnection.obj
 0002:000272b0       ??4_Iterator_base12@std@@QAEAAU01@ABU01@@Z 004d82b0 f i ClientConnection.obj
 0002:000272f0       ?_Adopt@_Iterator_base12@std@@QAEXPBU_Container_base12@2@@Z 004d82f0 f i ClientConnection.obj
 0002:000273b0       ?assign@?$basic_string@DU?$char_traits@D@std@@V?$allocator@D@2@@std@@QAEAAV12@ABV12@@Z 004d83b0 f i ClientConnection.obj
 0002:000273e0       ?assign@?$basic_string@DU?$char_traits@D@std@@V?$allocator@D@2@@std@@QAEAAV12@PBD@Z 004d83e0 f i ClientConnection.obj
 0002:00027430       ?length@?$char_traits@D@std@@SAIPBD@Z 004d8430 f i ClientConnection.obj
 0002:00027450       ?compare@?$basic_string@DU?$char_traits@D@std@@V?$allocator@D@2@@std@@QBEHIIPBDI@Z 004d8450 f i ClientConnection.obj
 0002:00027550       ?compare@?$char_traits@D@std@@SAHPBD0I@Z 004d8550 f i ClientConnection.obj
 0002:00027570       ?_Tidy@?$basic_string@DU?$char_traits@D@std@@V?$allocator@D@2@@std@@QAEX_NI@Z 004d8570 f i ClientConnection.obj
 0002:00027610       ?copy@?$char_traits@D@std@@SAPADPADPBDI@Z 004d8610 f i ClientConnection.obj
 0002:00027630       ?_Myptr@?$basic_string@DU?$char_traits@D@std@@V?$allocator@D@2@@std@@QBEPBDXZ 004d8630 f i ClientConnection.obj
 0002:00027670       ??0?$_String_val@DV?$allocator@D@std@@@std@@QAE@V?$allocator@D@1@@Z 004d8670 f i ClientConnection.obj
 0002:00027740       ??0_Container_proxy@std@@QAE@XZ 004d8740 f i ClientConnection.obj
 0002:00027770       ??0_Container_base12@std@@QAE@XZ 004d8770 f i ClientConnection.obj
 0002:00027790       ??1_Container_base12@std@@QAE@XZ 004d8790 f i ClientConnection.obj
 0002:000277b0       ?_Orphan_all@_Container_base12@std@@QAEXXZ 004d87b0 f i ClientConnection.obj
 0002:00027830       ??1?$_String_val@DV?$allocator@D@std@@@std@@QAE@XZ 004d8830 f i ClientConnection.obj
 0002:000278f0       ??0?$allocator@D@std@@QAE@XZ 004d88f0 f i ClientConnection.obj
 0002:00027910       ??0?$allocator@D@std@@QAE@ABV01@@Z 004d8910 f i ClientConnection.obj
 0002:00027930       ?_Tidy@?$_Tree@V?$_Tmap_traits@_WKU?$less@_W@std@@V?$allocator@U?$pair@$$CB_WK@std@@@2@$0A@@std@@@std@@IAEXXZ 004d8930 f i ClientConnection.obj
 0002:00027a40       ??1?$_Tree_val@V?$_Tmap_traits@_WKU?$less@_W@std@@V?$allocator@U?$pair@$$CB_WK@std@@@2@$0A@@std@@@std@@QAE@XZ 004d8a40 f i ClientConnection.obj
 0002:00027ac0       ?_Tidy@?$_Tree@V?$_Tmap_traits@K_WU?$less@K@std@@V?$allocator@U?$pair@$$CBK_W@std@@@2@$0A@@std@@@std@@IAEXXZ 004d8ac0 f i ClientConnection.obj
 0002:00027bd0       ??1?$_Tree_val@V?$_Tmap_traits@K_WU?$less@K@std@@V?$allocator@U?$pair@$$CBK_W@std@@@2@$0A@@std@@@std@@QAE@XZ 004d8bd0 f i ClientConnection.obj
 0002:00027c50       ?_Inside@?$vector@KV?$allocator@K@std@@@std@@IBE_NPBK@Z 004d8c50 f i ClientConnection.obj
 0002:00027ca0       ?_Reserve@?$vector@KV?$allocator@K@std@@@std@@IAEXI@Z 004d8ca0 f i ClientConnection.obj
 0002:00027d20       ?_Tidy@?$vector@KV?$allocator@K@std@@@std@@IAEXXZ 004d8d20 f i ClientConnection.obj
 0002:00027db0       ?_Orphan_range@?$vector@KV?$allocator@K@std@@@std@@IBEXPAK0@Z 004d8db0 f i ClientConnection.obj
 0002:00027ea0       ?_Getpfirst@_Container_base12@std@@QBEPAPAU_Iterator_base12@2@XZ 004d8ea0 f i ClientConnection.obj
 0002:00027ee0       ?_Clrcont@_Iterator_base12@std@@QAEXXZ 004d8ee0 f i ClientConnection.obj
 0002:00027f00       ?_Getpnext@_Iterator_base12@std@@QAEPAPAU12@XZ 004d8f00 f i ClientConnection.obj
 0002:00027f20       ??0?$_Vector_val@KV?$allocator@K@std@@@std@@QAE@V?$allocator@K@1@@Z 004d8f20 f i ClientConnection.obj
 0002:00028020       ??1?$_Vector_val@KV?$allocator@K@std@@@std@@QAE@XZ 004d9020 f i ClientConnection.obj
 0002:000280e0       ??0?$allocator@K@std@@QAE@XZ 004d90e0 f i ClientConnection.obj
 0002:00028100       ?_Inside@?$vector@EV?$allocator@E@std@@@std@@IBE_NPBE@Z 004d9100 f i ClientConnection.obj
 0002:00028150       ?_Reserve@?$vector@EV?$allocator@E@std@@@std@@IAEXI@Z 004d9150 f i ClientConnection.obj
 0002:000281d0       ?_Tidy@?$vector@EV?$allocator@E@std@@@std@@IAEXXZ 004d91d0 f i ClientConnection.obj
 0002:00028260       ?_Orphan_range@?$vector@EV?$allocator@E@std@@@std@@IBEXPAE0@Z 004d9260 f i ClientConnection.obj
 0002:00028350       ??0?$_Vector_val@EV?$allocator@E@std@@@std@@QAE@V?$allocator@E@1@@Z 004d9350 f i ClientConnection.obj
 0002:00028450       ??1?$_Vector_val@EV?$allocator@E@std@@@std@@QAE@XZ 004d9450 f i ClientConnection.obj
 0002:00028510       ??0?$allocator@E@std@@QAE@XZ 004d9510 f i ClientConnection.obj
 0002:00028530       ??0?$_Vector_iterator@V?$_Vector_val@KV?$allocator@K@std@@@std@@@std@@QAE@PAKPBU_Container_base12@1@@Z 004d9530 f i ClientConnection.obj
 0002:00028560       ??8?$_Vector_const_iterator@V?$_Vector_val@KV?$allocator@K@std@@@std@@@std@@QBE_NABV01@@Z 004d9560 f i ClientConnection.obj
 0002:000285a0       ??0?$_Vector_iterator@V?$_Vector_val@EV?$allocator@E@std@@@std@@@std@@QAE@PAEPBU_Container_base12@1@@Z 004d95a0 f i ClientConnection.obj
 0002:000285d0       ??E?$_Vector_iterator@V?$_Vector_val@EV?$allocator@E@std@@@std@@@std@@QAEAAV01@XZ 004d95d0 f i ClientConnection.obj
 0002:000285f0       ??D?$_Vector_const_iterator@V?$_Vector_val@EV?$allocator@E@std@@@std@@@std@@QBEABEXZ 004d95f0 f i ClientConnection.obj
 0002:000286d0       ?_Getcont@_Iterator_base12@std@@QBEPBU_Container_base12@2@XZ 004d96d0 f i ClientConnection.obj
 0002:00028710       ??8?$_Vector_const_iterator@V?$_Vector_val@EV?$allocator@E@std@@@std@@@std@@QBE_NABV01@@Z 004d9710 f i ClientConnection.obj
 0002:00028750       ??1?$_Tree_iterator@V?$_Tree_val@V?$_Tmap_traits@_WKU?$less@_W@std@@V?$allocator@U?$pair@$$CB_WK@std@@@2@$0A@@std@@@std@@@std@@QAE@XZ 004d9750 f i ClientConnection.obj
 0002:00028770       ??0?$_Tree_const_iterator@V?$_Tree_val@V?$_Tmap_traits@_WKU?$less@_W@std@@V?$allocator@U?$pair@$$CB_WK@std@@@2@$0A@@std@@@std@@@std@@QAE@ABV01@@Z 004d9770 f i ClientConnection.obj
 0002:000287a0       ??1?$_Tree_const_iterator@V?$_Tree_val@V?$_Tmap_traits@_WKU?$less@_W@std@@V?$allocator@U?$pair@$$CB_WK@std@@@2@$0A@@std@@@std@@@std@@QAE@XZ 004d97a0 f i ClientConnection.obj
 0002:000287c0       ??1?$_Tree_iterator@V?$_Tree_val@V?$_Tmap_traits@K_WU?$less@K@std@@V?$allocator@U?$pair@$$CBK_W@std@@@2@$0A@@std@@@std@@@std@@QAE@XZ 004d97c0 f i ClientConnection.obj
 0002:000287e0       ??0?$_Tree_const_iterator@V?$_Tree_val@V?$_Tmap_traits@K_WU?$less@K@std@@V?$allocator@U?$pair@$$CBK_W@std@@@2@$0A@@std@@@std@@@std@@QAE@ABV01@@Z 004d97e0 f i ClientConnection.obj
 0002:00028810       ??1?$_Tree_const_iterator@V?$_Tree_val@V?$_Tmap_traits@K_WU?$less@K@std@@V?$allocator@U?$pair@$$CBK_W@std@@@2@$0A@@std@@@std@@@std@@QAE@XZ 004d9810 f i ClientConnection.obj
 0002:00028830       ??0?$_Tree_unchecked_const_iterator@V?$_Tree_val@V?$_Tmap_traits@_WKU?$less@_W@std@@V?$allocator@U?$pair@$$CB_WK@std@@@2@$0A@@std@@@std@@U_Iterator_base12@2@@std@@QAE@ABV01@@Z 004d9830 f i ClientConnection.obj
 0002:00028870       ??1?$_Tree_unchecked_const_iterator@V?$_Tree_val@V?$_Tmap_traits@_WKU?$less@_W@std@@V?$allocator@U?$pair@$$CB_WK@std@@@2@$0A@@std@@@std@@U_Iterator_base12@2@@std@@QAE@XZ 004d9870 f i ClientConnection.obj
 0002:00028890       ??0?$_Tree_unchecked_const_iterator@V?$_Tree_val@V?$_Tmap_traits@K_WU?$less@K@std@@V?$allocator@U?$pair@$$CBK_W@std@@@2@$0A@@std@@@std@@U_Iterator_base12@2@@std@@QAE@ABV01@@Z 004d9890 f i ClientConnection.obj
 0002:000288d0       ??1?$_Tree_unchecked_const_iterator@V?$_Tree_val@V?$_Tmap_traits@K_WU?$less@K@std@@V?$allocator@U?$pair@$$CBK_W@std@@@2@$0A@@std@@@std@@U_Iterator_base12@2@@std@@QAE@XZ 004d98d0 f i ClientConnection.obj
 0002:000288f0       ??0?$_Iterator012@Ubidirectional_iterator_tag@std@@U?$pair@$$CB_WK@2@HPBU32@ABU32@U_Iterator_base12@2@@std@@QAE@ABU01@@Z 004d98f0 f i ClientConnection.obj
 0002:00028920       ??1?$_Iterator012@Ubidirectional_iterator_tag@std@@U?$pair@$$CB_WK@2@HPBU32@ABU32@U_Iterator_base12@2@@std@@QAE@XZ 004d9920 f i ClientConnection.obj
 0002:00028940       ??0?$_Iterator012@Ubidirectional_iterator_tag@std@@U?$pair@$$CBK_W@2@HPBU32@ABU32@U_Iterator_base12@2@@std@@QAE@ABU01@@Z 004d9940 f i ClientConnection.obj
 0002:00028970       ??1?$_Iterator012@Ubidirectional_iterator_tag@std@@U?$pair@$$CBK_W@2@HPBU32@ABU32@U_Iterator_base12@2@@std@@QAE@XZ 004d9970 f i ClientConnection.obj
 0002:00028990       ?assign@?$basic_string@DU?$char_traits@D@std@@V?$allocator@D@2@@std@@QAEAAV12@ABV12@II@Z 004d9990 f i ClientConnection.obj
 0002:00028a70       ?assign@?$basic_string@DU?$char_traits@D@std@@V?$allocator@D@2@@std@@QAEAAV12@PBDI@Z 004d9a70 f i ClientConnection.obj
 0002:00028b30       ?_Eos@?$basic_string@DU?$char_traits@D@std@@V?$allocator@D@2@@std@@QAEXI@Z 004d9b30 f i ClientConnection.obj
 0002:00028b80       ?assign@?$char_traits@D@std@@SAXAADABD@Z 004d9b80 f i ClientConnection.obj
 0002:00028ba0       ?_Myptr@?$basic_string@DU?$char_traits@D@std@@V?$allocator@D@2@@std@@QAEPADXZ 004d9ba0 f i ClientConnection.obj
 0002:00028be0       ?_Xran@?$basic_string@DU?$char_traits@D@std@@V?$allocator@D@2@@std@@QBEXXZ 004d9be0 f i ClientConnection.obj
 0002:00028c00       ?deallocate@?$allocator@D@std@@QAEXPADI@Z 004d9c00 f i ClientConnection.obj
 0002:00028c20       ?begin@?$_Tree@V?$_Tmap_traits@_WKU?$less@_W@std@@V?$allocator@U?$pair@$$CB_WK@std@@@2@$0A@@std@@@std@@QAE?AV?$_Tree_iterator@V?$_Tree_val@V?$_Tmap_traits@_WKU?$less@_W@std@@V?$allocator@U?$pair@$$CB_WK@std@@@2@$0A@@std@@@std@@@2@XZ 004d9c20 f i ClientConnection.obj
 0002:00028c70       ?end@?$_Tree@V?$_Tmap_traits@_WKU?$less@_W@std@@V?$allocator@U?$pair@$$CB_WK@std@@@2@$0A@@std@@@std@@QAE?AV?$_Tree_iterator@V?$_Tree_val@V?$_Tmap_traits@_WKU?$less@_W@std@@V?$allocator@U?$pair@$$CB_WK@std@@@2@$0A@@std@@@std@@@2@XZ 004d9c70 f i ClientConnection.obj
 0002:00028cc0       ?erase@?$_Tree@V?$_Tmap_traits@_WKU?$less@_W@std@@V?$allocator@U?$pair@$$CB_WK@std@@@2@$0A@@std@@@std@@QAE?AV?$_Tree_iterator@V?$_Tree_val@V?$_Tmap_traits@_WKU?$less@_W@std@@V?$allocator@U?$pair@$$CB_WK@std@@@2@$0A@@std@@@std@@@2@V?$_Tree_const_iterator@V?$_Tree_val@V?$_Tmap_traits@_WKU?$less@_W@std@@V?$allocator@U?$pair@$$CB_WK@std@@@2@$0A@@std@@@std@@@2@0@Z 004d9cc0 f i ClientConnection.obj
 0002:00028f10       ??1?$_Tree_nod@V?$_Tmap_traits@_WKU?$less@_W@std@@V?$allocator@U?$pair@$$CB_WK@std@@@2@$0A@@std@@@std@@QAE@XZ 004d9f10 f i ClientConnection.obj
 0002:00028fd0       ?deallocate@?$allocator@U_Node@?$_Tree_nod@V?$_Tmap_traits@_WKU?$less@_W@std@@V?$allocator@U?$pair@$$CB_WK@std@@@2@$0A@@std@@@std@@@std@@QAEXPAU_Node@?$_Tree_nod@V?$_Tmap_traits@_WKU?$less@_W@std@@V?$allocator@U?$pair@$$CB_WK@std@@@2@$0A@@std@@@2@I@Z 004d9fd0 f i ClientConnection.obj
 0002:00028ff0       ?begin@?$_Tree@V?$_Tmap_traits@K_WU?$less@K@std@@V?$allocator@U?$pair@$$CBK_W@std@@@2@$0A@@std@@@std@@QAE?AV?$_Tree_iterator@V?$_Tree_val@V?$_Tmap_traits@K_WU?$less@K@std@@V?$allocator@U?$pair@$$CBK_W@std@@@2@$0A@@std@@@std@@@2@XZ 004d9ff0 f i ClientConnection.obj
 0002:00029040       ?end@?$_Tree@V?$_Tmap_traits@K_WU?$less@K@std@@V?$allocator@U?$pair@$$CBK_W@std@@@2@$0A@@std@@@std@@QAE?AV?$_Tree_iterator@V?$_Tree_val@V?$_Tmap_traits@K_WU?$less@K@std@@V?$allocator@U?$pair@$$CBK_W@std@@@2@$0A@@std@@@std@@@2@XZ 004da040 f i ClientConnection.obj
 0002:00029090       ?erase@?$_Tree@V?$_Tmap_traits@K_WU?$less@K@std@@V?$allocator@U?$pair@$$CBK_W@std@@@2@$0A@@std@@@std@@QAE?AV?$_Tree_iterator@V?$_Tree_val@V?$_Tmap_traits@K_WU?$less@K@std@@V?$allocator@U?$pair@$$CBK_W@std@@@2@$0A@@std@@@std@@@2@V?$_Tree_const_iterator@V?$_Tree_val@V?$_Tmap_traits@K_WU?$less@K@std@@V?$allocator@U?$pair@$$CBK_W@std@@@2@$0A@@std@@@std@@@2@0@Z 004da090 f i ClientConnection.obj
 0002:000292e0       ??1?$_Tree_nod@V?$_Tmap_traits@K_WU?$less@K@std@@V?$allocator@U?$pair@$$CBK_W@std@@@2@$0A@@std@@@std@@QAE@XZ 004da2e0 f i ClientConnection.obj
 0002:000293a0       ?deallocate@?$allocator@U_Node@?$_Tree_nod@V?$_Tmap_traits@K_WU?$less@K@std@@V?$allocator@U?$pair@$$CBK_W@std@@@2@$0A@@std@@@std@@@std@@QAEXPAU_Node@?$_Tree_nod@V?$_Tmap_traits@K_WU?$less@K@std@@V?$allocator@U?$pair@$$CBK_W@std@@@2@$0A@@std@@@2@I@Z 004da3a0 f i ClientConnection.obj
 0002:000293c0       ?reserve@?$vector@KV?$allocator@K@std@@@std@@QAEXI@Z 004da3c0 f i ClientConnection.obj
 0002:00029570       ?capacity@?$vector@KV?$allocator@K@std@@@std@@QBEIXZ 004da570 f i ClientConnection.obj
 0002:00029590       ?max_size@?$vector@KV?$allocator@K@std@@@std@@QBEIXZ 004da590 f i ClientConnection.obj
 0002:000295b0       ?_Destroy@?$vector@KV?$allocator@K@std@@@std@@IAEXPAK0@Z 004da5b0 f i ClientConnection.obj
 0002:000295e0       ?_Grow_to@?$vector@KV?$allocator@K@std@@@std@@IBEII@Z 004da5e0 f i ClientConnection.obj
 0002:00029650       ?_Xlen@?$vector@KV?$allocator@K@std@@@std@@IBEXXZ 004da650 f i ClientConnection.obj
 0002:00029670       ??0?$allocator@K@std@@QAE@ABV01@@Z 004da670 f i ClientConnection.obj
 0002:00029690       ?deallocate@?$allocator@K@std@@QAEXPAKI@Z 004da690 f i ClientConnection.obj
 0002:000296b0       ?reserve@?$vector@EV?$allocator@E@std@@@std@@QAEXI@Z 004da6b0 f i ClientConnection.obj
 0002:00029850       ?capacity@?$vector@EV?$allocator@E@std@@@std@@QBEIXZ 004da850 f i ClientConnection.obj
 0002:00029870       ?size@?$vector@EV?$allocator@E@std@@@std@@QBEIXZ 004da870 f i ClientConnection.obj
 0002:00029890       ?max_size@?$vector@EV?$allocator@E@std@@@std@@QBEIXZ 004da890 f i ClientConnection.obj
 0002:000298b0       ?_Destroy@?$vector@EV?$allocator@E@std@@@std@@IAEXPAE0@Z 004da8b0 f i ClientConnection.obj
 0002:000298e0       ?_Grow_to@?$vector@EV?$allocator@E@std@@@std@@IBEII@Z 004da8e0 f i ClientConnection.obj
 0002:00029950       ?_Xlen@?$vector@EV?$allocator@E@std@@@std@@IBEXXZ 004da950 f i ClientConnection.obj
 0002:00029970       ??0?$allocator@E@std@@QAE@ABV01@@Z 004da970 f i ClientConnection.obj
 0002:00029990       ?deallocate@?$allocator@E@std@@QAEXPAEI@Z 004da990 f i ClientConnection.obj
 0002:000299b0       ??0?$_Vector_const_iterator@V?$_Vector_val@KV?$allocator@K@std@@@std@@@std@@QAE@PAKPBU_Container_base12@1@@Z 004da9b0 f i ClientConnection.obj
 0002:00029a30       ?_Compat@?$_Vector_const_iterator@V?$_Vector_val@KV?$allocator@K@std@@@std@@@std@@QBEXABV12@@Z 004daa30 f i ClientConnection.obj
 0002:00029af0       ??0?$_Vector_const_iterator@V?$_Vector_val@EV?$allocator@E@std@@@std@@@std@@QAE@PAEPBU_Container_base12@1@@Z 004daaf0 f i ClientConnection.obj
 0002:00029b70       ??E?$_Vector_const_iterator@V?$_Vector_val@EV?$allocator@E@std@@@std@@@std@@QAEAAV01@XZ 004dab70 f i ClientConnection.obj
 0002:00029c40       ?_Compat@?$_Vector_const_iterator@V?$_Vector_val@EV?$allocator@E@std@@@std@@@std@@QBEXABV12@@Z 004dac40 f i ClientConnection.obj
 0002:00029d00       ?deallocate@?$allocator@U_Container_proxy@std@@@std@@QAEXPAU_Container_proxy@2@I@Z 004dad00 f i ClientConnection.obj
 0002:00029d20       ?allocate@?$allocator@U_Container_proxy@std@@@std@@QAEPAU_Container_proxy@2@I@Z 004dad20 f i ClientConnection.obj
 0002:00029d50       ??1?$_Tmap_traits@_WKU?$less@_W@std@@V?$allocator@U?$pair@$$CB_WK@std@@@2@$0A@@std@@QAE@XZ 004dad50 f i ClientConnection.obj
 0002:00029d70       ??1?$_Tmap_traits@K_WU?$less@K@std@@V?$allocator@U?$pair@$$CBK_W@std@@@2@$0A@@std@@QAE@XZ 004dad70 f i ClientConnection.obj
 0002:00029d90       ??0?$_Iterator012@Urandom_access_iterator_tag@std@@KHPBKABKU_Iterator_base12@2@@std@@QAE@XZ 004dad90 f i ClientConnection.obj
 0002:00029db0       ??0_Iterator_base12@std@@QAE@XZ 004dadb0 f i ClientConnection.obj
 0002:00029de0       ??0?$_Iterator012@Urandom_access_iterator_tag@std@@EHPBEABEU_Iterator_base12@2@@std@@QAE@XZ 004dade0 f i ClientConnection.obj
 0002:00029e00       ?erase@?$basic_string@DU?$char_traits@D@std@@V?$allocator@D@2@@std@@QAEAAV12@II@Z 004dae00 f i ClientConnection.obj
 0002:00029eb0       ?move@?$char_traits@D@std@@SAPADPADPBDI@Z 004daeb0 f i ClientConnection.obj
 0002:00029ed0       ?_Grow@?$basic_string@DU?$char_traits@D@std@@V?$allocator@D@2@@std@@QAE_NI_N@Z 004daed0 f i ClientConnection.obj
 0002:00029f90       ?_Inside@?$basic_string@DU?$char_traits@D@std@@V?$allocator@D@2@@std@@QAE_NPBD@Z 004daf90 f i ClientConnection.obj
 0002:00029fe0       ?_Xlen@?$basic_string@DU?$char_traits@D@std@@V?$allocator@D@2@@std@@QBEXXZ 004dafe0 f i ClientConnection.obj
 0002:0002a000       ?erase@?$_Tree@V?$_Tmap_traits@_WKU?$less@_W@std@@V?$allocator@U?$pair@$$CB_WK@std@@@2@$0A@@std@@@std@@QAE?AV?$_Tree_iterator@V?$_Tree_val@V?$_Tmap_traits@_WKU?$less@_W@std@@V?$allocator@U?$pair@$$CB_WK@std@@@2@$0A@@std@@@std@@@2@V?$_Tree_const_iterator@V?$_Tree_val@V?$_Tmap_traits@_WKU?$less@_W@std@@V?$allocator@U?$pair@$$CB_WK@std@@@2@$0A@@std@@@std@@@2@@Z 004db000 f i ClientConnection.obj
 0002:0002aa00       ?clear@?$_Tree@V?$_Tmap_traits@_WKU?$less@_W@std@@V?$allocator@U?$pair@$$CB_WK@std@@@2@$0A@@std@@@std@@QAEXXZ 004dba00 f i ClientConnection.obj
 0002:0002aa80       ?_Lmost@?$_Tree@V?$_Tmap_traits@_WKU?$less@_W@std@@V?$allocator@U?$pair@$$CB_WK@std@@@2@$0A@@std@@@std@@IBEAAPAU_Node@?$_Tree_nod@V?$_Tmap_traits@_WKU?$less@_W@std@@V?$allocator@U?$pair@$$CB_WK@std@@@2@$0A@@std@@@2@XZ 004dba80 f i ClientConnection.obj
 0002:0002aaa0       ?erase@?$_Tree@V?$_Tmap_traits@K_WU?$less@K@std@@V?$allocator@U?$pair@$$CBK_W@std@@@2@$0A@@std@@@std@@QAE?AV?$_Tree_iterator@V?$_Tree_val@V?$_Tmap_traits@K_WU?$less@K@std@@V?$allocator@U?$pair@$$CBK_W@std@@@2@$0A@@std@@@std@@@2@V?$_Tree_const_iterator@V?$_Tree_val@V?$_Tmap_traits@K_WU?$less@K@std@@V?$allocator@U?$pair@$$CBK_W@std@@@2@$0A@@std@@@std@@@2@@Z 004dbaa0 f i ClientConnection.obj
 0002:0002b4a0       ?clear@?$_Tree@V?$_Tmap_traits@K_WU?$less@K@std@@V?$allocator@U?$pair@$$CBK_W@std@@@2@$0A@@std@@@std@@QAEXXZ 004dc4a0 f i ClientConnection.obj
 0002:0002b520       ?_Lmost@?$_Tree@V?$_Tmap_traits@K_WU?$less@K@std@@V?$allocator@U?$pair@$$CBK_W@std@@@2@$0A@@std@@@std@@IBEAAPAU_Node@?$_Tree_nod@V?$_Tmap_traits@K_WU?$less@K@std@@V?$allocator@U?$pair@$$CBK_W@std@@@2@$0A@@std@@@2@XZ 004dc520 f i ClientConnection.obj
 0002:0002b540       ?allocate@?$allocator@K@std@@QAEPAKI@Z 004dc540 f i ClientConnection.obj
 0002:0002b570       ?max_size@?$allocator@K@std@@QBEIXZ 004dc570 f i ClientConnection.obj
 0002:0002b5b0       ?allocate@?$allocator@E@std@@QAEPAEI@Z 004dc5b0 f i ClientConnection.obj
 0002:0002b5e0       ?max_size@?$allocator@E@std@@QBEIXZ 004dc5e0 f i ClientConnection.obj
 0002:0002b620       ??0?$_Tree_iterator@V?$_Tree_val@V?$_Tmap_traits@_WKU?$less@_W@std@@V?$allocator@U?$pair@$$CB_WK@std@@@2@$0A@@std@@@std@@@std@@QAE@PAU_Node@?$_Tree_nod@V?$_Tmap_traits@_WKU?$less@_W@std@@V?$allocator@U?$pair@$$CB_WK@std@@@2@$0A@@std@@@1@PBV?$_Tree_val@V?$_Tmap_traits@_WKU?$less@_W@std@@V?$allocator@U?$pair@$$CB_WK@std@@@2@$0A@@std@@@1@@Z 004dc620 f i ClientConnection.obj
 0002:0002b650       ??E?$_Tree_const_iterator@V?$_Tree_val@V?$_Tmap_traits@_WKU?$less@_W@std@@V?$allocator@U?$pair@$$CB_WK@std@@@2@$0A@@std@@@std@@@std@@QAE?AV01@H@Z 004dc650 f i ClientConnection.obj
 0002:0002b6f0       ??8?$_Tree_const_iterator@V?$_Tree_val@V?$_Tmap_traits@_WKU?$less@_W@std@@V?$allocator@U?$pair@$$CB_WK@std@@@2@$0A@@std@@@std@@@std@@QBE_NABV01@@Z 004dc6f0 f i ClientConnection.obj
 0002:0002b7c0       ??9?$_Tree_const_iterator@V?$_Tree_val@V?$_Tmap_traits@_WKU?$less@_W@std@@V?$allocator@U?$pair@$$CB_WK@std@@@2@$0A@@std@@@std@@@std@@QBE_NABV01@@Z 004dc7c0 f i ClientConnection.obj
 0002:0002b7f0       ??0?$_Tree_iterator@V?$_Tree_val@V?$_Tmap_traits@K_WU?$less@K@std@@V?$allocator@U?$pair@$$CBK_W@std@@@2@$0A@@std@@@std@@@std@@QAE@PAU_Node@?$_Tree_nod@V?$_Tmap_traits@K_WU?$less@K@std@@V?$allocator@U?$pair@$$CBK_W@std@@@2@$0A@@std@@@1@PBV?$_Tree_val@V?$_Tmap_traits@K_WU?$less@K@std@@V?$allocator@U?$pair@$$CBK_W@std@@@2@$0A@@std@@@1@@Z 004dc7f0 f i ClientConnection.obj
 0002:0002b820       ??E?$_Tree_const_iterator@V?$_Tree_val@V?$_Tmap_traits@K_WU?$less@K@std@@V?$allocator@U?$pair@$$CBK_W@std@@@2@$0A@@std@@@std@@@std@@QAE?AV01@H@Z 004dc820 f i ClientConnection.obj
 0002:0002b8c0       ??8?$_Tree_const_iterator@V?$_Tree_val@V?$_Tmap_traits@K_WU?$less@K@std@@V?$allocator@U?$pair@$$CBK_W@std@@@2@$0A@@std@@@std@@@std@@QBE_NABV01@@Z 004dc8c0 f i ClientConnection.obj
 0002:0002b990       ??9?$_Tree_const_iterator@V?$_Tree_val@V?$_Tmap_traits@K_WU?$less@K@std@@V?$allocator@U?$pair@$$CBK_W@std@@@2@$0A@@std@@@std@@@std@@QBE_NABV01@@Z 004dc990 f i ClientConnection.obj
 0002:0002b9c0       ?max_size@?$basic_string@DU?$char_traits@D@std@@V?$allocator@D@2@@std@@QBEIXZ 004dc9c0 f i ClientConnection.obj
 0002:0002ba10       ?_Copy@?$basic_string@DU?$char_traits@D@std@@V?$allocator@D@2@@std@@QAEXII@Z 004dca10 f i ClientConnection.obj
 0002:0002bc00       ?_Erase@?$_Tree@V?$_Tmap_traits@_WKU?$less@_W@std@@V?$allocator@U?$pair@$$CB_WK@std@@@2@$0A@@std@@@std@@IAEXPAU_Node@?$_Tree_nod@V?$_Tmap_traits@_WKU?$less@_W@std@@V?$allocator@U?$pair@$$CB_WK@std@@@2@$0A@@std@@@2@@Z 004dcc00 f i ClientConnection.obj
 0002:0002bcc0       ?_Lrotate@?$_Tree@V?$_Tmap_traits@_WKU?$less@_W@std@@V?$allocator@U?$pair@$$CB_WK@std@@@2@$0A@@std@@@std@@IAEXPAU_Node@?$_Tree_nod@V?$_Tmap_traits@_WKU?$less@_W@std@@V?$allocator@U?$pair@$$CB_WK@std@@@2@$0A@@std@@@2@@Z 004dccc0 f i ClientConnection.obj
 0002:0002be40       ?_Rmost@?$_Tree@V?$_Tmap_traits@_WKU?$less@_W@std@@V?$allocator@U?$pair@$$CB_WK@std@@@2@$0A@@std@@@std@@IBEAAPAU_Node@?$_Tree_nod@V?$_Tmap_traits@_WKU?$less@_W@std@@V?$allocator@U?$pair@$$CB_WK@std@@@2@$0A@@std@@@2@XZ 004dce40 f i ClientConnection.obj
 0002:0002be60       ?_Root@?$_Tree@V?$_Tmap_traits@_WKU?$less@_W@std@@V?$allocator@U?$pair@$$CB_WK@std@@@2@$0A@@std@@@std@@IBEAAPAU_Node@?$_Tree_nod@V?$_Tmap_traits@_WKU?$less@_W@std@@V?$allocator@U?$pair@$$CB_WK@std@@@2@$0A@@std@@@2@XZ 004dce60 f i ClientConnection.obj
 0002:0002be80       ?_Rrotate@?$_Tree@V?$_Tmap_traits@_WKU?$less@_W@std@@V?$allocator@U?$pair@$$CB_WK@std@@@2@$0A@@std@@@std@@IAEXPAU_Node@?$_Tree_nod@V?$_Tmap_traits@_WKU?$less@_W@std@@V?$allocator@U?$pair@$$CB_WK@std@@@2@$0A@@std@@@2@@Z 004dce80 f i ClientConnection.obj
 0002:0002c000       ?_Orphan_ptr@?$_Tree@V?$_Tmap_traits@_WKU?$less@_W@std@@V?$allocator@U?$pair@$$CB_WK@std@@@2@$0A@@std@@@std@@IBEXAAV12@PAU_Node@?$_Tree_nod@V?$_Tmap_traits@_WKU?$less@_W@std@@V?$allocator@U?$pair@$$CB_WK@std@@@2@$0A@@std@@@2@@Z 004dd000 f i ClientConnection.obj
 0002:0002c100       ?_Color@?$_Tree_val@V?$_Tmap_traits@_WKU?$less@_W@std@@V?$allocator@U?$pair@$$CB_WK@std@@@2@$0A@@std@@@std@@SAAADPAU_Node@?$_Tree_nod@V?$_Tmap_traits@_WKU?$less@_W@std@@V?$allocator@U?$pair@$$CB_WK@std@@@2@$0A@@std@@@2@@Z 004dd100 f i ClientConnection.obj
 0002:0002c110       ?_Isnil@?$_Tree_val@V?$_Tmap_traits@_WKU?$less@_W@std@@V?$allocator@U?$pair@$$CB_WK@std@@@2@$0A@@std@@@std@@SAAADPAU_Node@?$_Tree_nod@V?$_Tmap_traits@_WKU?$less@_W@std@@V?$allocator@U?$pair@$$CB_WK@std@@@2@$0A@@std@@@2@@Z 004dd110 f i ClientConnection.obj
 0002:0002c120       ?_Left@?$_Tree_val@V?$_Tmap_traits@_WKU?$less@_W@std@@V?$allocator@U?$pair@$$CB_WK@std@@@2@$0A@@std@@@std@@SAAAPAU_Node@?$_Tree_nod@V?$_Tmap_traits@_WKU?$less@_W@std@@V?$allocator@U?$pair@$$CB_WK@std@@@2@$0A@@std@@@2@PAU342@@Z 004dd120 f i ClientConnection.obj
 0002:0002c130       ?_Parent@?$_Tree_val@V?$_Tmap_traits@_WKU?$less@_W@std@@V?$allocator@U?$pair@$$CB_WK@std@@@2@$0A@@std@@@std@@SAAAPAU_Node@?$_Tree_nod@V?$_Tmap_traits@_WKU?$less@_W@std@@V?$allocator@U?$pair@$$CB_WK@std@@@2@$0A@@std@@@2@PAU342@@Z 004dd130 f i ClientConnection.obj
 0002:0002c140       ?_Right@?$_Tree_val@V?$_Tmap_traits@_WKU?$less@_W@std@@V?$allocator@U?$pair@$$CB_WK@std@@@2@$0A@@std@@@std@@SAAAPAU_Node@?$_Tree_nod@V?$_Tmap_traits@_WKU?$less@_W@std@@V?$allocator@U?$pair@$$CB_WK@std@@@2@$0A@@std@@@2@PAU342@@Z 004dd140 f i ClientConnection.obj
 0002:0002c150       ?_Myval@?$_Tree_val@V?$_Tmap_traits@_WKU?$less@_W@std@@V?$allocator@U?$pair@$$CB_WK@std@@@2@$0A@@std@@@std@@SAAAU?$pair@$$CB_WK@2@PAU_Node@?$_Tree_nod@V?$_Tmap_traits@_WKU?$less@_W@std@@V?$allocator@U?$pair@$$CB_WK@std@@@2@$0A@@std@@@2@@Z 004dd150 f i ClientConnection.obj
 0002:0002c160       ?_Max@?$_Tree_val@V?$_Tmap_traits@_WKU?$less@_W@std@@V?$allocator@U?$pair@$$CB_WK@std@@@2@$0A@@std@@@std@@SAPAU_Node@?$_Tree_nod@V?$_Tmap_traits@_WKU?$less@_W@std@@V?$allocator@U?$pair@$$CB_WK@std@@@2@$0A@@std@@@2@PAU342@@Z 004dd160 f i ClientConnection.obj
 0002:0002c1b0       ?_Min@?$_Tree_val@V?$_Tmap_traits@_WKU?$less@_W@std@@V?$allocator@U?$pair@$$CB_WK@std@@@2@$0A@@std@@@std@@SAPAU_Node@?$_Tree_nod@V?$_Tmap_traits@_WKU?$less@_W@std@@V?$allocator@U?$pair@$$CB_WK@std@@@2@$0A@@std@@@2@PAU342@@Z 004dd1b0 f i ClientConnection.obj
 0002:0002c200       ?_Erase@?$_Tree@V?$_Tmap_traits@K_WU?$less@K@std@@V?$allocator@U?$pair@$$CBK_W@std@@@2@$0A@@std@@@std@@IAEXPAU_Node@?$_Tree_nod@V?$_Tmap_traits@K_WU?$less@K@std@@V?$allocator@U?$pair@$$CBK_W@std@@@2@$0A@@std@@@2@@Z 004dd200 f i ClientConnection.obj
 0002:0002c2c0       ?_Lrotate@?$_Tree@V?$_Tmap_traits@K_WU?$less@K@std@@V?$allocator@U?$pair@$$CBK_W@std@@@2@$0A@@std@@@std@@IAEXPAU_Node@?$_Tree_nod@V?$_Tmap_traits@K_WU?$less@K@std@@V?$allocator@U?$pair@$$CBK_W@std@@@2@$0A@@std@@@2@@Z 004dd2c0 f i ClientConnection.obj
 0002:0002c440       ?_Rmost@?$_Tree@V?$_Tmap_traits@K_WU?$less@K@std@@V?$allocator@U?$pair@$$CBK_W@std@@@2@$0A@@std@@@std@@IBEAAPAU_Node@?$_Tree_nod@V?$_Tmap_traits@K_WU?$less@K@std@@V?$allocator@U?$pair@$$CBK_W@std@@@2@$0A@@std@@@2@XZ 004dd440 f i ClientConnection.obj
 0002:0002c460       ?_Root@?$_Tree@V?$_Tmap_traits@K_WU?$less@K@std@@V?$allocator@U?$pair@$$CBK_W@std@@@2@$0A@@std@@@std@@IBEAAPAU_Node@?$_Tree_nod@V?$_Tmap_traits@K_WU?$less@K@std@@V?$allocator@U?$pair@$$CBK_W@std@@@2@$0A@@std@@@2@XZ 004dd460 f i ClientConnection.obj
 0002:0002c480       ?_Rrotate@?$_Tree@V?$_Tmap_traits@K_WU?$less@K@std@@V?$allocator@U?$pair@$$CBK_W@std@@@2@$0A@@std@@@std@@IAEXPAU_Node@?$_Tree_nod@V?$_Tmap_traits@K_WU?$less@K@std@@V?$allocator@U?$pair@$$CBK_W@std@@@2@$0A@@std@@@2@@Z 004dd480 f i ClientConnection.obj
 0002:0002c600       ?_Orphan_ptr@?$_Tree@V?$_Tmap_traits@K_WU?$less@K@std@@V?$allocator@U?$pair@$$CBK_W@std@@@2@$0A@@std@@@std@@IBEXAAV12@PAU_Node@?$_Tree_nod@V?$_Tmap_traits@K_WU?$less@K@std@@V?$allocator@U?$pair@$$CBK_W@std@@@2@$0A@@std@@@2@@Z 004dd600 f i ClientConnection.obj
 0002:0002c700       ?_Color@?$_Tree_val@V?$_Tmap_traits@K_WU?$less@K@std@@V?$allocator@U?$pair@$$CBK_W@std@@@2@$0A@@std@@@std@@SAAADPAU_Node@?$_Tree_nod@V?$_Tmap_traits@K_WU?$less@K@std@@V?$allocator@U?$pair@$$CBK_W@std@@@2@$0A@@std@@@2@@Z 004dd700 f i ClientConnection.obj
 0002:0002c710       ?_Isnil@?$_Tree_val@V?$_Tmap_traits@K_WU?$less@K@std@@V?$allocator@U?$pair@$$CBK_W@std@@@2@$0A@@std@@@std@@SAAADPAU_Node@?$_Tree_nod@V?$_Tmap_traits@K_WU?$less@K@std@@V?$allocator@U?$pair@$$CBK_W@std@@@2@$0A@@std@@@2@@Z 004dd710 f i ClientConnection.obj
 0002:0002c720       ?_Left@?$_Tree_val@V?$_Tmap_traits@K_WU?$less@K@std@@V?$allocator@U?$pair@$$CBK_W@std@@@2@$0A@@std@@@std@@SAAAPAU_Node@?$_Tree_nod@V?$_Tmap_traits@K_WU?$less@K@std@@V?$allocator@U?$pair@$$CBK_W@std@@@2@$0A@@std@@@2@PAU342@@Z 004dd720 f i ClientConnection.obj
 0002:0002c730       ?_Parent@?$_Tree_val@V?$_Tmap_traits@K_WU?$less@K@std@@V?$allocator@U?$pair@$$CBK_W@std@@@2@$0A@@std@@@std@@SAAAPAU_Node@?$_Tree_nod@V?$_Tmap_traits@K_WU?$less@K@std@@V?$allocator@U?$pair@$$CBK_W@std@@@2@$0A@@std@@@2@PAU342@@Z 004dd730 f i ClientConnection.obj
 0002:0002c740       ?_Right@?$_Tree_val@V?$_Tmap_traits@K_WU?$less@K@std@@V?$allocator@U?$pair@$$CBK_W@std@@@2@$0A@@std@@@std@@SAAAPAU_Node@?$_Tree_nod@V?$_Tmap_traits@K_WU?$less@K@std@@V?$allocator@U?$pair@$$CBK_W@std@@@2@$0A@@std@@@2@PAU342@@Z 004dd740 f i ClientConnection.obj
 0002:0002c750       ?_Myval@?$_Tree_val@V?$_Tmap_traits@K_WU?$less@K@std@@V?$allocator@U?$pair@$$CBK_W@std@@@2@$0A@@std@@@std@@SAAAU?$pair@$$CBK_W@2@PAU_Node@?$_Tree_nod@V?$_Tmap_traits@K_WU?$less@K@std@@V?$allocator@U?$pair@$$CBK_W@std@@@2@$0A@@std@@@2@@Z 004dd750 f i ClientConnection.obj
 0002:0002c760       ?_Max@?$_Tree_val@V?$_Tmap_traits@K_WU?$less@K@std@@V?$allocator@U?$pair@$$CBK_W@std@@@2@$0A@@std@@@std@@SAPAU_Node@?$_Tree_nod@V?$_Tmap_traits@K_WU?$less@K@std@@V?$allocator@U?$pair@$$CBK_W@std@@@2@$0A@@std@@@2@PAU342@@Z 004dd760 f i ClientConnection.obj
 0002:0002c7b0       ?_Min@?$_Tree_val@V?$_Tmap_traits@K_WU?$less@K@std@@V?$allocator@U?$pair@$$CBK_W@std@@@2@$0A@@std@@@std@@SAPAU_Node@?$_Tree_nod@V?$_Tmap_traits@K_WU?$less@K@std@@V?$allocator@U?$pair@$$CBK_W@std@@@2@$0A@@std@@@2@PAU342@@Z 004dd7b0 f i ClientConnection.obj
 0002:0002c800       ??0?$_Tree_const_iterator@V?$_Tree_val@V?$_Tmap_traits@_WKU?$less@_W@std@@V?$allocator@U?$pair@$$CB_WK@std@@@2@$0A@@std@@@std@@@std@@QAE@PAU_Node@?$_Tree_nod@V?$_Tmap_traits@_WKU?$less@_W@std@@V?$allocator@U?$pair@$$CB_WK@std@@@2@$0A@@std@@@1@PBV?$_Tree_val@V?$_Tmap_traits@_WKU?$less@_W@std@@V?$allocator@U?$pair@$$CB_WK@std@@@2@$0A@@std@@@1@@Z 004dd800 f i ClientConnection.obj
 0002:0002c830       ??E?$_Tree_const_iterator@V?$_Tree_val@V?$_Tmap_traits@_WKU?$less@_W@std@@V?$allocator@U?$pair@$$CB_WK@std@@@2@$0A@@std@@@std@@@std@@QAEAAV01@XZ 004dd830 f i ClientConnection.obj
 0002:0002c900       ?_Mynode@?$_Tree_unchecked_const_iterator@V?$_Tree_val@V?$_Tmap_traits@_WKU?$less@_W@std@@V?$allocator@U?$pair@$$CB_WK@std@@@2@$0A@@std@@@std@@U_Iterator_base12@2@@std@@QBEPAU_Node@?$_Tree_nod@V?$_Tmap_traits@_WKU?$less@_W@std@@V?$allocator@U?$pair@$$CB_WK@std@@@2@$0A@@std@@@2@XZ 004dd900 f i ClientConnection.obj
 0002:0002c920       ??0?$_Tree_const_iterator@V?$_Tree_val@V?$_Tmap_traits@K_WU?$less@K@std@@V?$allocator@U?$pair@$$CBK_W@std@@@2@$0A@@std@@@std@@@std@@QAE@PAU_Node@?$_Tree_nod@V?$_Tmap_traits@K_WU?$less@K@std@@V?$allocator@U?$pair@$$CBK_W@std@@@2@$0A@@std@@@1@PBV?$_Tree_val@V?$_Tmap_traits@K_WU?$less@K@std@@V?$allocator@U?$pair@$$CBK_W@std@@@2@$0A@@std@@@1@@Z 004dd920 f i ClientConnection.obj
 0002:0002c950       ??E?$_Tree_const_iterator@V?$_Tree_val@V?$_Tmap_traits@K_WU?$less@K@std@@V?$allocator@U?$pair@$$CBK_W@std@@@2@$0A@@std@@@std@@@std@@QAEAAV01@XZ 004dd950 f i ClientConnection.obj
 0002:0002ca20       ?_Mynode@?$_Tree_unchecked_const_iterator@V?$_Tree_val@V?$_Tmap_traits@K_WU?$less@K@std@@V?$allocator@U?$pair@$$CBK_W@std@@@2@$0A@@std@@@std@@U_Iterator_base12@2@@std@@QBEPAU_Node@?$_Tree_nod@V?$_Tmap_traits@K_WU?$less@K@std@@V?$allocator@U?$pair@$$CBK_W@std@@@2@$0A@@std@@@2@XZ 004dda20 f i ClientConnection.obj
 0002:0002ca40       ?allocate@?$allocator@D@std@@QAEPADI@Z 004dda40 f i ClientConnection.obj
 0002:0002ca70       ?max_size@?$allocator@D@std@@QBEIXZ 004dda70 f i ClientConnection.obj
 0002:0002cab0       ??0?$_Tree_unchecked_const_iterator@V?$_Tree_val@V?$_Tmap_traits@_WKU?$less@_W@std@@V?$allocator@U?$pair@$$CB_WK@std@@@2@$0A@@std@@@std@@U_Iterator_base12@2@@std@@QAE@PAU_Node@?$_Tree_nod@V?$_Tmap_traits@_WKU?$less@_W@std@@V?$allocator@U?$pair@$$CB_WK@std@@@2@$0A@@std@@@1@PBV?$_Tree_val@V?$_Tmap_traits@_WKU?$less@_W@std@@V?$allocator@U?$pair@$$CB_WK@std@@@2@$0A@@std@@@1@@Z 004ddab0 f i ClientConnection.obj
 0002:0002cb30       ??E?$_Tree_unchecked_const_iterator@V?$_Tree_val@V?$_Tmap_traits@_WKU?$less@_W@std@@V?$allocator@U?$pair@$$CB_WK@std@@@2@$0A@@std@@@std@@U_Iterator_base12@2@@std@@QAEAAV01@XZ 004ddb30 f i ClientConnection.obj
 0002:0002cc20       ??0?$_Tree_unchecked_const_iterator@V?$_Tree_val@V?$_Tmap_traits@K_WU?$less@K@std@@V?$allocator@U?$pair@$$CBK_W@std@@@2@$0A@@std@@@std@@U_Iterator_base12@2@@std@@QAE@PAU_Node@?$_Tree_nod@V?$_Tmap_traits@K_WU?$less@K@std@@V?$allocator@U?$pair@$$CBK_W@std@@@2@$0A@@std@@@1@PBV?$_Tree_val@V?$_Tmap_traits@K_WU?$less@K@std@@V?$allocator@U?$pair@$$CBK_W@std@@@2@$0A@@std@@@1@@Z 004ddc20 f i ClientConnection.obj
 0002:0002cca0       ??E?$_Tree_unchecked_const_iterator@V?$_Tree_val@V?$_Tmap_traits@K_WU?$less@K@std@@V?$allocator@U?$pair@$$CBK_W@std@@@2@$0A@@std@@@std@@U_Iterator_base12@2@@std@@QAEAAV01@XZ 004ddca0 f i ClientConnection.obj
 0002:0002cd90       ??0?$_Iterator012@Ubidirectional_iterator_tag@std@@U?$pair@$$CB_WK@2@HPBU32@ABU32@U_Iterator_base12@2@@std@@QAE@XZ 004ddd90 f i ClientConnection.obj
 0002:0002cdb0       ??0?$_Iterator012@Ubidirectional_iterator_tag@std@@U?$pair@$$CBK_W@2@HPBU32@ABU32@U_Iterator_base12@2@@std@@QAE@XZ 004dddb0 f i ClientConnection.obj
 0002:0002cdd0       ??$find@V?$_Vector_iterator@V?$_Vector_val@KV?$allocator@K@std@@@std@@@std@@K@std@@YA?AV?$_Vector_iterator@V?$_Vector_val@KV?$allocator@K@std@@@std@@@0@V10@0ABK@Z 004dddd0 f i ClientConnection.obj
 0002:0002cf30       ??$find@V?$_Vector_iterator@V?$_Vector_val@EV?$allocator@E@std@@@std@@@std@@K@std@@YA?AV?$_Vector_iterator@V?$_Vector_val@EV?$allocator@E@std@@@std@@@0@V10@0ABK@Z 004ddf30 f i ClientConnection.obj
 0002:0002d090       ??$find@V?$_Vector_iterator@V?$_Vector_val@KV?$allocator@K@std@@@std@@@std@@H@std@@YA?AV?$_Vector_iterator@V?$_Vector_val@KV?$allocator@K@std@@@std@@@0@V10@0ABH@Z 004de090 f i ClientConnection.obj
 0002:0002d1f0       ??$SafeGetWindowUserData@VClientConnection@@@helper@@YAPAVClientConnection@@PAUHWND__@@@Z 004de1f0 f i ClientConnection.obj
 0002:0002d210       ??$_Debug_pointer@D@std@@YAXPBDPB_WI@Z 004de210 f i ClientConnection.obj
 0002:0002d240       ??$addressof@$$CBK@std@@YAPBKABK@Z 004de240 f i ClientConnection.obj
 0002:0002d250       ??$_Cons_val@V?$allocator@K@std@@KAAK@std@@YAXAAV?$allocator@K@0@PAKAAK@Z 004de250 f i ClientConnection.obj
 0002:0002d280       ??$_Cons_val@V?$allocator@K@std@@KABK@std@@YAXAAV?$allocator@K@0@PAKABK@Z 004de280 f i ClientConnection.obj
 0002:0002d2b0       ??$addressof@E@std@@YAPAEAAE@Z 004de2b0 f i ClientConnection.obj
 0002:0002d2c0       ??$forward@E@std@@YA$$QAEAAE@Z 004de2c0 f i ClientConnection.obj
 0002:0002d2d0       ??$_Cons_val@V?$allocator@E@std@@EE@std@@YAXAAV?$allocator@E@0@PAE$$QAE@Z 004de2d0 f i ClientConnection.obj
 0002:0002d300       ??$addressof@$$CBE@std@@YAPBEABE@Z 004de300 f i ClientConnection.obj
 0002:0002d310       ??$_Cons_val@V?$allocator@E@std@@EAAE@std@@YAXAAV?$allocator@E@0@PAEAAE@Z 004de310 f i ClientConnection.obj
 0002:0002d340       ??$_Cons_val@V?$allocator@E@std@@EABE@std@@YAXAAV?$allocator@E@0@PAEABE@Z 004de340 f i ClientConnection.obj
 0002:0002d370       ??$?0D@?$allocator@U_Container_proxy@std@@@std@@QAE@ABV?$allocator@D@1@@Z 004de370 f i ClientConnection.obj
 0002:0002d390       ??$_Cons_val@V?$allocator@U_Container_proxy@std@@@std@@U_Container_proxy@2@U32@@std@@YAXAAV?$allocator@U_Container_proxy@std@@@0@PAU_Container_proxy@0@$$QAU20@@Z 004de390 f i ClientConnection.obj
 0002:0002d3c0       ??$_Dest_val@V?$allocator@U_Container_proxy@std@@@std@@U_Container_proxy@2@@std@@YAXAAV?$allocator@U_Container_proxy@std@@@0@PAU_Container_proxy@0@@Z 004de3c0 f i ClientConnection.obj
 0002:0002d3e0       ??$?0K@?$allocator@U_Container_proxy@std@@@std@@QAE@ABV?$allocator@K@1@@Z 004de3e0 f i ClientConnection.obj
 0002:0002d400       ??$?0E@?$allocator@U_Container_proxy@std@@@std@@QAE@ABV?$allocator@E@1@@Z 004de400 f i ClientConnection.obj
 0002:0002d420       ??$?0U_Node@?$_Tree_nod@V?$_Tmap_traits@_WKU?$less@_W@std@@V?$allocator@U?$pair@$$CB_WK@std@@@2@$0A@@std@@@std@@@?$allocator@U_Container_proxy@std@@@std@@QAE@ABV?$allocator@U_Node@?$_Tree_nod@V?$_Tmap_traits@_WKU?$less@_W@std@@V?$allocator@U?$pair@$$CB_WK@std@@@2@$0A@@std@@@std@@@1@@Z 004de420 f i ClientConnection.obj
 0002:0002d440       ??$?0U_Node@?$_Tree_nod@V?$_Tmap_traits@K_WU?$less@K@std@@V?$allocator@U?$pair@$$CBK_W@std@@@2@$0A@@std@@@std@@@?$allocator@U_Container_proxy@std@@@std@@QAE@ABV?$allocator@U_Node@?$_Tree_nod@V?$_Tmap_traits@K_WU?$less@K@std@@V?$allocator@U?$pair@$$CBK_W@std@@@2@$0A@@std@@@std@@@1@@Z 004de440 f i ClientConnection.obj
 0002:0002d460       ??$_Umove@PAK@?$vector@KV?$allocator@K@std@@@std@@IAEPAKPAK00@Z 004de460 f i ClientConnection.obj
 0002:0002d4a0       ??$_Destroy_range@V?$allocator@K@std@@@std@@YAXPAK0AAV?$allocator@K@0@@Z 004de4a0 f i ClientConnection.obj
 0002:0002d4f0       ??$_Umove@PAE@?$vector@EV?$allocator@E@std@@@std@@IAEPAEPAE00@Z 004de4f0 f i ClientConnection.obj
 0002:0002d530       ??$_Destroy_range@V?$allocator@E@std@@@std@@YAXPAE0AAV?$allocator@E@0@@Z 004de530 f i ClientConnection.obj
 0002:0002d580       ??$_Allocate@U_Container_proxy@std@@@std@@YAPAU_Container_proxy@0@IPAU10@@Z 004de580 f i ClientConnection.obj
 0002:0002d600       ??0bad_alloc@std@@QAE@PBD@Z 004de600 f i ClientConnection.obj
 0002:0002d630       ??1bad_alloc@std@@UAE@XZ   004de630 f i ClientConnection.obj
 0002:0002d660       ??_Ebad_alloc@std@@UAEPAXI@Z 004de660 f i ClientConnection.obj
 0002:0002d660       ??_Gbad_alloc@std@@UAEPAXI@Z 004de660 f i ClientConnection.obj
 0002:0002d6a0       ??$swap@D@std@@YAXAAD0@Z   004de6a0 f i ClientConnection.obj
 0002:0002d6f0       ??$addressof@U?$pair@$$CB_WK@std@@@std@@YAPAU?$pair@$$CB_WK@0@AAU10@@Z 004de6f0 f i ClientConnection.obj
 0002:0002d700       ??$_Dest_val@V?$allocator@U?$pair@$$CB_WK@std@@@std@@U?$pair@$$CB_WK@2@@std@@YAXAAV?$allocator@U?$pair@$$CB_WK@std@@@0@PAU?$pair@$$CB_WK@0@@Z 004de700 f i ClientConnection.obj
 0002:0002d720       ??$addressof@U?$pair@$$CBK_W@std@@@std@@YAPAU?$pair@$$CBK_W@0@AAU10@@Z 004de720 f i ClientConnection.obj
 0002:0002d730       ??$_Dest_val@V?$allocator@U?$pair@$$CBK_W@std@@@std@@U?$pair@$$CBK_W@2@@std@@YAXAAV?$allocator@U?$pair@$$CBK_W@std@@@0@PAU?$pair@$$CBK_W@0@@Z 004de730 f i ClientConnection.obj
 0002:0002d750       ??$_Allocate@K@std@@YAPAKIPAK@Z 004de750 f i ClientConnection.obj
 0002:0002d7d0       ??$_Allocate@E@std@@YAPAEIPAE@Z 004de7d0 f i ClientConnection.obj
 0002:0002d840       ??$_Allocate@D@std@@YAPADIPAD@Z 004de840 f i ClientConnection.obj
 0002:0002d8b0       ??0?$_Vector_iterator@V?$_Vector_val@KV?$allocator@K@std@@@std@@@std@@QAE@ABV01@@Z 004de8b0 f i ClientConnection.obj
 0002:0002d8e0       ??0bad_alloc@std@@QAE@ABV01@@Z 004de8e0 f i ClientConnection.obj
 0002:0002d910       ??0?$_Vector_const_iterator@V?$_Vector_val@KV?$allocator@K@std@@@std@@@std@@QAE@ABV01@@Z 004de910 f i ClientConnection.obj
 0002:0002d950       ??0?$_Iterator012@Urandom_access_iterator_tag@std@@KHPBKABKU_Iterator_base12@2@@std@@QAE@ABU01@@Z 004de950 f i ClientConnection.obj
 0002:0002d980       ?destroy@?$allocator@U?$pair@$$CB_WK@std@@@std@@QAEXPAU?$pair@$$CB_WK@2@@Z 004de980 f i ClientConnection.obj
 0002:0002d9a0       ?destroy@?$allocator@U?$pair@$$CBK_W@std@@@std@@QAEXPAU?$pair@$$CBK_W@2@@Z 004de9a0 f i ClientConnection.obj
 0002:0002d9c0       ?construct@?$allocator@K@std@@QAEXPAKABK@Z 004de9c0 f i ClientConnection.obj
 0002:0002d9f0       ?construct@?$allocator@E@std@@QAEXPAEABE@Z 004de9f0 f i ClientConnection.obj
 0002:0002da20       ?construct@?$allocator@E@std@@QAEXPAE$$QAE@Z 004dea20 f i ClientConnection.obj
 0002:0002dad0       ??2@YAPAXIPAX@Z            004dead0 f i ClientConnection.obj
 0002:0002dae0       ??3@YAXPAX0@Z              004deae0 f i ClientConnection.obj
 0002:0002daf0       ?construct@?$allocator@U_Container_proxy@std@@@std@@QAEXPAU_Container_proxy@2@$$QAU32@@Z 004deaf0 f i ClientConnection.obj
 0002:0002dba0       ?destroy@?$allocator@U_Container_proxy@std@@@std@@QAEXPAU_Container_proxy@2@@Z 004deba0 f i ClientConnection.obj
 0002:0002dbc0       ??$_Debug_range@V?$_Vector_iterator@V?$_Vector_val@KV?$allocator@K@std@@@std@@@std@@@std@@YAXV?$_Vector_iterator@V?$_Vector_val@KV?$allocator@K@std@@@std@@@0@0PB_WI@Z 004debc0 f i ClientConnection.obj
 0002:0002dca0       ??$_Unchecked@V?$_Vector_val@KV?$allocator@K@std@@@std@@@std@@YAPAKV?$_Vector_iterator@V?$_Vector_val@KV?$allocator@K@std@@@std@@@0@@Z 004deca0 f i ClientConnection.obj
 0002:0002dd10       ??$_Find@PAKK@std@@YAPAKPAK0ABK@Z 004ded10 f i ClientConnection.obj
 0002:0002dd50       ??$_Rechecked@V?$_Vector_val@KV?$allocator@K@std@@@std@@@std@@YAAAV?$_Vector_iterator@V?$_Vector_val@KV?$allocator@K@std@@@std@@@0@AAV10@PAK@Z 004ded50 f i ClientConnection.obj
 0002:0002dd70       ??$_Debug_range@V?$_Vector_iterator@V?$_Vector_val@EV?$allocator@E@std@@@std@@@std@@@std@@YAXV?$_Vector_iterator@V?$_Vector_val@EV?$allocator@E@std@@@std@@@0@0PB_WI@Z 004ded70 f i ClientConnection.obj
 0002:0002de50       ??$_Unchecked@V?$_Vector_val@EV?$allocator@E@std@@@std@@@std@@YAPAEV?$_Vector_iterator@V?$_Vector_val@EV?$allocator@E@std@@@std@@@0@@Z 004dee50 f i ClientConnection.obj
 0002:0002dec0       ??$_Find@PAEK@std@@YAPAEPAE0ABK@Z 004deec0 f i ClientConnection.obj
 0002:0002df00       ??$_Rechecked@V?$_Vector_val@EV?$allocator@E@std@@@std@@@std@@YAAAV?$_Vector_iterator@V?$_Vector_val@EV?$allocator@E@std@@@std@@@0@AAV10@PAE@Z 004def00 f i ClientConnection.obj
 0002:0002df20       ??$_Find@PAKH@std@@YAPAKPAK0ABH@Z 004def20 f i ClientConnection.obj
 0002:0002df60       ??$forward@AAK@std@@YAAAKAAK@Z 004def60 f i ClientConnection.obj
 0002:0002df70       ??$construct@AAK@?$allocator@K@std@@QAEXPAKAAK@Z 004def70 f i ClientConnection.obj
 0002:0002e020       ??$forward@ABK@std@@YAABKABK@Z 004df020 f i ClientConnection.obj
 0002:0002e030       ??$forward@AAE@std@@YAAAEAAE@Z 004df030 f i ClientConnection.obj
 0002:0002e040       ??$construct@AAE@?$allocator@E@std@@QAEXPAEAAE@Z 004df040 f i ClientConnection.obj
 0002:0002e0f0       ??$forward@ABE@std@@YAABEABE@Z 004df0f0 f i ClientConnection.obj
 0002:0002e100       ??$forward@U_Container_proxy@std@@@std@@YA$$QAU_Container_proxy@0@AAU10@@Z 004df100 f i ClientConnection.obj
 0002:0002e110       ??$_Uninitialized_move@PAKPAKV?$allocator@K@std@@@std@@YAPAKPAK00AAV?$allocator@K@0@@Z 004df110 f i ClientConnection.obj
 0002:0002e170       ??$_Ptr_cat@KK@std@@YA?AU_Scalar_ptr_iterator_tag@0@PAK0@Z 004df170 f i ClientConnection.obj
 0002:0002e180       ??$_Destroy_range@V?$allocator@K@std@@@std@@YAXPAK0AAV?$allocator@K@0@U_Scalar_ptr_iterator_tag@0@@Z 004df180 f i ClientConnection.obj
 0002:0002e190       ??$_Uninitialized_move@PAEPAEV?$allocator@E@std@@@std@@YAPAEPAE00AAV?$allocator@E@0@@Z 004df190 f i ClientConnection.obj
 0002:0002e1f0       ??$_Ptr_cat@EE@std@@YA?AU_Scalar_ptr_iterator_tag@0@PAE0@Z 004df1f0 f i ClientConnection.obj
 0002:0002e200       ??$_Destroy_range@V?$allocator@E@std@@@std@@YAXPAE0AAV?$allocator@E@0@U_Scalar_ptr_iterator_tag@0@@Z 004df200 f i ClientConnection.obj
 0002:0002e210       ??$_Move@AAD@std@@YA$$QADAAD@Z 004df210 f i ClientConnection.obj
 0002:0002e220       ??$_Destroy@U?$pair@$$CB_WK@std@@@std@@YAXPAU?$pair@$$CB_WK@0@@Z 004df220 f i ClientConnection.obj
 0002:0002e230       ??$_Destroy@U?$pair@$$CBK_W@std@@@std@@YAXPAU?$pair@$$CBK_W@0@@Z 004df230 f i ClientConnection.obj
 0002:0002e240       ??$_Construct@KABK@std@@YAXPAKABK@Z 004df240 f i ClientConnection.obj
 0002:0002e2f0       ??$_Construct@EABE@std@@YAXPAEABE@Z 004df2f0 f i ClientConnection.obj
 0002:0002e3a0       ??$_Destroy@U_Container_proxy@std@@@std@@YAXPAU_Container_proxy@0@@Z 004df3a0 f i ClientConnection.obj
 0002:0002e3b0       ?_Rechecked@?$_Vector_iterator@V?$_Vector_val@KV?$allocator@K@std@@@std@@@std@@QAEAAV12@PAK@Z 004df3b0 f i ClientConnection.obj
 0002:0002e3d0       ?_Unchecked@?$_Vector_iterator@V?$_Vector_val@KV?$allocator@K@std@@@std@@@std@@QBEPAKXZ 004df3d0 f i ClientConnection.obj
 0002:0002e3f0       ?_Rechecked@?$_Vector_iterator@V?$_Vector_val@EV?$allocator@E@std@@@std@@@std@@QAEAAV12@PAE@Z 004df3f0 f i ClientConnection.obj
 0002:0002e410       ?_Unchecked@?$_Vector_iterator@V?$_Vector_val@EV?$allocator@E@std@@@std@@@std@@QBEPAEXZ 004df410 f i ClientConnection.obj
 0002:0002e430       ??$_Iter_cat@V?$_Vector_iterator@V?$_Vector_val@KV?$allocator@K@std@@@std@@@std@@@std@@YA?AUrandom_access_iterator_tag@0@ABV?$_Vector_iterator@V?$_Vector_val@KV?$allocator@K@std@@@std@@@0@@Z 004df430 f i ClientConnection.obj
 0002:0002e450       ??$_Debug_range2@V?$_Vector_iterator@V?$_Vector_val@KV?$allocator@K@std@@@std@@@std@@@std@@YAXV?$_Vector_iterator@V?$_Vector_val@KV?$allocator@K@std@@@std@@@0@0PB_WIUrandom_access_iterator_tag@0@@Z 004df450 f i ClientConnection.obj
 0002:0002e540       ??$_Iter_cat@V?$_Vector_iterator@V?$_Vector_val@EV?$allocator@E@std@@@std@@@std@@@std@@YA?AUrandom_access_iterator_tag@0@ABV?$_Vector_iterator@V?$_Vector_val@EV?$allocator@E@std@@@std@@@0@@Z 004df540 f i ClientConnection.obj
 0002:0002e560       ??$_Debug_range2@V?$_Vector_iterator@V?$_Vector_val@EV?$allocator@E@std@@@std@@@std@@@std@@YAXV?$_Vector_iterator@V?$_Vector_val@EV?$allocator@E@std@@@std@@@0@0PB_WIUrandom_access_iterator_tag@0@@Z 004df560 f i ClientConnection.obj
 0002:0002e650       ??$_Val_type@PAK@std@@YAPAKPAK@Z 004df650 f i ClientConnection.obj
 0002:0002e660       ??$_Uninit_move@KKK@std@@YAPAKPAK00AAV?$allocator@K@0@0U_Scalar_ptr_iterator_tag@0@@Z 004df660 f i ClientConnection.obj
 0002:0002e6e0       ??$_Val_type@PAE@std@@YAPAEPAE@Z 004df6e0 f i ClientConnection.obj
 0002:0002e6f0       ??$_Uninit_move@EEE@std@@YAPAEPAE00AAV?$allocator@E@0@0U_Scalar_ptr_iterator_tag@0@@Z 004df6f0 f i ClientConnection.obj
 0002:0002e760       ??M?$_Vector_const_iterator@V?$_Vector_val@KV?$allocator@K@std@@@std@@@std@@QBE_NABV01@@Z 004df760 f i ClientConnection.obj
 0002:0002e7a0       ??M?$_Vector_const_iterator@V?$_Vector_val@EV?$allocator@E@std@@@std@@@std@@QBE_NABV01@@Z 004df7a0 f i ClientConnection.obj
 0002:0002e7e0       ??$_Debug_pointer@V?$_Vector_iterator@V?$_Vector_val@KV?$allocator@K@std@@@std@@@std@@@std@@YAXAAV?$_Vector_iterator@V?$_Vector_val@KV?$allocator@K@std@@@std@@@0@PB_WI@Z 004df7e0 f i ClientConnection.obj
 0002:0002e7f0       ??$_Debug_pointer@V?$_Vector_iterator@V?$_Vector_val@EV?$allocator@E@std@@@std@@@std@@@std@@YAXAAV?$_Vector_iterator@V?$_Vector_val@EV?$allocator@E@std@@@std@@@0@PB_WI@Z 004df7f0 f i ClientConnection.obj
 0002:0002e800       ??$_Debug_range@PAK@std@@YAXPAK0PB_WI@Z 004df800 f i ClientConnection.obj
 0002:0002e850       ??$_Debug_pointer@K@std@@YAXPAKPB_WI@Z 004df850 f i ClientConnection.obj
 0002:0002e880       ??$_Debug_range@PAE@std@@YAXPAE0PB_WI@Z 004df880 f i ClientConnection.obj
 0002:0002e8d0       ??$_Debug_pointer@E@std@@YAXPAEPB_WI@Z 004df8d0 f i ClientConnection.obj
 0002:0002e900       ??$_Iter_cat@PAK@std@@YA?AUrandom_access_iterator_tag@0@ABQAK@Z 004df900 f i ClientConnection.obj
 0002:0002e920       ??$_Debug_range2@PAK@std@@YAXPAK0PB_WIUrandom_access_iterator_tag@0@@Z 004df920 f i ClientConnection.obj
 0002:0002e990       ??$_Iter_cat@PAE@std@@YA?AUrandom_access_iterator_tag@0@ABQAE@Z 004df990 f i ClientConnection.obj
 0002:0002e9b0       ??$_Debug_range2@PAE@std@@YAXPAE0PB_WIUrandom_access_iterator_tag@0@@Z 004df9b0 f i ClientConnection.obj
 0002:0002ea20       ?ReadCacheRect@ClientConnection@@AAEXPAUrfbFramebufferUpdateRectHeader@@@Z 004dfa20 f   ClientConnectionCacheRect.obj
 0002:0002eac0       ?SaveArea@ClientConnection@@AAEXAAUtagRECT@@@Z 004dfac0 f   ClientConnectionCacheRect.obj
 0002:0002ebd0       ?RestoreArea@ClientConnection@@AAEXAAUtagRECT@@@Z 004dfbd0 f   ClientConnectionCacheRect.obj
 0002:0002ecd0       ?ClearCache@ClientConnection@@AAEXXZ 004dfcd0 f   ClientConnectionCacheRect.obj
 0002:0002ed40       ?ReadCacheZip@ClientConnection@@AAEXPAUrfbFramebufferUpdateRectHeader@@PAPAUHRGN__@@@Z 004dfd40 f   ClientConnectionCacheRect.obj
 0002:0002f0e0       ?ProcessLocalClipboardChange@ClientConnection@@AAEXXZ 004e00e0 f   ClientConnectionClipboard.obj
 0002:0002f260       ?UpdateRemoteClipboard@ClientConnection@@AAEXK@Z 004e0260 f   ClientConnectionClipboard.obj
 0002:0002f650       ?UpdateRemoteClipboardCaps@ClientConnection@@AAEX_N@Z 004e0650 f   ClientConnectionClipboard.obj
 0002:0002f7e0       ?RequestRemoteClipboard@ClientConnection@@AAEXXZ 004e07e0 f   ClientConnectionClipboard.obj
 0002:0002f8e0       ?UpdateLocalClipboard@ClientConnection@@AAEXPADH@Z 004e08e0 f   ClientConnectionClipboard.obj
 0002:0002fb50       ?SaveClipboardPreferences@ClientConnection@@AAEXXZ 004e0b50 f   ClientConnectionClipboard.obj
 0002:0002fc10       ?LoadClipboardPreferences@ClientConnection@@AAE_NXZ 004e0c10 f   ClientConnectionClipboard.obj
 0002:00030040       ?ReadCopyRect@ClientConnection@@AAEXPAUrfbFramebufferUpdateRectHeader@@@Z 004e1040 f   ClientConnectionCopyRect.obj
 0002:00030430       ?ReadCoRRERect@ClientConnection@@AAEXPAUrfbFramebufferUpdateRectHeader@@@Z 004e1430 f   ClientConnectionCoRRE.obj
 0002:00030b70       ?FillSolidRect_ultra@ClientConnection@@AAEXHHHHHPAE@Z 004e1b70 f i ClientConnectionCoRRE.obj
 0002:00030be0       ?ReadCursorShape@ClientConnection@@AAEXPAUrfbFramebufferUpdateRectHeader@@@Z 004e1be0 f   ClientConnectionCursor.obj
 0002:000315a0       ?ReadCursorPos@ClientConnection@@AAEXPAUrfbFramebufferUpdateRectHeader@@@Z 004e25a0 f   ClientConnectionCursor.obj
 0002:00031630       ?SoftCursorLockArea@ClientConnection@@AAEXHHHH@Z 004e2630 f   ClientConnectionCursor.obj
 0002:00031840       ?SoftCursorUnlockScreen@ClientConnection@@AAEXXZ 004e2840 f   ClientConnectionCursor.obj
 0002:000318f0       ?SoftCursorMove@ClientConnection@@AAEXHH@Z 004e28f0 f   ClientConnectionCursor.obj
 0002:000319e0       ?SoftCursorFree@ClientConnection@@AAEXXZ 004e29e0 f   ClientConnectionCursor.obj
 0002:00031b10       ?SoftCursorInLockedArea@ClientConnection@@AAE_NXZ 004e2b10 f   ClientConnectionCursor.obj
 0002:00031bd0       ?SoftCursorSaveArea@ClientConnection@@AAEXXZ 004e2bd0 f   ClientConnectionCursor.obj
 0002:00031cd0       ?SoftCursorRestoreArea@ClientConnection@@AAEXXZ 004e2cd0 f   ClientConnectionCursor.obj
 0002:00031de0       ?SoftCursorDraw@ClientConnection@@AAEXXZ 004e2de0 f   ClientConnectionCursor.obj
 0002:00031fe0       ?SoftCursorToScreen@ClientConnection@@AAEXPAUtagRECT@@PAUtagPOINT@@@Z 004e2fe0 f   ClientConnectionCursor.obj
 0002:00032140       ?InvalidateScreenRect@ClientConnection@@AAEXPBUtagRECT@@@Z 004e3140 f   ClientConnectionCursor.obj
 0002:000322a0       ?InvalidateRegion@ClientConnection@@AAEXPBUtagRECT@@PAPAUHRGN__@@@Z 004e32a0 f   ClientConnectionCursor.obj
 0002:00032a20       ?ofnInit@@YAXXZ            004e3a20 f   ClientConnectionFile.obj
 0002:00032a70       ?SaveConnection@ClientConnection@@AAEXXZ 004e3a70 f   ClientConnectionFile.obj
 0002:00032d90       ?Save_Latest_Connection@ClientConnection@@AAEXXZ 004e3d90 f   ClientConnectionFile.obj
 0002:00032f40       ?LoadConnection@ClientConnection@@QAEHPAD_N@Z 004e3f40 f   ClientConnectionFile.obj
 0002:000335d0       ?InFullScreenMode@ClientConnection@@AAE_NXZ 004e45d0 f   ClientConnectionFullScreen.obj
 0002:000335f0       ?SetFullScreenMode@ClientConnection@@AAEX_N@Z 004e45f0 f   ClientConnectionFullScreen.obj
 0002:00033660       ?RealiseFullScreenMode@ClientConnection@@AAEXXZ 004e4660 f   ClientConnectionFullScreen.obj
 0002:000339c0       ?BumpScroll@ClientConnection@@AAE_NHH@Z 004e49c0 f   ClientConnectionFullScreen.obj
 0002:00033c20       ?ReadHextileRect@ClientConnection@@AAEXPAUrfbFramebufferUpdateRectHeader@@@Z 004e4c20 f   ClientConnectionHextile.obj
 0002:00033cd0       ?HandleHextileEncoding8@ClientConnection@@AAEXHHHH@Z 004e4cd0 f   ClientConnectionHextile.obj
 0002:00034210       ?HandleHextileEncoding16@ClientConnection@@AAEXHHHH@Z 004e5210 f   ClientConnectionHextile.obj
 0002:00034750       ?HandleHextileEncoding32@ClientConnection@@AAEXHHHH@Z 004e5750 f   ClientConnectionHextile.obj
 0002:000350b0       ?ReadRawRect@ClientConnection@@AAEXPAUrfbFramebufferUpdateRectHeader@@@Z 004e60b0 f   ClientConnectionRaw.obj
 0002:00035210       ?ReadRRERect@ClientConnection@@AAEXPAUrfbFramebufferUpdateRectHeader@@@Z 004e6210 f   ClientConnectionRRE.obj
 0002:000359e0       ?ReadTightRect@ClientConnection@@AAEXPAUrfbFramebufferUpdateRectHeader@@@Z 004e69e0 f   ClientConnectionTight.obj
 0002:000365d0       ?ReadCompactLen@ClientConnection@@AAEHXZ 004e75d0 f   ClientConnectionTight.obj
 0002:00036650       ?InitFilterCopy@ClientConnection@@AAEHHH@Z 004e7650 f   ClientConnectionTight.obj
 0002:00036720       ?InitFilterGradient@ClientConnection@@AAEHHH@Z 004e7720 f   ClientConnectionTight.obj
 0002:000367d0       ?InitFilterPalette@ClientConnection@@AAEHHH@Z 004e77d0 f   ClientConnectionTight.obj
 0002:00036c90       ?FilterCopy8@ClientConnection@@AAEXH@Z 004e7c90 f   ClientConnectionTight.obj
 0002:00036e20       ?FilterCopy16@ClientConnection@@AAEXH@Z 004e7e20 f   ClientConnectionTight.obj
 0002:00036fb0       ?FilterCopy24@ClientConnection@@AAEXH@Z 004e7fb0 f   ClientConnectionTight.obj
 0002:000370f0       ?FilterCopy32@ClientConnection@@AAEXH@Z 004e80f0 f   ClientConnectionTight.obj
 0002:00037280       ?FilterGradient8@ClientConnection@@AAEXH@Z 004e8280 f   ClientConnectionTight.obj
 0002:000376f0       ?FilterGradient16@ClientConnection@@AAEXH@Z 004e86f0 f   ClientConnectionTight.obj
 0002:00037b60       ?FilterGradient32@ClientConnection@@AAEXH@Z 004e8b60 f   ClientConnectionTight.obj
 0002:00037fd0       ?FilterGradient24@ClientConnection@@AAEXH@Z 004e8fd0 f   ClientConnectionTight.obj
 0002:00038300       ?FilterPalette@ClientConnection@@AAEXH@Z 004e9300 f   ClientConnectionTight.obj
 0002:000384f0       ?DecompressJpegRect@ClientConnection@@AAEXHHHH@Z 004e94f0 f   ClientConnectionTight.obj
 0002:000395f0       ?ReadUltraRect@ClientConnection@@AAEXPAUrfbFramebufferUpdateRectHeader@@@Z 004ea5f0 f   ClientConnectionUltra.obj
 0002:000397e0       ?ReadUltraZip@ClientConnection@@AAEXPAUrfbFramebufferUpdateRectHeader@@PAPAUHRGN__@@@Z 004ea7e0 f   ClientConnectionUltra.obj
 0002:00039c80       ?DecompressJpegRect@ClientConnection@@AAEXPAEH0HHHUrfbPixelFormat@@@Z 004eac80 f   ClientConnectionUltra2.obj
 0002:0003a0f0       ?ReadUltra2Rect@ClientConnection@@AAEXPAUrfbFramebufferUpdateRectHeader@@@Z 004eb0f0 f   ClientConnectionUltra2.obj
 0002:0003a4b0       ?ReadZlibRect@ClientConnection@@AAEXPAUrfbFramebufferUpdateRectHeader@@H@Z 004eb4b0 f   ClientConnectionZlib.obj
 0002:0003c400       ?CheckZlibBufferSize@ClientConnection@@AAEXH@Z 004ed400 f   ClientConnectionZlib.obj
 0002:0003c4f0       ?ReadSolidRect@ClientConnection@@AAEXPAUrfbFramebufferUpdateRectHeader@@@Z 004ed4f0 f   ClientConnectionZlib.obj
 0002:0003c890       ?ReadSolMonoZip@ClientConnection@@AAEXPAUrfbFramebufferUpdateRectHeader@@PAPAUHRGN__@@@Z 004ed890 f   ClientConnectionZlib.obj
 0002:0003f470       ?zlibDecompress@ClientConnection@@AAE_NPAE0IIPAUz_stream_s@@@Z 004f0470 f   ClientConnectionZlibHex.obj
 0002:0003f560       ?ReadZlibHexRect@ClientConnection@@AAEXPAUrfbFramebufferUpdateRectHeader@@@Z 004f0560 f   ClientConnectionZlibHex.obj
 0002:0003f610       ?HandleZlibHexEncoding8@ClientConnection@@AAEXHHHH@Z 004f0610 f   ClientConnectionZlibHex.obj
 0002:0003f990       ?HandleZlibHexSubencodingStream8@ClientConnection@@AAEXHHHHH@Z 004f0990 f   ClientConnectionZlibHex.obj
 0002:0003fd90       ?HandleZlibHexSubencodingBuf8@ClientConnection@@AAEXHHHHHPAE@Z 004f0d90 f   ClientConnectionZlibHex.obj
 0002:00040180       ?HandleZlibHexEncoding16@ClientConnection@@AAEXHHHH@Z 004f1180 f   ClientConnectionZlibHex.obj
 0002:00040510       ?HandleZlibHexSubencodingStream16@ClientConnection@@AAEXHHHHH@Z 004f1510 f   ClientConnectionZlibHex.obj
 0002:00040910       ?HandleZlibHexSubencodingBuf16@ClientConnection@@AAEXHHHHHPAE@Z 004f1910 f   ClientConnectionZlibHex.obj
 0002:00040d00       ?HandleZlibHexEncoding32@ClientConnection@@AAEXHHHH@Z 004f1d00 f   ClientConnectionZlibHex.obj
 0002:00041090       ?HandleZlibHexSubencodingStream32@ClientConnection@@AAEXHHHHH@Z 004f2090 f   ClientConnectionZlibHex.obj
 0002:00041490       ?HandleZlibHexSubencodingBuf32@ClientConnection@@AAEXHHHHHPAE@Z 004f2490 f   ClientConnectionZlibHex.obj
 0002:00042180       ??0ExtendedClipboardDataMessage@@QAE@XZ 004f3180 f   Clipboard.obj
 0002:000421d0       ??1ExtendedClipboardDataMessage@@QAE@XZ 004f31d0 f   Clipboard.obj
 0002:00042200       ?Reset@ExtendedClipboardDataMessage@@QAEXXZ 004f3200 f   Clipboard.obj
 0002:00042270       ?AddFlag@ExtendedClipboardDataMessage@@QAEXK@Z 004f3270 f   Clipboard.obj
 0002:000422c0       ?HasFlag@ExtendedClipboardDataMessage@@QAE_NK@Z 004f32c0 f   Clipboard.obj
 0002:00042310       ?GetMessageLength@ExtendedClipboardDataMessage@@QAEHXZ 004f3310 f   Clipboard.obj
 0002:00042330       ?GetDataLength@ExtendedClipboardDataMessage@@QAEHXZ 004f3330 f   Clipboard.obj
 0002:00042350       ?GetData@ExtendedClipboardDataMessage@@QAEPBEXZ 004f3350 f   Clipboard.obj
 0002:00042370       ?GetBuffer@ExtendedClipboardDataMessage@@QAEPAEXZ 004f3370 f   Clipboard.obj
 0002:00042390       ?GetBufferLength@ExtendedClipboardDataMessage@@QAEHXZ 004f3390 f   Clipboard.obj
 0002:000423b0       ?GetCurrentPos@ExtendedClipboardDataMessage@@QAEPBEXZ 004f33b0 f   Clipboard.obj
 0002:000423d0       ?AppendInt@ExtendedClipboardDataMessage@@QAEXK@Z 004f33d0 f   Clipboard.obj
 0002:00042450       ?AppendBytes@ExtendedClipboardDataMessage@@QAEXPAEH@Z 004f3450 f   Clipboard.obj
 0002:000424a0       ?Advance@ExtendedClipboardDataMessage@@QAEXH@Z 004f34a0 f   Clipboard.obj
 0002:000424e0       ?ReadInt@ExtendedClipboardDataMessage@@QAEKXZ 004f34e0 f   Clipboard.obj
 0002:00042550       ?EnsureBufferLength@ExtendedClipboardDataMessage@@QAEXH_N@Z 004f3550 f   Clipboard.obj
 0002:00042630       ?CountFormats@ExtendedClipboardDataMessage@@QAEHXZ 004f3630 f   Clipboard.obj
 0002:00042690       ?GetFlags@ExtendedClipboardDataMessage@@QAEKXZ 004f3690 f   Clipboard.obj
 0002:000426e0       ??0ClipboardSettings@@QAE@K@Z 004f36e0 f   Clipboard.obj
 0002:00042770       ?PrepareCapsPacket@ClipboardSettings@@QAEXAAUExtendedClipboardDataMessage@@@Z 004f3770 f   Clipboard.obj
 0002:00042800       ?HandleCapsPacket@ClipboardSettings@@QAEXAAUExtendedClipboardDataMessage@@_N@Z 004f3800 f   Clipboard.obj
 0002:00042940       ??0ClipboardHolder@@QAE@PAUHWND__@@@Z 004f3940 f   Clipboard.obj
 0002:00042970       ??1ClipboardHolder@@QAE@XZ 004f3970 f   Clipboard.obj
 0002:00042990       ??0ClipboardData@@QAE@XZ   004f3990 f   Clipboard.obj
 0002:00042a00       ??1ClipboardData@@QAE@XZ   004f3a00 f   Clipboard.obj
 0002:00042a20       ?FreeData@ClipboardData@@QAEXXZ 004f3a20 f   Clipboard.obj
 0002:00042ab0       ?Load@ClipboardData@@QAE_NPAUHWND__@@@Z 004f3ab0 f   Clipboard.obj
 0002:00042e60       ?Restore@ClipboardData@@QAE_NPAUHWND__@@AAUExtendedClipboardDataMessage@@@Z 004f3e60 f   Clipboard.obj
 0002:00043430       ??0Clipboard@@QAE@K@Z      004f4430 f   Clipboard.obj
 0002:000434d0       ?UpdateClipTextEx@Clipboard@@QAE_NAAUClipboardData@@K@Z 004f44d0 f   Clipboard.obj
 0002:00043fe0       ?readU32@InStream@rdr@@QAEIXZ 004f4fe0 f i Clipboard.obj
 0002:000440b0       ?readBytes@InStream@rdr@@UAEXPAXH@Z 004f50b0 f i Clipboard.obj
 0002:00044140       ??0MemInStream@rdr@@QAE@PBXH@Z 004f5140 f i Clipboard.obj
 0002:000441a0       ??0InStream@rdr@@IAE@XZ    004f51a0 f i Clipboard.obj
 0002:000441c0       ??_EInStream@rdr@@UAEPAXI@Z 004f51c0 f i Clipboard.obj
 0002:000441c0       ??_GInStream@rdr@@UAEPAXI@Z 004f51c0 f i Clipboard.obj
 0002:00044200       ??1InStream@rdr@@UAE@XZ    004f5200 f i Clipboard.obj
 0002:00044220       ?pos@MemInStream@rdr@@UAEHXZ 004f5220 f i Clipboard.obj
 0002:00044240       ?overrun@MemInStream@rdr@@EAEHHH@Z 004f5240 f i Clipboard.obj
 0002:000442a0       ??0EndOfStream@rdr@@QAE@PBD@Z 004f52a0 f i Clipboard.obj
 0002:000442e0       ??0Exception@rdr@@QAE@PBD0@Z 004f52e0 f i Clipboard.obj
 0002:000443a0       ??_GMemInStream@rdr@@UAEPAXI@Z 004f53a0 f i Clipboard.obj
 0002:000443a0       ??_EMemInStream@rdr@@UAEPAXI@Z 004f53a0 f i Clipboard.obj
 0002:000443e0       ??1MemInStream@rdr@@UAE@XZ 004f53e0 f i Clipboard.obj
 0002:00044400       ?writeU32@OutStream@rdr@@QAEXI@Z 004f5400 f i Clipboard.obj
 0002:000444b0       ?check@OutStream@rdr@@QAEHHH@Z 004f54b0 f i Clipboard.obj
 0002:00044530       ?writeBytes@OutStream@rdr@@UAEXPBXH@Z 004f5530 f i Clipboard.obj
 0002:000445c0       ??0MemOutStream@rdr@@QAE@H@Z 004f55c0 f i Clipboard.obj
 0002:00044670       ??0OutStream@rdr@@IAE@XZ   004f5670 f i Clipboard.obj
 0002:00044690       ??1OutStream@rdr@@UAE@XZ   004f5690 f i Clipboard.obj
 0002:000446b0       ?flush@OutStream@rdr@@UAEXXZ 004f56b0 f i Clipboard.obj
 0002:000446c0       ??_EOutStream@rdr@@UAEPAXI@Z 004f56c0 f i Clipboard.obj
 0002:000446c0       ??_GOutStream@rdr@@UAEPAXI@Z 004f56c0 f i Clipboard.obj
 0002:00044700       ??1MemOutStream@rdr@@UAE@XZ 004f5700 f i Clipboard.obj
 0002:00044740       ?writeBytes@MemOutStream@rdr@@UAEXPBXH@Z 004f5740 f i Clipboard.obj
 0002:000447a0       ?length@MemOutStream@rdr@@UAEHXZ 004f57a0 f i Clipboard.obj
 0002:000447c0       ?clear@MemOutStream@rdr@@QAEXXZ 004f57c0 f i Clipboard.obj
 0002:000447e0       ?data@MemOutStream@rdr@@QAEPBXXZ 004f57e0 f i Clipboard.obj
 0002:00044800       ?overrun@MemOutStream@rdr@@EAEHHH@Z 004f5800 f i Clipboard.obj
 0002:00044900       ??_EMemOutStream@rdr@@UAEPAXI@Z 004f5900 f i Clipboard.obj
 0002:00044900       ??_GMemOutStream@rdr@@UAEPAXI@Z 004f5900 f i Clipboard.obj
 0002:00044940       ??1?$_String_iterator@_WU?$char_traits@_W@std@@V?$allocator@_W@2@@std@@QAE@XZ 004f5940 f i Clipboard.obj
 0002:00044960       ??1?$_String_const_iterator@_WU?$char_traits@_W@std@@V?$allocator@_W@2@@std@@QAE@XZ 004f5960 f i Clipboard.obj
 0002:00044980       ??1?$_Iterator012@Urandom_access_iterator_tag@std@@_WHPB_WAB_WU_Iterator_base12@2@@std@@QAE@XZ 004f5980 f i Clipboard.obj
 0002:000449a0       ??0?$basic_string@DU?$char_traits@D@std@@V?$allocator@D@2@@std@@QAE@XZ 004f59a0 f i Clipboard.obj
 0002:00044a20       ??0?$basic_string@_WU?$char_traits@_W@std@@V?$allocator@_W@2@@std@@QAE@PB_W@Z 004f5a20 f i Clipboard.obj
 0002:00044ac0       ??1?$basic_string@_WU?$char_traits@_W@std@@V?$allocator@_W@2@@std@@QAE@XZ 004f5ac0 f i Clipboard.obj
 0002:00044b30       ?begin@?$basic_string@_WU?$char_traits@_W@std@@V?$allocator@_W@2@@std@@QAE?AV?$_String_iterator@_WU?$char_traits@_W@std@@V?$allocator@_W@2@@2@XZ 004f5b30 f i Clipboard.obj
 0002:00044b80       ?end@?$basic_string@_WU?$char_traits@_W@std@@V?$allocator@_W@2@@std@@QAE?AV?$_String_iterator@_WU?$char_traits@_W@std@@V?$allocator@_W@2@@2@XZ 004f5b80 f i Clipboard.obj
 0002:00044bd0       ?assign@?$basic_string@_WU?$char_traits@_W@std@@V?$allocator@_W@2@@std@@QAEAAV12@PB_W@Z 004f5bd0 f i Clipboard.obj
 0002:00044c20       ?length@?$char_traits@_W@std@@SAIPB_W@Z 004f5c20 f i Clipboard.obj
 0002:00044c40       ?_Tidy@?$basic_string@_WU?$char_traits@_W@std@@V?$allocator@_W@2@@std@@QAEX_NI@Z 004f5c40 f i Clipboard.obj
 0002:00044ce0       ?copy@?$char_traits@_W@std@@SAPA_WPA_WPB_WI@Z 004f5ce0 f i Clipboard.obj
 0002:00044d00       _wmemcpy                   004f5d00 f i Clipboard.obj
 0002:00044d30       ?_Myptr@?$basic_string@_WU?$char_traits@_W@std@@V?$allocator@_W@2@@std@@QAEPA_WXZ 004f5d30 f i Clipboard.obj
 0002:00044d70       ??0?$_String_val@_WV?$allocator@_W@std@@@std@@QAE@V?$allocator@_W@1@@Z 004f5d70 f i Clipboard.obj
 0002:00044e40       ??1?$_String_val@_WV?$allocator@_W@std@@@std@@QAE@XZ 004f5e40 f i Clipboard.obj
 0002:00044f00       ??0?$allocator@_W@std@@QAE@XZ 004f5f00 f i Clipboard.obj
 0002:00044f20       ??0?$allocator@_W@std@@QAE@ABV01@@Z 004f5f20 f i Clipboard.obj
 0002:00044f40       ??0?$_String_iterator@_WU?$char_traits@_W@std@@V?$allocator@_W@2@@std@@QAE@PA_WPBU_Container_base12@1@@Z 004f5f40 f i Clipboard.obj
 0002:00044f70       ?assign@?$basic_string@_WU?$char_traits@_W@std@@V?$allocator@_W@2@@std@@QAEAAV12@PB_WI@Z 004f5f70 f i Clipboard.obj
 0002:00045040       ?assign@?$basic_string@_WU?$char_traits@_W@std@@V?$allocator@_W@2@@std@@QAEAAV12@ABV12@II@Z 004f6040 f i Clipboard.obj
 0002:00045130       ?_Myptr@?$basic_string@_WU?$char_traits@_W@std@@V?$allocator@_W@2@@std@@QBEPB_WXZ 004f6130 f i Clipboard.obj
 0002:00045170       ?erase@?$basic_string@_WU?$char_traits@_W@std@@V?$allocator@_W@2@@std@@QAEAAV12@II@Z 004f6170 f i Clipboard.obj
 0002:00045230       ?move@?$char_traits@_W@std@@SAPA_WPA_WPB_WI@Z 004f6230 f i Clipboard.obj
 0002:00045250       _wmemmove                  004f6250 f i Clipboard.obj
 0002:00045280       ?size@?$basic_string@_WU?$char_traits@_W@std@@V?$allocator@_W@2@@std@@QBEIXZ 004f6280 f i Clipboard.obj
 0002:000452a0       ?_Eos@?$basic_string@_WU?$char_traits@_W@std@@V?$allocator@_W@2@@std@@QAEXI@Z 004f62a0 f i Clipboard.obj
 0002:000452f0       ?assign@?$char_traits@_W@std@@SAXAA_WAB_W@Z 004f62f0 f i Clipboard.obj
 0002:00045310       ?_Grow@?$basic_string@_WU?$char_traits@_W@std@@V?$allocator@_W@2@@std@@QAE_NI_N@Z 004f6310 f i Clipboard.obj
 0002:000453d0       ?_Xran@?$basic_string@_WU?$char_traits@_W@std@@V?$allocator@_W@2@@std@@QBEXXZ 004f63d0 f i Clipboard.obj
 0002:000453f0       ?deallocate@?$allocator@_W@std@@QAEXPA_WI@Z 004f63f0 f i Clipboard.obj
 0002:00045410       ??0?$_String_const_iterator@_WU?$char_traits@_W@std@@V?$allocator@_W@2@@std@@QAE@PB_WPBU_Container_base12@1@@Z 004f6410 f i Clipboard.obj
 0002:00045490       ??0?$_Iterator012@Urandom_access_iterator_tag@std@@_WHPB_WAB_WU_Iterator_base12@2@@std@@QAE@XZ 004f6490 f i Clipboard.obj
 0002:000454b0       ?max_size@?$basic_string@_WU?$char_traits@_W@std@@V?$allocator@_W@2@@std@@QBEIXZ 004f64b0 f i Clipboard.obj
 0002:00045500       ?_Copy@?$basic_string@_WU?$char_traits@_W@std@@V?$allocator@_W@2@@std@@QAEXII@Z 004f6500 f i Clipboard.obj
 0002:000456f0       ?_Inside@?$basic_string@_WU?$char_traits@_W@std@@V?$allocator@_W@2@@std@@QAE_NPB_W@Z 004f66f0 f i Clipboard.obj
 0002:00045740       ?_Xlen@?$basic_string@_WU?$char_traits@_W@std@@V?$allocator@_W@2@@std@@QBEXXZ 004f6740 f i Clipboard.obj
 0002:00045760       ?allocate@?$allocator@_W@std@@QAEPA_WI@Z 004f6760 f i Clipboard.obj
 0002:00045790       ?max_size@?$allocator@_W@std@@QBEIXZ 004f6790 f i Clipboard.obj
 0002:000457d0       ??$assign@V?$_String_iterator@_WU?$char_traits@_W@std@@V?$allocator@_W@2@@std@@@?$basic_string@DU?$char_traits@D@std@@V?$allocator@D@2@@std@@QAEAAV01@V?$_String_iterator@_WU?$char_traits@_W@std@@V?$allocator@_W@2@@1@0@Z 004f67d0 f i Clipboard.obj
 0002:000458c0       ??$_Debug_pointer@_W@std@@YAXPB_W0I@Z 004f68c0 f i Clipboard.obj
 0002:000458f0       ??$?0_W@?$allocator@U_Container_proxy@std@@@std@@QAE@ABV?$allocator@_W@1@@Z 004f68f0 f i Clipboard.obj
 0002:00045910       ??$_Allocate@_W@std@@YAPA_WIPA_W@Z 004f6910 f i Clipboard.obj
 0002:00045990       ??0?$_String_iterator@_WU?$char_traits@_W@std@@V?$allocator@_W@2@@std@@QAE@ABV01@@Z 004f6990 f i Clipboard.obj
 0002:000459c0       ??0?$_String_const_iterator@_WU?$char_traits@_W@std@@V?$allocator@_W@2@@std@@QAE@ABV01@@Z 004f69c0 f i Clipboard.obj
 0002:00045a00       ??0?$_Iterator012@Urandom_access_iterator_tag@std@@_WHPB_WAB_WU_Iterator_base12@2@@std@@QAE@ABU01@@Z 004f6a00 f i Clipboard.obj
 0002:00045a30       ??$_Iter_cat@V?$_String_iterator@_WU?$char_traits@_W@std@@V?$allocator@_W@2@@std@@@std@@YA?AUrandom_access_iterator_tag@0@ABV?$_String_iterator@_WU?$char_traits@_W@std@@V?$allocator@_W@2@@0@@Z 004f6a30 f i Clipboard.obj
 0002:00045a50       ??$_Assign@V?$_String_iterator@_WU?$char_traits@_W@std@@V?$allocator@_W@2@@std@@@?$basic_string@DU?$char_traits@D@std@@V?$allocator@D@2@@std@@QAEAAV01@V?$_String_iterator@_WU?$char_traits@_W@std@@V?$allocator@_W@2@@1@0Uinput_iterator_tag@1@@Z 004f6a50 f i Clipboard.obj
 0002:00045bd0       ??1?$_String_iterator@DU?$char_traits@D@std@@V?$allocator@D@2@@std@@QAE@XZ 004f6bd0 f i Clipboard.obj
 0002:00045bf0       ??0?$_String_const_iterator@DU?$char_traits@D@std@@V?$allocator@D@2@@std@@QAE@ABV01@@Z 004f6bf0 f i Clipboard.obj
 0002:00045c30       ??1?$_String_const_iterator@DU?$char_traits@D@std@@V?$allocator@D@2@@std@@QAE@XZ 004f6c30 f i Clipboard.obj
 0002:00045c50       ??0?$_Iterator012@Urandom_access_iterator_tag@std@@DHPBDABDU_Iterator_base12@2@@std@@QAE@ABU01@@Z 004f6c50 f i Clipboard.obj
 0002:00045c80       ??1?$_Iterator012@Urandom_access_iterator_tag@std@@DHPBDABDU_Iterator_base12@2@@std@@QAE@XZ 004f6c80 f i Clipboard.obj
 0002:00045ca0       ?end@?$basic_string@DU?$char_traits@D@std@@V?$allocator@D@2@@std@@QAE?AV?$_String_iterator@DU?$char_traits@D@std@@V?$allocator@D@2@@2@XZ 004f6ca0 f i Clipboard.obj
 0002:00045cf0       ?begin@?$basic_string@DU?$char_traits@D@std@@V?$allocator@D@2@@std@@QAE?AV?$_String_iterator@DU?$char_traits@D@std@@V?$allocator@D@2@@2@XZ 004f6cf0 f i Clipboard.obj
 0002:00045d40       ??0?$_String_iterator@DU?$char_traits@D@std@@V?$allocator@D@2@@std@@QAE@PADPBU_Container_base12@1@@Z 004f6d40 f i Clipboard.obj
 0002:00045d70       ??0?$_String_const_iterator@DU?$char_traits@D@std@@V?$allocator@D@2@@std@@QAE@PBDPBU_Container_base12@1@@Z 004f6d70 f i Clipboard.obj
 0002:00045df0       ??0?$_Iterator012@Urandom_access_iterator_tag@std@@DHPBDABDU_Iterator_base12@2@@std@@QAE@XZ 004f6df0 f i Clipboard.obj
 0002:00045e10       ??$replace@V?$_String_iterator@_WU?$char_traits@_W@std@@V?$allocator@_W@2@@std@@@?$basic_string@DU?$char_traits@D@std@@V?$allocator@D@2@@std@@QAEAAV01@V?$_String_const_iterator@DU?$char_traits@D@std@@V?$allocator@D@2@@1@0V?$_String_iterator@_WU?$char_traits@_W@std@@V?$allocator@_W@2@@1@1@Z 004f6e10 f i Clipboard.obj
 0002:00045f70       ??$_Replace@V?$_String_iterator@_WU?$char_traits@_W@std@@V?$allocator@_W@2@@std@@@?$basic_string@DU?$char_traits@D@std@@V?$allocator@D@2@@std@@QAEAAV01@V?$_String_const_iterator@DU?$char_traits@D@std@@V?$allocator@D@2@@1@0V?$_String_iterator@_WU?$char_traits@_W@std@@V?$allocator@_W@2@@1@1Uinput_iterator_tag@1@@Z 004f6f70 f i Clipboard.obj
 0002:000460e0       ?replace@?$basic_string@DU?$char_traits@D@std@@V?$allocator@D@2@@std@@QAEAAV12@V?$_String_const_iterator@DU?$char_traits@D@std@@V?$allocator@D@2@@2@0ABV12@@Z 004f70e0 f i Clipboard.obj
 0002:00046250       ?_Pdif@?$basic_string@DU?$char_traits@D@std@@V?$allocator@D@2@@std@@SAIV?$_String_const_iterator@DU?$char_traits@D@std@@V?$allocator@D@2@@2@0@Z 004f7250 f i Clipboard.obj
 0002:000462f0       ??G?$_String_const_iterator@DU?$char_traits@D@std@@V?$allocator@D@2@@std@@QBEHABV01@@Z 004f72f0 f i Clipboard.obj
 0002:00046320       ?_Compat@?$_String_const_iterator@DU?$char_traits@D@std@@V?$allocator@D@2@@std@@QBEXABV12@@Z 004f7320 f i Clipboard.obj
 0002:000463e0       ?replace@?$basic_string@DU?$char_traits@D@std@@V?$allocator@D@2@@std@@QAEAAV12@IIABV12@@Z 004f73e0 f i Clipboard.obj
 0002:00046410       ?replace@?$basic_string@DU?$char_traits@D@std@@V?$allocator@D@2@@std@@QAEAAV12@IIABV12@II@Z 004f7410 f i Clipboard.obj
 0002:00046780       ??$?0V?$_String_iterator@_WU?$char_traits@_W@std@@V?$allocator@_W@2@@std@@@?$basic_string@DU?$char_traits@D@std@@V?$allocator@D@2@@std@@QAE@V?$_String_iterator@_WU?$char_traits@_W@std@@V?$allocator@_W@2@@1@0@Z 004f7780 f i Clipboard.obj
 0002:00046890       ??$_Construct@V?$_String_iterator@_WU?$char_traits@_W@std@@V?$allocator@_W@2@@std@@@?$basic_string@DU?$char_traits@D@std@@V?$allocator@D@2@@std@@QAEXV?$_String_iterator@_WU?$char_traits@_W@std@@V?$allocator@_W@2@@1@0Uforward_iterator_tag@1@@Z 004f7890 f i Clipboard.obj
 0002:00046a60       ?append@?$basic_string@DU?$char_traits@D@std@@V?$allocator@D@2@@std@@QAEAAV12@ID@Z 004f7a60 f i Clipboard.obj
 0002:00046af0       ?_Chassign@?$basic_string@DU?$char_traits@D@std@@V?$allocator@D@2@@std@@QAEXIID@Z 004f7af0 f i Clipboard.obj
 0002:00046b50       ?assign@?$char_traits@D@std@@SAPADPADID@Z 004f7b50 f i Clipboard.obj
 0002:00046b70       ?reserve@?$basic_string@DU?$char_traits@D@std@@V?$allocator@D@2@@std@@QAEXI@Z 004f7b70 f i Clipboard.obj
 0002:00046be0       ??D?$_String_iterator@_WU?$char_traits@_W@std@@V?$allocator@_W@2@@std@@QBEAA_WXZ 004f7be0 f i Clipboard.obj
 0002:00046c00       ??E?$_String_iterator@_WU?$char_traits@_W@std@@V?$allocator@_W@2@@std@@QAEAAV01@XZ 004f7c00 f i Clipboard.obj
 0002:00046c20       ??9?$_String_const_iterator@_WU?$char_traits@_W@std@@V?$allocator@_W@2@@std@@QBE_NABV01@@Z 004f7c20 f i Clipboard.obj
 0002:00046c50       ??D?$_String_const_iterator@_WU?$char_traits@_W@std@@V?$allocator@_W@2@@std@@QBEAB_WXZ 004f7c50 f i Clipboard.obj
 0002:00046d50       ??E?$_String_const_iterator@_WU?$char_traits@_W@std@@V?$allocator@_W@2@@std@@QAEAAV01@XZ 004f7d50 f i Clipboard.obj
 0002:00046e40       ??8?$_String_const_iterator@_WU?$char_traits@_W@std@@V?$allocator@_W@2@@std@@QBE_NABV01@@Z 004f7e40 f i Clipboard.obj
 0002:00046e80       ?_Compat@?$_String_const_iterator@_WU?$char_traits@_W@std@@V?$allocator@_W@2@@std@@QBEXABV12@@Z 004f7e80 f i Clipboard.obj
 0002:00046f40       ??$_Debug_range@V?$_String_iterator@_WU?$char_traits@_W@std@@V?$allocator@_W@2@@std@@@std@@YAXV?$_String_iterator@_WU?$char_traits@_W@std@@V?$allocator@_W@2@@0@0PB_WI@Z 004f7f40 f i Clipboard.obj
 0002:00047020       ??$_Distance@V?$_String_iterator@_WU?$char_traits@_W@std@@V?$allocator@_W@2@@std@@I@std@@YAXV?$_String_iterator@_WU?$char_traits@_W@std@@V?$allocator@_W@2@@0@0AAI@Z 004f8020 f i Clipboard.obj
 0002:00047100       ??$_Debug_range2@V?$_String_iterator@_WU?$char_traits@_W@std@@V?$allocator@_W@2@@std@@@std@@YAXV?$_String_iterator@_WU?$char_traits@_W@std@@V?$allocator@_W@2@@0@0PB_WIUrandom_access_iterator_tag@0@@Z 004f8100 f i Clipboard.obj
 0002:000471f0       ??$_Distance2@V?$_String_iterator@_WU?$char_traits@_W@std@@V?$allocator@_W@2@@std@@I@std@@YAXV?$_String_iterator@_WU?$char_traits@_W@std@@V?$allocator@_W@2@@0@0AAIUrandom_access_iterator_tag@0@@Z 004f81f0 f i Clipboard.obj
 0002:000472d0       ??G?$_String_iterator@_WU?$char_traits@_W@std@@V?$allocator@_W@2@@std@@QBEHABV?$_String_const_iterator@_WU?$char_traits@_W@std@@V?$allocator@_W@2@@1@@Z 004f82d0 f i Clipboard.obj
 0002:00047370       ??M?$_String_const_iterator@_WU?$char_traits@_W@std@@V?$allocator@_W@2@@std@@QBE_NABV01@@Z 004f8370 f i Clipboard.obj
 0002:000473b0       ??G?$_String_const_iterator@_WU?$char_traits@_W@std@@V?$allocator@_W@2@@std@@QBEHABV01@@Z 004f83b0 f i Clipboard.obj
 0002:000473e0       ??$_Debug_pointer@V?$_String_iterator@_WU?$char_traits@_W@std@@V?$allocator@_W@2@@std@@@std@@YAXAAV?$_String_iterator@_WU?$char_traits@_W@std@@V?$allocator@_W@2@@0@PB_WI@Z 004f83e0 f i Clipboard.obj
 0002:000473f0       _deskey                    004f83f0 f   d3des.obj
 0002:00047810       _cpkey                     004f8810 f   d3des.obj
 0002:00047850       _usekey                    004f8850 f   d3des.obj
 0002:00047890       _des                       004f8890 f   d3des.obj
 0002:00048150       ??0Daemon@@QAE@H@Z         004f9150 f   Daemon.obj
 0002:00048450       ?AddTrayIcon@Daemon@@IAEXXZ 004f9450 f   Daemon.obj
 0002:00048480       ?CheckTrayIcon@Daemon@@IAEXXZ 004f9480 f   Daemon.obj
 0002:000484d0       ?RemoveTrayIcon@Daemon@@IAEXXZ 004f94d0 f   Daemon.obj
 0002:00048500       ?SendTrayMsg@Daemon@@IAE_NK@Z 004f9500 f   Daemon.obj
 0002:00048620       ?WndProc@Daemon@@SGJPAUHWND__@@IIJ@Z 004f9620 f   Daemon.obj
 0002:00048980       ??1Daemon@@UAE@XZ          004f9980 f   Daemon.obj
 0002:000489f0       ?SetListenMode@@YAX_N@Z    004f99f0 f   Daemon.obj
 0002:00048a00       ?GetListenMode@@YA_NXZ     004f9a00 f   Daemon.obj
 0002:00048c40       ??_EDaemon@@UAEPAXI@Z      004f9c40 f i Daemon.obj
 0002:00048c40       ??_GDaemon@@UAEPAXI@Z      004f9c40 f i Daemon.obj
 0002:00048c80       ??$SafeGetWindowUserData@VDaemon@@@helper@@YAPAVDaemon@@PAUHWND__@@@Z 004f9c80 f i Daemon.obj
 0002:00048ca0       ??0Except@@QAE@PBD@Z       004f9ca0 f   dh.obj
 0002:00048d00       ??0DH@@QAE@XZ              004f9d00 f   dh.obj
 0002:00048d60       ??0DH@@QAE@_K0@Z           004f9d60 f   dh.obj
 0002:00048e70       ??1DH@@QAE@XZ              004f9e70 f   dh.obj
 0002:00048e90       ?rng@@YA_K_K@Z             004f9e90 f   dh.obj
 0002:00048ee0       ?millerRabin@DH@@AAE_N_KI@Z 004f9ee0 f   dh.obj
 0002:00048f80       ?generatePrime@DH@@AAE_KXZ 004f9f80 f   dh.obj
 0002:00048fe0       ?tryToGeneratePrime@DH@@AAE_K_K@Z 004f9fe0 f   dh.obj
 0002:00049130       ?XpowYmodN@DH@@AAE_K_K00@Z 004fa130 f   dh.obj
 0002:00049210       ?createKeys@DH@@QAEXXZ     004fa210 f   dh.obj
 0002:000492a0       ?createInterKey@DH@@QAE_KXZ 004fa2a0 f   dh.obj
 0002:00049310       ?createEncryptionKey@DH@@QAE_K_K@Z 004fa310 f   dh.obj
 0002:000493a0       ?cleanMem@DH@@AAEXK@Z      004fa3a0 f   dh.obj
 0002:00049410       ?getValue@DH@@QAE_KK@Z     004fa410 f   dh.obj
 0002:00049490       ?bits@@YAH_J@Z             004fa490 f   dh.obj
 0002:000494e0       ?int64ToBytes@@YA_N_KQAD@Z 004fa4e0 f   dh.obj
 0002:00049530       ?bytesToInt64@@YA_KQBD@Z   004fa530 f   dh.obj
 0002:000495a0       ?vncWc2Mb@@YA_NPADPA_WH@Z  004fa5a0 f   dh.obj
 0002:00049870       ??_EExcept@@UAEPAXI@Z      004fa870 f i dh.obj
 0002:00049870       ??_GExcept@@UAEPAXI@Z      004fa870 f i dh.obj
 0002:000498b0       ??1Except@@UAE@XZ          004fa8b0 f i dh.obj
 0002:00049900       ??0Except@@QAE@ABV0@@Z     004fa900 f i dh.obj
 0002:00049930       ?MyStrToken@@YAHPAD0HD@Z   004fa930 f   DSMPlugin.obj
 0002:000499e0       ??0CDSMPlugin@@QAE@XZ      004fa9e0 f   DSMPlugin.obj
 0002:00049ba0       ??1CDSMPlugin@@UAE@XZ      004faba0 f   DSMPlugin.obj
 0002:00049c20       ?SetEnabled@CDSMPlugin@@QAEX_N@Z 004fac20 f   DSMPlugin.obj
 0002:00049c40       ?SetLoaded@CDSMPlugin@@QAEX_N@Z 004fac40 f   DSMPlugin.obj
 0002:00049c60       ?DescribePlugin@CDSMPlugin@@QAEPADXZ 004fac60 f   DSMPlugin.obj
 0002:00049d30       ?InitPlugin@CDSMPlugin@@QAE_NXZ 004fad30 f   DSMPlugin.obj
 0002:00049d60       ?ResetPlugin@CDSMPlugin@@QAE_NXZ 004fad60 f   DSMPlugin.obj
 0002:00049d90       ?SetPluginParams@CDSMPlugin@@QAE_NPAUHWND__@@PAD1PAPAD@Z 004fad90 f   DSMPlugin.obj
 0002:00049e10       ?GetPluginParams@CDSMPlugin@@QAEPADXZ 004fae10 f   DSMPlugin.obj
 0002:00049e30       ?ListPlugins@CDSMPlugin@@QAEHPAUHWND__@@@Z 004fae30 f   DSMPlugin.obj
 0002:00049f90       ?LoadPlugin@CDSMPlugin@@QAE_NPAD_N@Z 004faf90 f   DSMPlugin.obj
 0002:0004a510       ?UnloadPlugin@CDSMPlugin@@QAE_NXZ 004fb510 f   DSMPlugin.obj
 0002:0004a5e0       ?CreatePluginInterface@CDSMPlugin@@QAEPAVIPlugin@@XZ 004fb5e0 f   DSMPlugin.obj
 0002:0004a610       ?SupportsMultithreaded@CDSMPlugin@@QAE_NXZ 004fb610 f   DSMPlugin.obj
 0002:0004a650       ?CreateIntegratedPluginInterface@CDSMPlugin@@QAEPAVIIntegratedPlugin@@XZ 004fb650 f   DSMPlugin.obj
 0002:0004a680       ?SupportsIntegrated@CDSMPlugin@@QAE_NXZ 004fb680 f   DSMPlugin.obj
 0002:0004a6a0       ?TransformBuffer@CDSMPlugin@@QAEPAEPAEHPAH@Z 004fb6a0 f   DSMPlugin.obj
 0002:0004a740       ?RestoreBufferStep1@CDSMPlugin@@QAEPAEPAEHPAH@Z 004fb740 f   DSMPlugin.obj
 0002:0004a780       ?RestoreBufferStep2@CDSMPlugin@@QAEPAEPAEHPAH@Z 004fb780 f   DSMPlugin.obj
 0002:0004a7c0       ?RestoreBufferUnlock@CDSMPlugin@@QAEXXZ 004fb7c0 f   DSMPlugin.obj
 0002:0004ab80       ??_ECDSMPlugin@@UAEPAXI@Z  004fbb80 f i DSMPlugin.obj
 0002:0004ab80       ??_GCDSMPlugin@@UAEPAXI@Z  004fbb80 f i DSMPlugin.obj
 0002:0004abc0       ?strrchr@@YAPADPADH@Z      004fbbc0 f i DSMPlugin.obj
 0002:0004abe0       ??0ViewerDirectxClass@@QAE@XZ 004fbbe0 f   directxviewer.obj
 0002:0004acb0       ??1ViewerDirectxClass@@UAE@XZ 004fbcb0 f   directxviewer.obj
 0002:0004acf0       ?DestroyD3D@ViewerDirectxClass@@QAEXXZ 004fbcf0 f   directxviewer.obj
 0002:0004ad90       ?InitD3D@ViewerDirectxClass@@QAEJPAUHWND__@@0HH_NHH@Z 004fbd90 f   directxviewer.obj
 0002:0004b240       ?ReInitD3D@ViewerDirectxClass@@QAEJXZ 004fc240 f   directxviewer.obj
 0002:0004b6a0       ?valid@ViewerDirectxClass@@AAE_NXZ 004fc6a0 f   directxviewer.obj
 0002:0004b6e0       ?paintdevice@ViewerDirectxClass@@AAE_NXZ 004fc6e0 f   directxviewer.obj
 0002:0004b8b0       ?paint@ViewerDirectxClass@@QAE_NXZ 004fc8b0 f   directxviewer.obj
 0002:0004b9a0       ?Preupdate@ViewerDirectxClass@@QAEPAEPAE@Z 004fc9a0 f   directxviewer.obj
 0002:0004bac0       ?Preupdate2@ViewerDirectxClass@@QAEPAEPAE@Z 004fcac0 f   directxviewer.obj
 0002:0004bbd0       ?Afterupdate@ViewerDirectxClass@@QAE_NXZ 004fcbd0 f   directxviewer.obj
 0002:0004c0d0       ??_EViewerDirectxClass@@UAEPAXI@Z 004fd0d0 f i directxviewer.obj
 0002:0004c0d0       ??_GViewerDirectxClass@@UAEPAXI@Z 004fd0d0 f i directxviewer.obj
 0002:0004c110       ?checkmonitors@tempdisplayclass@@QAEXXZ 004fd110 f   display.obj
 0002:0004c710       ??0tempdisplayclass@@QAE@XZ 004fd710 f   display.obj
 0002:0004c740       ??1tempdisplayclass@@QAE@XZ 004fd740 f   display.obj
 0002:0004c760       ?Init@tempdisplayclass@@QAEXXZ 004fd760 f   display.obj
 0002:0004c930       ??0Exception@@QAE@PBDH@Z   004fd930 f   Exception.obj
 0002:0004c9c0       ??1Exception@@UAE@XZ       004fd9c0 f   Exception.obj
 0002:0004c9f0       ??0QuietException@@QAE@PBDH@Z 004fd9f0 f   Exception.obj
 0002:0004ca20       ??1QuietException@@UAE@XZ  004fda20 f   Exception.obj
 0002:0004ca40       ?Report@QuietException@@UAEXXZ 004fda40 f   Exception.obj
 0002:0004ca70       ??0WarningException@@QAE@PBDH_N@Z 004fda70 f   Exception.obj
 0002:0004cab0       ??1WarningException@@UAE@XZ 004fdab0 f   Exception.obj
 0002:0004cad0       ?Report@WarningException@@UAEXXZ 004fdad0 f   Exception.obj
 0002:0004cb20       ??0ErrorException@@QAE@PBDH@Z 004fdb20 f   Exception.obj
 0002:0004cb50       ??1ErrorException@@UAE@XZ  004fdb50 f   Exception.obj
 0002:0004cb70       ?Report@ErrorException@@UAEXXZ 004fdb70 f   Exception.obj
 0002:0004cc60       ?DeleteFileOrDirectory@FileTransfer@@QAE_NPAD@Z 004fdc60 f   FileTransfer.obj
 0002:0004cd10       ??0FileTransfer@@QAE@PAVVNCviewerApp@@PAVClientConnection@@@Z 004fdd10 f   FileTransfer.obj
 0002:0004d1d0       ??1FileTransfer@@UAE@XZ    004fe1d0 f   FileTransfer.obj
 0002:0004d2e0       ?InitFTTimer@FileTransfer@@QAEXXZ 004fe2e0 f   FileTransfer.obj
 0002:0004d330       ?KillFTTimer@FileTransfer@@QAEXXZ 004fe330 f   FileTransfer.obj
 0002:0004d360       ?fpTimerProc@FileTransfer@@SGXPAUHWND__@@IIK@Z 004fe360 f   FileTransfer.obj
 0002:0004d380       ?fpTimer@FileTransfer@@SGXIIKKK@Z 004fe380 f   FileTransfer.obj
 0002:0004d3a0       ?TimerCallback@FileTransfer@@SAXPAV1@@Z 004fe3a0 f   FileTransfer.obj
 0002:0004d470       ?ShowFileTransferWindow@FileTransfer@@QAEX_N@Z 004fe470 f   FileTransfer.obj
 0002:0004d560       ?PseudoYield@@YA_NPAUHWND__@@@Z 004fe560 f   FileTransfer.obj
 0002:0004d5b0       ?ProcessFileTransferMsg@FileTransfer@@QAEXXZ 004fe5b0 f   FileTransfer.obj
 0002:0004dc50       ?RequestPermission@FileTransfer@@QAEXXZ 004fec50 f   FileTransfer.obj
 0002:0004dcb0       ?StartFTSession@FileTransfer@@QAEXXZ 004fecb0 f   FileTransfer.obj
 0002:0004dd10       ?EndFTSession@FileTransfer@@QAEXXZ 004fed10 f   FileTransfer.obj
 0002:0004dd80       ?TestPermission@FileTransfer@@QAE_NJH@Z 004fed80 f   FileTransfer.obj
 0002:0004de70       ?ReceiveFiles@FileTransfer@@QAE_NKH@Z 004fee70 f   FileTransfer.obj
 0002:0004dec0       ?RequestNextFile@FileTransfer@@QAE_NXZ 004feec0 f   FileTransfer.obj
 0002:0004e1b0       ?SendFiles@FileTransfer@@QAE_NJH@Z 004ff1b0 f   FileTransfer.obj
 0002:0004e200       ?OfferNextFile@FileTransfer@@QAE_NXZ 004ff200 f   FileTransfer.obj
 0002:0004e510       ?GetFriendlyFileSizeString@FileTransfer@@QAEX_JPAD@Z 004ff510 f   FileTransfer.obj
 0002:0004e6b0       ?MyGetFileSize@FileTransfer@@QAE_NPADPAT_ULARGE_INTEGER@@@Z 004ff6b0 f   FileTransfer.obj
 0002:0004e750       ?AddFileToFileList@FileTransfer@@QAEXPAUHWND__@@HAAU_WIN32_FIND_DATAA@@_N@Z 004ff750 f   FileTransfer.obj
 0002:0004eaa0       ?HighlightTransferedFiles@FileTransfer@@QAEXPAUHWND__@@0@Z 004ffaa0 f   FileTransfer.obj
 0002:0004ecc0       ?IsShortcutFolder@FileTransfer@@QAE_NPAD@Z 004ffcc0 f   FileTransfer.obj
 0002:0004edc0       ?ResolvePossibleShortcutFolder@FileTransfer@@QAE_NPAUHWND__@@PAD@Z 004ffdc0 f   FileTransfer.obj
 0002:0004efd0       ?GetSpecialFolderPath@FileTransfer@@QAE_NHPAD@Z 004fffd0 f   FileTransfer.obj
 0002:0004f010       ?PopulateLocalListBox@FileTransfer@@QAEXPAUHWND__@@PAD@Z 00500010 f   FileTransfer.obj
 0002:0004f630       ?RequestRemoteDirectoryContent@FileTransfer@@QAEXPAUHWND__@@PAD@Z 00500630 f   FileTransfer.obj
 0002:0004fae0       ?PopulateRemoteListBox@FileTransfer@@QAEXPAUHWND__@@H@Z 00500ae0 f   FileTransfer.obj
 0002:0004fc50       ?ReceiveDirectoryItem@FileTransfer@@QAEXPAUHWND__@@H@Z 00500c50 f   FileTransfer.obj
 0002:0004fd70       ?FinishDirectoryReception@FileTransfer@@QAEXXZ 00500d70 f   FileTransfer.obj
 0002:0004fe70       ?RequestRemoteDrives@FileTransfer@@QAEXXZ 00500e70 f   FileTransfer.obj
 0002:0004fed0       ?ListRemoteDrives@FileTransfer@@QAEXPAUHWND__@@H@Z 00500ed0 f   FileTransfer.obj
 0002:000503a0       ?ListDrives@FileTransfer@@QAEXPAUHWND__@@@Z 005013a0 f   FileTransfer.obj
 0002:00050850       ?SetTotalSize@FileTransfer@@QAEXPAUHWND__@@K@Z 00501850 f   FileTransfer.obj
 0002:000508b0       ?SetGauge@FileTransfer@@QAEXPAUHWND__@@_J@Z 005018b0 f   FileTransfer.obj
 0002:00050a60       ?SetGlobalCount@FileTransfer@@QAEXXZ 00501a60 f   FileTransfer.obj
 0002:00050ac0       ?SetStatus@FileTransfer@@QAEXPAD@Z 00501ac0 f   FileTransfer.obj
 0002:00050cb0       ?RequestRemoteFile@FileTransfer@@QAEXPAD@Z 00501cb0 f   FileTransfer.obj
 0002:00050ec0       ?ReceiveFile@FileTransfer@@QAE_NKH@Z 00501ec0 f   FileTransfer.obj
 0002:00051ae0       ?ReceiveFileChunk@FileTransfer@@QAE_NHH@Z 00502ae0 f   FileTransfer.obj
 0002:00051ec0       ?FinishFileReception@FileTransfer@@QAE_NXZ 00502ec0 f   FileTransfer.obj
 0002:00052320       ?UnzipPossibleDirectory@FileTransfer@@QAE_NPAD@Z 00503320 f   FileTransfer.obj
 0002:00052500       ?AbortFileReception@FileTransfer@@QAE_NXZ 00503500 f   FileTransfer.obj
 0002:000525a0       ?OfferLocalFile@FileTransfer@@QAE_NPAD@Z 005035a0 f   FileTransfer.obj
 0002:00052bc0       ?ZipPossibleDirectory@FileTransfer@@QAEHPAD@Z 00503bc0 f   FileTransfer.obj
 0002:00052f10       ?ReceiveDestinationFileChecksums@FileTransfer@@QAE_NHH@Z 00503f10 f   FileTransfer.obj
 0002:00052f90       ?SendFile@FileTransfer@@QAE_NJH@Z 00503f90 f   FileTransfer.obj
 0002:00053310       ?SendFileChunk@FileTransfer@@QAE_NXZ 00504310 f   FileTransfer.obj
 0002:00053790       ?FinishFileSending@FileTransfer@@QAE_NXZ 00504790 f   FileTransfer.obj
 0002:00053a80       ?CreateRemoteDirectory@FileTransfer@@QAEXPAD@Z 00504a80 f   FileTransfer.obj
 0002:00053b50       ?DeleteRemoteFile@FileTransfer@@QAEXV?$basic_string@DU?$char_traits@D@std@@V?$allocator@D@2@@std@@@Z 00504b50 f   FileTransfer.obj
 0002:00053c50       ?RenameRemoteFileOrDirectory@FileTransfer@@QAEXPAD0@Z 00504c50 f   FileTransfer.obj
 0002:00053d80       ?CreateRemoteDirectoryFeedback@FileTransfer@@QAE_NJH@Z 00504d80 f   FileTransfer.obj
 0002:00053f30       ?DeleteRemoteFileFeedback@FileTransfer@@QAE_NJH@Z 00504f30 f   FileTransfer.obj
 0002:00054160       ?RenameRemoteFileOrDirectoryFeedback@FileTransfer@@QAE_NJH@Z 00505160 f   FileTransfer.obj
 0002:000543c0       ?GenerateFileChecksums@FileTransfer@@QAEHPAXPADH@Z 005053c0 f   FileTransfer.obj
 0002:000544e0       ?IsDirectoryGetIt@FileTransfer@@QAE_NPAD@Z 005054e0 f   FileTransfer.obj
 0002:00054590       ?DoDialog@FileTransfer@@QAEHXZ 00505590 f   FileTransfer.obj
 0002:000545c0       ?FTAdjustLeft@@YAXPAUtagRECT@@@Z 005055c0 f   FileTransfer.obj
 0002:00054610       ?FTAdjustTop@@YAXPAUtagRECT@@@Z 00505610 f   FileTransfer.obj
 0002:00054660       ?FTAdjustRight@@YAXPAUtagRECT@@@Z 00505660 f   FileTransfer.obj
 0002:000546b0       ?FTAdjustBottom@@YAXPAUtagRECT@@@Z 005056b0 f   FileTransfer.obj
 0002:00054700       ?FTAdjustFileNameColumns@@YAXPAUHWND__@@@Z 00505700 f   FileTransfer.obj
 0002:000547d0       ?FileTransferDlgProc@FileTransfer@@SGHPAUHWND__@@IIJ@Z 005057d0 f   FileTransfer.obj
 0002:00057b80       ?DoFTParamDialog@FileTransfer@@QAEHPAD0@Z 00508b80 f   FileTransfer.obj
 0002:00057be0       ?FTParamDlgProc@FileTransfer@@SGHPAUHWND__@@IIJ@Z 00508be0 f   FileTransfer.obj
 0002:00057e70       ?DoFTConfirmDialog@FileTransfer@@QAEHPAD0@Z 00508e70 f   FileTransfer.obj
 0002:00057ed0       ?FTConfirmDlgProc@FileTransfer@@SGHPAUHWND__@@IIJ@Z 00508ed0 f   FileTransfer.obj
 0002:00058080       ?DisableButtons@FileTransfer@@QAEXPAUHWND__@@@Z 00509080 f   FileTransfer.obj
 0002:00058250       ?CheckButtonState@FileTransfer@@QAEXPAUHWND__@@@Z 00509250 f   FileTransfer.obj
 0002:00058390       ?EnableButtons@FileTransfer@@QAEXPAUHWND__@@@Z 00509390 f   FileTransfer.obj
 0002:00058570       ?InitListViewImagesList@FileTransfer@@QAEXPAUHWND__@@@Z 00509570 f   FileTransfer.obj
 0002:00058650       ?ListViewLocalCompareProc@FileTransfer@@SGHJJJ@Z 00509650 f   FileTransfer.obj
 0002:000588e0       ?GetFileSizeFromString@FileTransfer@@SA_JPAD@Z 005098e0 f   FileTransfer.obj
 0002:00058a70       ?GetFileTimeFromString@FileTransfer@@SA?AU_FILETIME@@PAD@Z 00509a70 f   FileTransfer.obj
 0002:00058b40       ?FileOrFolderExists@FileTransfer@@QAE_NPAUHWND__@@V?$basic_string@DU?$char_traits@D@std@@V?$allocator@D@2@@std@@@Z 00509b40 f   FileTransfer.obj
 0002:0005bbb0       ??_EFileTransfer@@UAEPAXI@Z 0050cbb0 f i FileTransfer.obj
 0002:0005bbb0       ??_GFileTransfer@@UAEPAXI@Z 0050cbb0 f i FileTransfer.obj
 0002:0005bbf0       ??1?$_List_iterator@V?$_List_val@HV?$allocator@H@std@@@std@@@std@@QAE@XZ 0050cbf0 f i FileTransfer.obj
 0002:0005bc10       ??1?$_List_const_iterator@V?$_List_val@HV?$allocator@H@std@@@std@@@std@@QAE@XZ 0050cc10 f i FileTransfer.obj
 0002:0005bc30       ??1?$_List_unchecked_const_iterator@V?$_List_val@HV?$allocator@H@std@@@std@@U_Iterator_base12@2@@std@@QAE@XZ 0050cc30 f i FileTransfer.obj
 0002:0005bc50       ??1?$_Iterator012@Ubidirectional_iterator_tag@std@@HHPBHABHU_Iterator_base12@2@@std@@QAE@XZ 0050cc50 f i FileTransfer.obj
 0002:0005bc70       ?IsDormant@ClientConnection@@QAE_NXZ 0050cc70 f i FileTransfer.obj
 0002:0005bc90       ??4?$_List_iterator@V?$_List_val@HV?$allocator@H@std@@@std@@@std@@QAEAAV01@ABV01@@Z 0050cc90 f i FileTransfer.obj
 0002:0005bcc0       ??4?$_List_const_iterator@V?$_List_val@HV?$allocator@H@std@@@std@@@std@@QAEAAV01@ABV01@@Z 0050ccc0 f i FileTransfer.obj
 0002:0005bcf0       ??4?$_List_unchecked_const_iterator@V?$_List_val@HV?$allocator@H@std@@@std@@U_Iterator_base12@2@@std@@QAEAAV01@ABV01@@Z 0050ccf0 f i FileTransfer.obj
 0002:0005bd30       ??4?$_Iterator012@Ubidirectional_iterator_tag@std@@HHPBHABHU_Iterator_base12@2@@std@@QAEAAU01@ABU01@@Z 0050cd30 f i FileTransfer.obj
 0002:0005bd60       ?_mbsrchr@@YAPAEPAEI@Z     0050cd60 f i FileTransfer.obj
 0002:0005bd80       _Int64ShraMod32@12         0050cd80 f i FileTransfer.obj
 0002:0005bda0       ?_mbschr@@YAPAEPAEI@Z      0050cda0 f i FileTransfer.obj
 0002:0005bdc0       ??1?$_Vector_iterator@V?$_Vector_val@V?$basic_string@DU?$char_traits@D@std@@V?$allocator@D@2@@std@@V?$allocator@V?$basic_string@DU?$char_traits@D@std@@V?$allocator@D@2@@std@@@2@@std@@@std@@QAE@XZ 0050cdc0 f i FileTransfer.obj
 0002:0005bde0       ??1?$_Vector_const_iterator@V?$_Vector_val@V?$basic_string@DU?$char_traits@D@std@@V?$allocator@D@2@@std@@V?$allocator@V?$basic_string@DU?$char_traits@D@std@@V?$allocator@D@2@@std@@@2@@std@@@std@@QAE@XZ 0050cde0 f i FileTransfer.obj
 0002:0005be00       ??1?$_Iterator012@Urandom_access_iterator_tag@std@@V?$basic_string@DU?$char_traits@D@std@@V?$allocator@D@2@@2@HPBV32@ABV32@U_Iterator_base12@2@@std@@QAE@XZ 0050ce00 f i FileTransfer.obj
 0002:0005be20       ??0?$basic_string@DU?$char_traits@D@std@@V?$allocator@D@2@@std@@QAE@$$QAV01@@Z 0050ce20 f i FileTransfer.obj
 0002:0005bed0       ??Y?$basic_string@DU?$char_traits@D@std@@V?$allocator@D@2@@std@@QAEAAV01@PBD@Z 0050ced0 f i FileTransfer.obj
 0002:0005bef0       ?c_str@?$basic_string@DU?$char_traits@D@std@@V?$allocator@D@2@@std@@QBEPBDXZ 0050cef0 f i FileTransfer.obj
 0002:0005bf10       ?length@?$basic_string@DU?$char_traits@D@std@@V?$allocator@D@2@@std@@QBEIXZ 0050cf10 f i FileTransfer.obj
 0002:0005bf30       ?resize@?$basic_string@DU?$char_traits@D@std@@V?$allocator@D@2@@std@@QAEXI@Z 0050cf30 f i FileTransfer.obj
 0002:0005bf60       ?find@?$basic_string@DU?$char_traits@D@std@@V?$allocator@D@2@@std@@QBEIPBDI@Z 0050cf60 f i FileTransfer.obj
 0002:0005bfb0       ?find_first_not_of@?$basic_string@DU?$char_traits@D@std@@V?$allocator@D@2@@std@@QBEIPBDI@Z 0050cfb0 f i FileTransfer.obj
 0002:0005c000       ??0?$list@HV?$allocator@H@std@@@std@@QAE@XZ 0050d000 f i FileTransfer.obj
 0002:0005c030       ??1?$list@HV?$allocator@H@std@@@std@@QAE@XZ 0050d030 f i FileTransfer.obj
 0002:0005c0a0       ?begin@?$list@HV?$allocator@H@std@@@std@@QAE?AV?$_List_iterator@V?$_List_val@HV?$allocator@H@std@@@std@@@2@XZ 0050d0a0 f i FileTransfer.obj
 0002:0005c0f0       ?end@?$list@HV?$allocator@H@std@@@std@@QAE?AV?$_List_iterator@V?$_List_val@HV?$allocator@H@std@@@std@@@2@XZ 0050d0f0 f i FileTransfer.obj
 0002:0005c140       ?size@?$list@HV?$allocator@H@std@@@std@@QBEIXZ 0050d140 f i FileTransfer.obj
 0002:0005c160       ?push_back@?$list@HV?$allocator@H@std@@@std@@QAEXABH@Z 0050d160 f i FileTransfer.obj
 0002:0005c210       ?clear@?$list@HV?$allocator@H@std@@@std@@QAEXXZ 0050d210 f i FileTransfer.obj
 0002:0005c2f0       ??0?$_List_iterator@V?$_List_val@HV?$allocator@H@std@@@std@@@std@@QAE@XZ 0050d2f0 f i FileTransfer.obj
 0002:0005c310       ??D?$_List_iterator@V?$_List_val@HV?$allocator@H@std@@@std@@@std@@QBEAAHXZ 0050d310 f i FileTransfer.obj
 0002:0005c330       ??E?$_List_iterator@V?$_List_val@HV?$allocator@H@std@@@std@@@std@@QAE?AV01@H@Z 0050d330 f i FileTransfer.obj
 0002:0005c3d0       ??9?$_List_const_iterator@V?$_List_val@HV?$allocator@H@std@@@std@@@std@@QBE_NABV01@@Z 0050d3d0 f i FileTransfer.obj
 0002:0005c400       ??0?$vector@V?$basic_string@DU?$char_traits@D@std@@V?$allocator@D@2@@std@@V?$allocator@V?$basic_string@DU?$char_traits@D@std@@V?$allocator@D@2@@std@@@2@@std@@QAE@XZ 0050d400 f i FileTransfer.obj
 0002:0005c430       ?push_back@?$vector@V?$basic_string@DU?$char_traits@D@std@@V?$allocator@D@2@@std@@V?$allocator@V?$basic_string@DU?$char_traits@D@std@@V?$allocator@D@2@@std@@@2@@std@@QAEX$$QAV?$basic_string@DU?$char_traits@D@std@@V?$allocator@D@2@@2@@Z 0050d430 f i FileTransfer.obj
 0002:0005c590       ??1?$vector@V?$basic_string@DU?$char_traits@D@std@@V?$allocator@D@2@@std@@V?$allocator@V?$basic_string@DU?$char_traits@D@std@@V?$allocator@D@2@@std@@@2@@std@@QAE@XZ 0050d590 f i FileTransfer.obj
 0002:0005c600       ?begin@?$vector@V?$basic_string@DU?$char_traits@D@std@@V?$allocator@D@2@@std@@V?$allocator@V?$basic_string@DU?$char_traits@D@std@@V?$allocator@D@2@@std@@@2@@std@@QAE?AV?$_Vector_iterator@V?$_Vector_val@V?$basic_string@DU?$char_traits@D@std@@V?$allocator@D@2@@std@@V?$allocator@V?$basic_string@DU?$char_traits@D@std@@V?$allocator@D@2@@std@@@2@@std@@@2@XZ 0050d600 f i FileTransfer.obj
 0002:0005c650       ?end@?$vector@V?$basic_string@DU?$char_traits@D@std@@V?$allocator@D@2@@std@@V?$allocator@V?$basic_string@DU?$char_traits@D@std@@V?$allocator@D@2@@std@@@2@@std@@QAE?AV?$_Vector_iterator@V?$_Vector_val@V?$basic_string@DU?$char_traits@D@std@@V?$allocator@D@2@@std@@V?$allocator@V?$basic_string@DU?$char_traits@D@std@@V?$allocator@D@2@@std@@@2@@std@@@2@XZ 0050d650 f i FileTransfer.obj
 0002:0005c6a0       ??C?$_Vector_iterator@V?$_Vector_val@V?$basic_string@DU?$char_traits@D@std@@V?$allocator@D@2@@std@@V?$allocator@V?$basic_string@DU?$char_traits@D@std@@V?$allocator@D@2@@std@@@2@@std@@@std@@QBEPAV?$basic_string@DU?$char_traits@D@std@@V?$allocator@D@2@@1@XZ 0050d6a0 f i FileTransfer.obj
 0002:0005c6c0       ??E?$_Vector_iterator@V?$_Vector_val@V?$basic_string@DU?$char_traits@D@std@@V?$allocator@D@2@@std@@V?$allocator@V?$basic_string@DU?$char_traits@D@std@@V?$allocator@D@2@@std@@@2@@std@@@std@@QAEAAV01@XZ 0050d6c0 f i FileTransfer.obj
 0002:0005c6e0       ??9?$_Vector_const_iterator@V?$_Vector_val@V?$basic_string@DU?$char_traits@D@std@@V?$allocator@D@2@@std@@V?$allocator@V?$basic_string@DU?$char_traits@D@std@@V?$allocator@D@2@@std@@@2@@std@@@std@@QBE_NABV01@@Z 0050d6e0 f i FileTransfer.obj
 0002:0005c710       ??D?$_String_iterator@DU?$char_traits@D@std@@V?$allocator@D@2@@std@@QBEAADXZ 0050d710 f i FileTransfer.obj
 0002:0005c730       ??0?$_List_const_iterator@V?$_List_val@HV?$allocator@H@std@@@std@@@std@@QAE@ABV01@@Z 0050d730 f i FileTransfer.obj
 0002:0005c760       ??0?$_List_iterator@V?$_List_val@HV?$allocator@H@std@@@std@@@std@@QAE@ABV01@@Z 0050d760 f i FileTransfer.obj
 0002:0005c790       ??0?$_List_unchecked_const_iterator@V?$_List_val@HV?$allocator@H@std@@@std@@U_Iterator_base12@2@@std@@QAE@ABV01@@Z 0050d790 f i FileTransfer.obj
 0002:0005c7d0       ??0?$_Iterator012@Ubidirectional_iterator_tag@std@@HHPBHABHU_Iterator_base12@2@@std@@QAE@ABU01@@Z 0050d7d0 f i FileTransfer.obj
 0002:0005c800       ?assign@?$basic_string@DU?$char_traits@D@std@@V?$allocator@D@2@@std@@QAEAAV12@$$QAV12@@Z 0050d800 f i FileTransfer.obj
 0002:0005c910       ?append@?$basic_string@DU?$char_traits@D@std@@V?$allocator@D@2@@std@@QAEAAV12@PBD@Z 0050d910 f i FileTransfer.obj
 0002:0005c960       ?resize@?$basic_string@DU?$char_traits@D@std@@V?$allocator@D@2@@std@@QAEXID@Z 0050d960 f i FileTransfer.obj
 0002:0005c9c0       ?find@?$basic_string@DU?$char_traits@D@std@@V?$allocator@D@2@@std@@QBEIPBDII@Z 0050d9c0 f i FileTransfer.obj
 0002:0005caf0       ?find@?$char_traits@D@std@@SAPBDPBDIABD@Z 0050daf0 f i FileTransfer.obj
 0002:0005cb20       ?find_first_not_of@?$basic_string@DU?$char_traits@D@std@@V?$allocator@D@2@@std@@QBEIPBDII@Z 0050db20 f i FileTransfer.obj
 0002:0005cbe0       ?_Insert@?$list@HV?$allocator@H@std@@@std@@QAEXV?$_List_const_iterator@V?$_List_val@HV?$allocator@H@std@@@std@@@2@ABH@Z 0050dbe0 f i FileTransfer.obj
 0002:0005ccf0       ?_Tidy@?$list@HV?$allocator@H@std@@@std@@QAEXXZ 0050dcf0 f i FileTransfer.obj
 0002:0005cd10       ?_Orphan_ptr@?$list@HV?$allocator@H@std@@@std@@QBEXAAV12@PAU_Node@?$_List_nod@HV?$allocator@H@std@@@2@@Z 0050dd10 f i FileTransfer.obj
 0002:0005ce10       ??0?$_List_val@HV?$allocator@H@std@@@std@@QAE@V?$allocator@H@1@@Z 0050de10 f i FileTransfer.obj
 0002:0005cef0       ??1?$_List_val@HV?$allocator@H@std@@@std@@QAE@XZ 0050def0 f i FileTransfer.obj
 0002:0005cf70       ?_Nextnode@?$_List_val@HV?$allocator@H@std@@@std@@SAAAPAU_Node@?$_List_nod@HV?$allocator@H@std@@@2@PAU342@@Z 0050df70 f i FileTransfer.obj
 0002:0005cf80       ?_Prevnode@?$_List_val@HV?$allocator@H@std@@@std@@SAAAPAU_Node@?$_List_nod@HV?$allocator@H@std@@@2@PAU342@@Z 0050df80 f i FileTransfer.obj
 0002:0005cf90       ??0?$allocator@H@std@@QAE@XZ 0050df90 f i FileTransfer.obj
 0002:0005cfb0       ?deallocate@?$allocator@U_Node@?$_List_nod@HV?$allocator@H@std@@@std@@@std@@QAEXPAU_Node@?$_List_nod@HV?$allocator@H@std@@@2@I@Z 0050dfb0 f i FileTransfer.obj
 0002:0005cfd0       ??0?$_List_iterator@V?$_List_val@HV?$allocator@H@std@@@std@@@std@@QAE@PAU_Node@?$_List_nod@HV?$allocator@H@std@@@1@PBV?$_List_val@HV?$allocator@H@std@@@1@@Z 0050dfd0 f i FileTransfer.obj
 0002:0005d000       ??E?$_List_iterator@V?$_List_val@HV?$allocator@H@std@@@std@@@std@@QAEAAV01@XZ 0050e000 f i FileTransfer.obj
 0002:0005d020       ??0?$_List_const_iterator@V?$_List_val@HV?$allocator@H@std@@@std@@@std@@QAE@XZ 0050e020 f i FileTransfer.obj
 0002:0005d040       ??D?$_List_const_iterator@V?$_List_val@HV?$allocator@H@std@@@std@@@std@@QBEABHXZ 0050e040 f i FileTransfer.obj
 0002:0005d110       ??8?$_List_const_iterator@V?$_List_val@HV?$allocator@H@std@@@std@@@std@@QBE_NABV01@@Z 0050e110 f i FileTransfer.obj
 0002:0005d1e0       ??D?$_String_const_iterator@DU?$char_traits@D@std@@V?$allocator@D@2@@std@@QBEABDXZ 0050e1e0 f i FileTransfer.obj
 0002:0005d2e0       ?_Inside@?$vector@V?$basic_string@DU?$char_traits@D@std@@V?$allocator@D@2@@std@@V?$allocator@V?$basic_string@DU?$char_traits@D@std@@V?$allocator@D@2@@std@@@2@@std@@IBE_NPBV?$basic_string@DU?$char_traits@D@std@@V?$allocator@D@2@@2@@Z 0050e2e0 f i FileTransfer.obj
 0002:0005d330       ?_Reserve@?$vector@V?$basic_string@DU?$char_traits@D@std@@V?$allocator@D@2@@std@@V?$allocator@V?$basic_string@DU?$char_traits@D@std@@V?$allocator@D@2@@std@@@2@@std@@IAEXI@Z 0050e330 f i FileTransfer.obj
 0002:0005d3b0       ?_Tidy@?$vector@V?$basic_string@DU?$char_traits@D@std@@V?$allocator@D@2@@std@@V?$allocator@V?$basic_string@DU?$char_traits@D@std@@V?$allocator@D@2@@std@@@2@@std@@IAEXXZ 0050e3b0 f i FileTransfer.obj
 0002:0005d440       ?_Orphan_range@?$vector@V?$basic_string@DU?$char_traits@D@std@@V?$allocator@D@2@@std@@V?$allocator@V?$basic_string@DU?$char_traits@D@std@@V?$allocator@D@2@@std@@@2@@std@@IBEXPAV?$basic_string@DU?$char_traits@D@std@@V?$allocator@D@2@@2@0@Z 0050e440 f i FileTransfer.obj
 0002:0005d530       ??0?$_Vector_val@V?$basic_string@DU?$char_traits@D@std@@V?$allocator@D@2@@std@@V?$allocator@V?$basic_string@DU?$char_traits@D@std@@V?$allocator@D@2@@std@@@2@@std@@QAE@V?$allocator@V?$basic_string@DU?$char_traits@D@std@@V?$allocator@D@2@@std@@@1@@Z 0050e530 f i FileTransfer.obj
 0002:0005d630       ??1?$_Vector_val@V?$basic_string@DU?$char_traits@D@std@@V?$allocator@D@2@@std@@V?$allocator@V?$basic_string@DU?$char_traits@D@std@@V?$allocator@D@2@@std@@@2@@std@@QAE@XZ 0050e630 f i FileTransfer.obj
 0002:0005d6f0       ??0?$allocator@V?$basic_string@DU?$char_traits@D@std@@V?$allocator@D@2@@std@@@std@@QAE@XZ 0050e6f0 f i FileTransfer.obj
 0002:0005d710       ??0?$_Vector_iterator@V?$_Vector_val@V?$basic_string@DU?$char_traits@D@std@@V?$allocator@D@2@@std@@V?$allocator@V?$basic_string@DU?$char_traits@D@std@@V?$allocator@D@2@@std@@@2@@std@@@std@@QAE@PAV?$basic_string@DU?$char_traits@D@std@@V?$allocator@D@2@@1@PBU_Container_base12@1@@Z 0050e710 f i FileTransfer.obj
 0002:0005d740       ??D?$_Vector_iterator@V?$_Vector_val@V?$basic_string@DU?$char_traits@D@std@@V?$allocator@D@2@@std@@V?$allocator@V?$basic_string@DU?$char_traits@D@std@@V?$allocator@D@2@@std@@@2@@std@@@std@@QBEAAV?$basic_string@DU?$char_traits@D@std@@V?$allocator@D@2@@1@XZ 0050e740 f i FileTransfer.obj
 0002:0005d760       ??E?$_Vector_const_iterator@V?$_Vector_val@V?$basic_string@DU?$char_traits@D@std@@V?$allocator@D@2@@std@@V?$allocator@V?$basic_string@DU?$char_traits@D@std@@V?$allocator@D@2@@std@@@2@@std@@@std@@QAEAAV01@XZ 0050e760 f i FileTransfer.obj
 0002:0005d830       ??8?$_Vector_const_iterator@V?$_Vector_val@V?$basic_string@DU?$char_traits@D@std@@V?$allocator@D@2@@std@@V?$allocator@V?$basic_string@DU?$char_traits@D@std@@V?$allocator@D@2@@std@@@2@@std@@@std@@QBE_NABV01@@Z 0050e830 f i FileTransfer.obj
 0002:0005d870       ?append@?$basic_string@DU?$char_traits@D@std@@V?$allocator@D@2@@std@@QAEAAV12@PBDI@Z 0050e870 f i FileTransfer.obj
 0002:0005d970       ?get_allocator@?$basic_string@DU?$char_traits@D@std@@V?$allocator@D@2@@std@@QBE?AV?$allocator@D@2@XZ 0050e970 f i FileTransfer.obj
 0002:0005d9a0       ?_Incsize@?$list@HV?$allocator@H@std@@@std@@QAEXI@Z 0050e9a0 f i FileTransfer.obj
 0002:0005d9f0       ?_Buynode@?$_List_val@HV?$allocator@H@std@@@std@@QAEPAU_Node@?$_List_nod@HV?$allocator@H@std@@@2@PAU342@0ABH@Z 0050e9f0 f i FileTransfer.obj
 0002:0005db20       ?_Myval@?$_List_val@HV?$allocator@H@std@@@std@@SAAAHPAU_Node@?$_List_nod@HV?$allocator@H@std@@@2@@Z 0050eb20 f i FileTransfer.obj
 0002:0005db30       ??0?$_List_nod@HV?$allocator@H@std@@@std@@QAE@V?$allocator@H@1@@Z 0050eb30 f i FileTransfer.obj
 0002:0005dc10       ??1?$_List_nod@HV?$allocator@H@std@@@std@@QAE@XZ 0050ec10 f i FileTransfer.obj
 0002:0005dcd0       ??0?$allocator@H@std@@QAE@ABV01@@Z 0050ecd0 f i FileTransfer.obj
 0002:0005dcf0       ?allocate@?$allocator@U_Node@?$_List_nod@HV?$allocator@H@std@@@std@@@std@@QAEPAU_Node@?$_List_nod@HV?$allocator@H@std@@@2@I@Z 0050ecf0 f i FileTransfer.obj
 0002:0005dd20       ??0?$_List_const_iterator@V?$_List_val@HV?$allocator@H@std@@@std@@@std@@QAE@PAU_Node@?$_List_nod@HV?$allocator@H@std@@@1@PBV?$_List_val@HV?$allocator@H@std@@@1@@Z 0050ed20 f i FileTransfer.obj
 0002:0005dd50       ??E?$_List_const_iterator@V?$_List_val@HV?$allocator@H@std@@@std@@@std@@QAEAAV01@XZ 0050ed50 f i FileTransfer.obj
 0002:0005de30       ??0?$_List_unchecked_const_iterator@V?$_List_val@HV?$allocator@H@std@@@std@@U_Iterator_base12@2@@std@@QAE@XZ 0050ee30 f i FileTransfer.obj
 0002:0005de60       ?_Mynode@?$_List_unchecked_const_iterator@V?$_List_val@HV?$allocator@H@std@@@std@@U_Iterator_base12@2@@std@@QBEPAU_Node@?$_List_nod@HV?$allocator@H@std@@@2@XZ 0050ee60 f i FileTransfer.obj
 0002:0005de80       ?reserve@?$vector@V?$basic_string@DU?$char_traits@D@std@@V?$allocator@D@2@@std@@V?$allocator@V?$basic_string@DU?$char_traits@D@std@@V?$allocator@D@2@@std@@@2@@std@@QAEXI@Z 0050ee80 f i FileTransfer.obj
 0002:0005e030       ?capacity@?$vector@V?$basic_string@DU?$char_traits@D@std@@V?$allocator@D@2@@std@@V?$allocator@V?$basic_string@DU?$char_traits@D@std@@V?$allocator@D@2@@std@@@2@@std@@QBEIXZ 0050f030 f i FileTransfer.obj
 0002:0005e050       ?size@?$vector@V?$basic_string@DU?$char_traits@D@std@@V?$allocator@D@2@@std@@V?$allocator@V?$basic_string@DU?$char_traits@D@std@@V?$allocator@D@2@@std@@@2@@std@@QBEIXZ 0050f050 f i FileTransfer.obj
 0002:0005e070       ?max_size@?$vector@V?$basic_string@DU?$char_traits@D@std@@V?$allocator@D@2@@std@@V?$allocator@V?$basic_string@DU?$char_traits@D@std@@V?$allocator@D@2@@std@@@2@@std@@QBEIXZ 0050f070 f i FileTransfer.obj
 0002:0005e090       ?_Destroy@?$vector@V?$basic_string@DU?$char_traits@D@std@@V?$allocator@D@2@@std@@V?$allocator@V?$basic_string@DU?$char_traits@D@std@@V?$allocator@D@2@@std@@@2@@std@@IAEXPAV?$basic_string@DU?$char_traits@D@std@@V?$allocator@D@2@@2@0@Z 0050f090 f i FileTransfer.obj
 0002:0005e0c0       ?_Grow_to@?$vector@V?$basic_string@DU?$char_traits@D@std@@V?$allocator@D@2@@std@@V?$allocator@V?$basic_string@DU?$char_traits@D@std@@V?$allocator@D@2@@std@@@2@@std@@IBEII@Z 0050f0c0 f i FileTransfer.obj
 0002:0005e130       ?_Xlen@?$vector@V?$basic_string@DU?$char_traits@D@std@@V?$allocator@D@2@@std@@V?$allocator@V?$basic_string@DU?$char_traits@D@std@@V?$allocator@D@2@@std@@@2@@std@@IBEXXZ 0050f130 f i FileTransfer.obj
 0002:0005e150       ??0?$allocator@V?$basic_string@DU?$char_traits@D@std@@V?$allocator@D@2@@std@@@std@@QAE@ABV01@@Z 0050f150 f i FileTransfer.obj
 0002:0005e170       ?deallocate@?$allocator@V?$basic_string@DU?$char_traits@D@std@@V?$allocator@D@2@@std@@@std@@QAEXPAV?$basic_string@DU?$char_traits@D@std@@V?$allocator@D@2@@2@I@Z 0050f170 f i FileTransfer.obj
 0002:0005e190       ??0?$_Vector_const_iterator@V?$_Vector_val@V?$basic_string@DU?$char_traits@D@std@@V?$allocator@D@2@@std@@V?$allocator@V?$basic_string@DU?$char_traits@D@std@@V?$allocator@D@2@@std@@@2@@std@@@std@@QAE@PAV?$basic_string@DU?$char_traits@D@std@@V?$allocator@D@2@@1@PBU_Container_base12@1@@Z 0050f190 f i FileTransfer.obj
 0002:0005e210       ??D?$_Vector_const_iterator@V?$_Vector_val@V?$basic_string@DU?$char_traits@D@std@@V?$allocator@D@2@@std@@V?$allocator@V?$basic_string@DU?$char_traits@D@std@@V?$allocator@D@2@@std@@@2@@std@@@std@@QBEABV?$basic_string@DU?$char_traits@D@std@@V?$allocator@D@2@@1@XZ 0050f210 f i FileTransfer.obj
 0002:0005e2f0       ?_Compat@?$_Vector_const_iterator@V?$_Vector_val@V?$basic_string@DU?$char_traits@D@std@@V?$allocator@D@2@@std@@V?$allocator@V?$basic_string@DU?$char_traits@D@std@@V?$allocator@D@2@@std@@@2@@std@@@std@@QBEXABV12@@Z 0050f2f0 f i FileTransfer.obj
 0002:0005e3b0       ??0?$_Iterator012@Ubidirectional_iterator_tag@std@@HHPBHABHU_Iterator_base12@2@@std@@QAE@XZ 0050f3b0 f i FileTransfer.obj
 0002:0005e3d0       ??0?$_Iterator012@Urandom_access_iterator_tag@std@@V?$basic_string@DU?$char_traits@D@std@@V?$allocator@D@2@@2@HPBV32@ABV32@U_Iterator_base12@2@@std@@QAE@XZ 0050f3d0 f i FileTransfer.obj
 0002:0005e3f0       ?append@?$basic_string@DU?$char_traits@D@std@@V?$allocator@D@2@@std@@QAEAAV12@ABV12@II@Z 0050f3f0 f i FileTransfer.obj
 0002:0005e4e0       ?max_size@?$list@HV?$allocator@H@std@@@std@@QBEIXZ 0050f4e0 f i FileTransfer.obj
 0002:0005e500       ??0?$_List_unchecked_const_iterator@V?$_List_val@HV?$allocator@H@std@@@std@@U_Iterator_base12@2@@std@@QAE@PAU_Node@?$_List_nod@HV?$allocator@H@std@@@1@PBV?$_List_val@HV?$allocator@H@std@@@1@@Z 0050f500 f i FileTransfer.obj
 0002:0005e580       ?allocate@?$allocator@V?$basic_string@DU?$char_traits@D@std@@V?$allocator@D@2@@std@@@std@@QAEPAV?$basic_string@DU?$char_traits@D@std@@V?$allocator@D@2@@2@I@Z 0050f580 f i FileTransfer.obj
 0002:0005e5b0       ?max_size@?$allocator@V?$basic_string@DU?$char_traits@D@std@@V?$allocator@D@2@@std@@@std@@QBEIXZ 0050f5b0 f i FileTransfer.obj
 0002:0005e5f0       ?max_size@?$allocator@H@std@@QBEIXZ 0050f5f0 f i FileTransfer.obj
 0002:0005e630       ??$strncpy_s@$0EA@@@YAHAAY0EA@DPBDI@Z 0050f630 f i FileTransfer.obj
 0002:0005e660       ??$SafeGetWindowUserData@VFileTransfer@@@helper@@YAPAVFileTransfer@@PAUHWND__@@@Z 0050f660 f i FileTransfer.obj
 0002:0005e680       ??$forward@V?$allocator@D@std@@@std@@YA$$QAV?$allocator@D@0@AAV10@@Z 0050f680 f i FileTransfer.obj
 0002:0005e690       ??$forward@V?$basic_string@DU?$char_traits@D@std@@V?$allocator@D@2@@std@@@std@@YA$$QAV?$basic_string@DU?$char_traits@D@std@@V?$allocator@D@2@@0@AAV10@@Z 0050f690 f i FileTransfer.obj
 0002:0005e6a0       ??$_Dest_val@V?$allocator@U_Node@?$_List_nod@HV?$allocator@H@std@@@std@@@std@@U_Node@?$_List_nod@HV?$allocator@H@std@@@2@@std@@YAXAAV?$allocator@U_Node@?$_List_nod@HV?$allocator@H@std@@@std@@@0@PAU_Node@?$_List_nod@HV?$allocator@H@std@@@0@@Z 0050f6a0 f i FileTransfer.obj
 0002:0005e6c0       ??$addressof@V?$basic_string@DU?$char_traits@D@std@@V?$allocator@D@2@@std@@@std@@YAPAV?$basic_string@DU?$char_traits@D@std@@V?$allocator@D@2@@0@AAV10@@Z 0050f6c0 f i FileTransfer.obj
 0002:0005e6d0       ??$_Cons_val@V?$allocator@V?$basic_string@DU?$char_traits@D@std@@V?$allocator@D@2@@std@@@std@@V?$basic_string@DU?$char_traits@D@std@@V?$allocator@D@2@@2@V32@@std@@YAXAAV?$allocator@V?$basic_string@DU?$char_traits@D@std@@V?$allocator@D@2@@std@@@0@PAV?$basic_string@DU?$char_traits@D@std@@V?$allocator@D@2@@0@$$QAV20@@Z 0050f6d0 f i FileTransfer.obj
 0002:0005e700       ??$?9DD@std@@YA_NABV?$allocator@D@0@0@Z 0050f700 f i FileTransfer.obj
 0002:0005e730       ??$?0V?$basic_string@DU?$char_traits@D@std@@V?$allocator@D@2@@std@@@?$allocator@U_Container_proxy@std@@@std@@QAE@ABV?$allocator@V?$basic_string@DU?$char_traits@D@std@@V?$allocator@D@2@@std@@@1@@Z 0050f730 f i FileTransfer.obj
 0002:0005e750       ??$addressof@H@std@@YAPAHAAH@Z 0050f750 f i FileTransfer.obj
 0002:0005e760       ??$_Cons_val@V?$allocator@H@std@@HABH@std@@YAXAAV?$allocator@H@0@PAHABH@Z 0050f760 f i FileTransfer.obj
 0002:0005e790       ??$?0H@?$allocator@U_Node@?$_List_nod@HV?$allocator@H@std@@@std@@@std@@QAE@ABV?$allocator@H@1@@Z 0050f790 f i FileTransfer.obj
 0002:0005e7b0       ??$?0U_Node@?$_List_nod@HV?$allocator@H@std@@@std@@@?$allocator@U_Container_proxy@std@@@std@@QAE@ABV?$allocator@U_Node@?$_List_nod@HV?$allocator@H@std@@@std@@@1@@Z 0050f7b0 f i FileTransfer.obj
 0002:0005e7d0       ??$_Allocate@U_Node@?$_List_nod@HV?$allocator@H@std@@@std@@@std@@YAPAU_Node@?$_List_nod@HV?$allocator@H@std@@@0@IPAU120@@Z 0050f7d0 f i FileTransfer.obj
 0002:0005e850       ??$_Umove@PAV?$basic_string@DU?$char_traits@D@std@@V?$allocator@D@2@@std@@@?$vector@V?$basic_string@DU?$char_traits@D@std@@V?$allocator@D@2@@std@@V?$allocator@V?$basic_string@DU?$char_traits@D@std@@V?$allocator@D@2@@std@@@2@@std@@IAEPAV?$basic_string@DU?$char_traits@D@std@@V?$allocator@D@2@@1@PAV21@00@Z 0050f850 f i FileTransfer.obj
 0002:0005e890       ??$_Destroy_range@V?$allocator@V?$basic_string@DU?$char_traits@D@std@@V?$allocator@D@2@@std@@@std@@@std@@YAXPAV?$basic_string@DU?$char_traits@D@std@@V?$allocator@D@2@@0@0AAV?$allocator@V?$basic_string@DU?$char_traits@D@std@@V?$allocator@D@2@@std@@@0@@Z 0050f890 f i FileTransfer.obj
 0002:0005e8e0       ??$_Allocate@V?$basic_string@DU?$char_traits@D@std@@V?$allocator@D@2@@std@@@std@@YAPAV?$basic_string@DU?$char_traits@D@std@@V?$allocator@D@2@@0@IPAV10@@Z 0050f8e0 f i FileTransfer.obj
 0002:0005e960       ?construct@?$allocator@H@std@@QAEXPAHABH@Z 0050f960 f i FileTransfer.obj
 0002:0005e990       ?destroy@?$allocator@U_Node@?$_List_nod@HV?$allocator@H@std@@@std@@@std@@QAEXPAU_Node@?$_List_nod@HV?$allocator@H@std@@@2@@Z 0050f990 f i FileTransfer.obj
 0002:0005e9b0       ?construct@?$allocator@V?$basic_string@DU?$char_traits@D@std@@V?$allocator@D@2@@std@@@std@@QAEXPAV?$basic_string@DU?$char_traits@D@std@@V?$allocator@D@2@@2@$$QAV32@@Z 0050f9b0 f i FileTransfer.obj
 0002:0005ea60       ??$?8DD@std@@YA_NABV?$allocator@D@0@0@Z 0050fa60 f i FileTransfer.obj
 0002:0005ea70       ??$forward@ABH@std@@YAABHABH@Z 0050fa70 f i FileTransfer.obj
 0002:0005ea80       ??$_Uninitialized_move@PAV?$basic_string@DU?$char_traits@D@std@@V?$allocator@D@2@@std@@PAV12@V?$allocator@V?$basic_string@DU?$char_traits@D@std@@V?$allocator@D@2@@std@@@2@@std@@YAPAV?$basic_string@DU?$char_traits@D@std@@V?$allocator@D@2@@0@PAV10@00AAV?$allocator@V?$basic_string@DU?$char_traits@D@std@@V?$allocator@D@2@@std@@@0@@Z 0050fa80 f i FileTransfer.obj
 0002:0005eae0       ??$_Ptr_cat@V?$basic_string@DU?$char_traits@D@std@@V?$allocator@D@2@@std@@V12@@std@@YA?AU_Nonscalar_ptr_iterator_tag@0@PAV?$basic_string@DU?$char_traits@D@std@@V?$allocator@D@2@@0@0@Z 0050fae0 f i FileTransfer.obj
 0002:0005eaf0       ??$_Destroy_range@V?$allocator@V?$basic_string@DU?$char_traits@D@std@@V?$allocator@D@2@@std@@@std@@@std@@YAXPAV?$basic_string@DU?$char_traits@D@std@@V?$allocator@D@2@@0@0AAV?$allocator@V?$basic_string@DU?$char_traits@D@std@@V?$allocator@D@2@@std@@@0@U_Nonscalar_ptr_iterator_tag@0@@Z 0050faf0 f i FileTransfer.obj
 0002:0005eb30       ??$_Construct@HABH@std@@YAXPAHABH@Z 0050fb30 f i FileTransfer.obj
 0002:0005ebe0       ??$_Destroy@U_Node@?$_List_nod@HV?$allocator@H@std@@@std@@@std@@YAXPAU_Node@?$_List_nod@HV?$allocator@H@std@@@0@@Z 0050fbe0 f i FileTransfer.obj
 0002:0005ebf0       ??$_Val_type@PAV?$basic_string@DU?$char_traits@D@std@@V?$allocator@D@2@@std@@@std@@YAPAV?$basic_string@DU?$char_traits@D@std@@V?$allocator@D@2@@0@PAV10@@Z 0050fbf0 f i FileTransfer.obj
 0002:0005ec00       ??$_Uninit_move@PAV?$basic_string@DU?$char_traits@D@std@@V?$allocator@D@2@@std@@PAV12@V?$allocator@V?$basic_string@DU?$char_traits@D@std@@V?$allocator@D@2@@std@@@2@V12@@std@@YAPAV?$basic_string@DU?$char_traits@D@std@@V?$allocator@D@2@@0@PAV10@00AAV?$allocator@V?$basic_string@DU?$char_traits@D@std@@V?$allocator@D@2@@std@@@0@0U_Nonscalar_ptr_iterator_tag@0@@Z 0050fc00 f i FileTransfer.obj
 0002:0005ed30       ??$_Dest_val@V?$allocator@V?$basic_string@DU?$char_traits@D@std@@V?$allocator@D@2@@std@@@std@@V?$basic_string@DU?$char_traits@D@std@@V?$allocator@D@2@@2@@std@@YAXAAV?$allocator@V?$basic_string@DU?$char_traits@D@std@@V?$allocator@D@2@@std@@@0@PAV?$basic_string@DU?$char_traits@D@std@@V?$allocator@D@2@@0@@Z 0050fd30 f i FileTransfer.obj
 0002:0005ed50       ?destroy@?$allocator@V?$basic_string@DU?$char_traits@D@std@@V?$allocator@D@2@@std@@@std@@QAEXPAV?$basic_string@DU?$char_traits@D@std@@V?$allocator@D@2@@2@@Z 0050fd50 f i FileTransfer.obj
 0002:0005ed70       ??$_Debug_range@PAV?$basic_string@DU?$char_traits@D@std@@V?$allocator@D@2@@std@@@std@@YAXPAV?$basic_string@DU?$char_traits@D@std@@V?$allocator@D@2@@0@0PB_WI@Z 0050fd70 f i FileTransfer.obj
 0002:0005edc0       ??$_Debug_pointer@V?$basic_string@DU?$char_traits@D@std@@V?$allocator@D@2@@std@@@std@@YAXPAV?$basic_string@DU?$char_traits@D@std@@V?$allocator@D@2@@0@PB_WI@Z 0050fdc0 f i FileTransfer.obj
 0002:0005edf0       ??$_Destroy@V?$basic_string@DU?$char_traits@D@std@@V?$allocator@D@2@@std@@@std@@YAXPAV?$basic_string@DU?$char_traits@D@std@@V?$allocator@D@2@@0@@Z 0050fdf0 f i FileTransfer.obj
 0002:0005ee10       ??_G?$basic_string@DU?$char_traits@D@std@@V?$allocator@D@2@@std@@QAEPAXI@Z 0050fe10 f i FileTransfer.obj
 0002:0005ee50       ??$_Iter_cat@PAV?$basic_string@DU?$char_traits@D@std@@V?$allocator@D@2@@std@@@std@@YA?AUrandom_access_iterator_tag@0@ABQAV?$basic_string@DU?$char_traits@D@std@@V?$allocator@D@2@@0@@Z 0050fe50 f i FileTransfer.obj
 0002:0005ee70       ??$_Debug_range2@PAV?$basic_string@DU?$char_traits@D@std@@V?$allocator@D@2@@std@@@std@@YAXPAV?$basic_string@DU?$char_traits@D@std@@V?$allocator@D@2@@0@0PB_WIUrandom_access_iterator_tag@0@@Z 0050fe70 f i FileTransfer.obj
 0002:0005eee0       _InitMultipleMonitorStubs  0050fee0 f   FullScreenTitleBar.obj
 0002:0005f090       _xGetSystemMetrics@4       00510090 f   FullScreenTitleBar.obj
 0002:0005f110       _xMonitorFromRect@8        00510110 f   FullScreenTitleBar.obj
 0002:0005f180       _xMonitorFromWindow@8      00510180 f   FullScreenTitleBar.obj
 0002:0005f1f0       _xMonitorFromPoint@12      005101f0 f   FullScreenTitleBar.obj
 0002:0005f250       _xGetMonitorInfo@8         00510250 f   FullScreenTitleBar.obj
 0002:0005f340       _xEnumDisplayMonitors@16   00510340 f   FullScreenTitleBar.obj
 0002:0005f480       _xEnumDisplayDevices@16    00510480 f   FullScreenTitleBar.obj
 0002:0005f4b0       ??0CTitleBar@@QAE@XZ       005104b0 f   FullScreenTitleBar.obj
 0002:0005f510       ??0CTitleBar@@QAE@PAUHINSTANCE__@@PAUHWND__@@@Z 00510510 f   FullScreenTitleBar.obj
 0002:0005f550       ??1CTitleBar@@UAE@XZ       00510550 f   FullScreenTitleBar.obj
 0002:0005f5e0       ?Init@CTitleBar@@AAEXXZ    005105e0 f   FullScreenTitleBar.obj
 0002:0005f6b0       ?Create@CTitleBar@@QAEXPAUHINSTANCE__@@PAUHWND__@@@Z 005106b0 f   FullScreenTitleBar.obj
 0002:0005f6e0       ?CreateDisplay@CTitleBar@@AAEXXZ 005106e0 f   FullScreenTitleBar.obj
 0002:0005f9a0       ?WndProc@CTitleBar@@CGJPAUHWND__@@IIJ@Z 005109a0 f   FullScreenTitleBar.obj
 0002:00060390       ?LoadPictures@CTitleBar@@AAEXXZ 00511390 f   FullScreenTitleBar.obj
 0002:00060420       ?FreePictures@CTitleBar@@AAEXXZ 00511420 f   FullScreenTitleBar.obj
 0002:00060470       ?Draw@CTitleBar@@AAEXXZ    00511470 f   FullScreenTitleBar.obj
 0002:00060890       ?SetText@CTitleBar@@QAEXPAD@Z 00511890 f   FullScreenTitleBar.obj
 0002:000608b0       ?DisplayWindow@CTitleBar@@QAEXHH@Z 005118b0 f   FullScreenTitleBar.obj
 0002:000609d0       ?MoveToMonitor@CTitleBar@@QAEXPAUHMONITOR__@@@Z 005119d0 f   FullScreenTitleBar.obj
 0002:00061170       ??_ECTitleBar@@UAEPAXI@Z   00512170 f i FullScreenTitleBar.obj
 0002:00061170       ??_GCTitleBar@@UAEPAXI@Z   00512170 f i FullScreenTitleBar.obj
 0002:000611b0       ??$SafeGetWindowUserData@VCTitleBar@@@helper@@YAPAVCTitleBar@@PAUHWND__@@@Z 005121b0 f i FullScreenTitleBar.obj
 0002:000611d0       ??0KeyMap@@QAE@XZ          005121d0 f   KeyMap.obj
 0002:00061450       ?SetKeyMapOption1@KeyMap@@QAEX_N@Z 00512450 f   KeyMap.obj
 0002:00061480       ?SetKeyMapOption2@KeyMap@@QAEX_N@Z 00512480 f   KeyMap.obj
 0002:000614a0       ?Reset@KeyMap@@QAEXXZ      005124a0 f   KeyMap.obj
 0002:00061550       ?ReleaseAllKeys@KeyMap@@QAEXPAVClientConnection@@@Z 00512550 f   KeyMap.obj
 0002:00061610       ?FlushDeadKey@KeyMap@@AAEXPAE@Z 00512610 f   KeyMap.obj
 0002:00061700       ?StoreModifier@KeyMap@@AAEXPAE0@Z 00512700 f   KeyMap.obj
 0002:00061770       ?SetModifier@KeyMap@@AAEXEPAE@Z 00512770 f   KeyMap.obj
 0002:00061910       ?BuildUCS2KS_Map@KeyMap@@AAEXXZ 00512910 f   KeyMap.obj
 0002:00063dd0       ?UCS2X@KeyMap@@AAEK_W@Z    00514dd0 f   KeyMap.obj
 0002:00065000       ?PCtoX@KeyMap@@QAEXEKPAVClientConnection@@@Z 00516000 f   KeyMap.obj
 0002:000657b0       ?releaseKey@KeyMap@@AAEXPAVClientConnection@@I@Z 005167b0 f   KeyMap.obj
 0002:00065840       ?pressKey@KeyMap@@AAEXPAVClientConnection@@IK@Z 00516840 f   KeyMap.obj
 0002:00066b00       ??0ModifierKeyReleaser@@QAE@PAVClientConnection@@E_N@Z 00517b00 f i KeyMap.obj
 0002:00066c90       ?release@ModifierKeyReleaser@@QAEXPAK@Z 00517c90 f i KeyMap.obj
 0002:00066d50       ??1ModifierKeyReleaser@@QAE@XZ 00517d50 f i KeyMap.obj
 0002:00066de0       ??0?$map@_WKU?$less@_W@std@@V?$allocator@U?$pair@$$CB_WK@std@@@2@@std@@QAE@XZ 00517de0 f i KeyMap.obj
 0002:00066e10       ??A?$map@_WKU?$less@_W@std@@V?$allocator@U?$pair@$$CB_WK@std@@@2@@std@@QAEAAKAB_W@Z 00517e10 f i KeyMap.obj
 0002:00066fe0       ?find@?$_Tree@V?$_Tmap_traits@_WKU?$less@_W@std@@V?$allocator@U?$pair@$$CB_WK@std@@@2@$0A@@std@@@std@@QAE?AV?$_Tree_iterator@V?$_Tree_val@V?$_Tmap_traits@_WKU?$less@_W@std@@V?$allocator@U?$pair@$$CB_WK@std@@@2@$0A@@std@@@std@@@2@AB_W@Z 00517fe0 f i KeyMap.obj
 0002:000671e0       ??0?$map@K_WU?$less@K@std@@V?$allocator@U?$pair@$$CBK_W@std@@@2@@std@@QAE@XZ 005181e0 f i KeyMap.obj
 0002:00067210       ??A?$map@K_WU?$less@K@std@@V?$allocator@U?$pair@$$CBK_W@std@@@2@@std@@QAEAA_WABK@Z 00518210 f i KeyMap.obj
 0002:000673e0       ??4?$_Tree_iterator@V?$_Tree_val@V?$_Tmap_traits@_WKU?$less@_W@std@@V?$allocator@U?$pair@$$CB_WK@std@@@2@$0A@@std@@@std@@@std@@QAEAAV01@ABV01@@Z 005183e0 f i KeyMap.obj
 0002:00067410       ??0?$_Tree_iterator@V?$_Tree_val@V?$_Tmap_traits@_WKU?$less@_W@std@@V?$allocator@U?$pair@$$CB_WK@std@@@2@$0A@@std@@@std@@@std@@QAE@ABV01@@Z 00518410 f i KeyMap.obj
 0002:00067440       ??4?$_Tree_iterator@V?$_Tree_val@V?$_Tmap_traits@K_WU?$less@K@std@@V?$allocator@U?$pair@$$CBK_W@std@@@2@$0A@@std@@@std@@@std@@QAEAAV01@ABV01@@Z 00518440 f i KeyMap.obj
 0002:00067470       ??4?$_Tree_const_iterator@V?$_Tree_val@V?$_Tmap_traits@_WKU?$less@_W@std@@V?$allocator@U?$pair@$$CB_WK@std@@@2@$0A@@std@@@std@@@std@@QAEAAV01@ABV01@@Z 00518470 f i KeyMap.obj
 0002:000674a0       ??4?$_Tree_const_iterator@V?$_Tree_val@V?$_Tmap_traits@K_WU?$less@K@std@@V?$allocator@U?$pair@$$CBK_W@std@@@2@$0A@@std@@@std@@@std@@QAEAAV01@ABV01@@Z 005184a0 f i KeyMap.obj
 0002:000674d0       ??4?$_Tree_unchecked_const_iterator@V?$_Tree_val@V?$_Tmap_traits@_WKU?$less@_W@std@@V?$allocator@U?$pair@$$CB_WK@std@@@2@$0A@@std@@@std@@U_Iterator_base12@2@@std@@QAEAAV01@ABV01@@Z 005184d0 f i KeyMap.obj
 0002:00067510       ??4?$_Tree_unchecked_const_iterator@V?$_Tree_val@V?$_Tmap_traits@K_WU?$less@K@std@@V?$allocator@U?$pair@$$CBK_W@std@@@2@$0A@@std@@@std@@U_Iterator_base12@2@@std@@QAEAAV01@ABV01@@Z 00518510 f i KeyMap.obj
 0002:00067550       ??4?$_Iterator012@Ubidirectional_iterator_tag@std@@U?$pair@$$CB_WK@2@HPBU32@ABU32@U_Iterator_base12@2@@std@@QAEAAU01@ABU01@@Z 00518550 f i KeyMap.obj
 0002:00067580       ??4?$_Iterator012@Ubidirectional_iterator_tag@std@@U?$pair@$$CBK_W@2@HPBU32@ABU32@U_Iterator_base12@2@@std@@QAEAAU01@ABU01@@Z 00518580 f i KeyMap.obj
 0002:000675b0       ??0?$_Tree@V?$_Tmap_traits@_WKU?$less@_W@std@@V?$allocator@U?$pair@$$CB_WK@std@@@2@$0A@@std@@@std@@QAE@ABU?$less@_W@1@ABV?$allocator@U?$pair@$$CB_WK@std@@@1@@Z 005185b0 f i KeyMap.obj
 0002:000675f0       ?lower_bound@?$_Tree@V?$_Tmap_traits@_WKU?$less@_W@std@@V?$allocator@U?$pair@$$CB_WK@std@@@2@$0A@@std@@@std@@QAE?AV?$_Tree_iterator@V?$_Tree_val@V?$_Tmap_traits@_WKU?$less@_W@std@@V?$allocator@U?$pair@$$CB_WK@std@@@2@$0A@@std@@@std@@@2@AB_W@Z 005185f0 f i KeyMap.obj
 0002:00067640       ?_Key@?$_Tree_val@V?$_Tmap_traits@_WKU?$less@_W@std@@V?$allocator@U?$pair@$$CB_WK@std@@@2@$0A@@std@@@std@@SAAA_WPAU_Node@?$_Tree_nod@V?$_Tmap_traits@_WKU?$less@_W@std@@V?$allocator@U?$pair@$$CB_WK@std@@@2@$0A@@std@@@2@@Z 00518640 f i KeyMap.obj
 0002:00067660       ??0?$allocator@U?$pair@$$CB_WK@std@@@std@@QAE@XZ 00518660 f i KeyMap.obj
 0002:00067680       ??R?$less@_W@std@@QBE_NAB_W0@Z 00518680 f i KeyMap.obj
 0002:000676b0       ??0?$_Tree@V?$_Tmap_traits@K_WU?$less@K@std@@V?$allocator@U?$pair@$$CBK_W@std@@@2@$0A@@std@@@std@@QAE@ABU?$less@K@1@ABV?$allocator@U?$pair@$$CBK_W@std@@@1@@Z 005186b0 f i KeyMap.obj
 0002:000676f0       ?lower_bound@?$_Tree@V?$_Tmap_traits@K_WU?$less@K@std@@V?$allocator@U?$pair@$$CBK_W@std@@@2@$0A@@std@@@std@@QAE?AV?$_Tree_iterator@V?$_Tree_val@V?$_Tmap_traits@K_WU?$less@K@std@@V?$allocator@U?$pair@$$CBK_W@std@@@2@$0A@@std@@@std@@@2@ABK@Z 005186f0 f i KeyMap.obj
 0002:00067740       ?_Key@?$_Tree_val@V?$_Tmap_traits@K_WU?$less@K@std@@V?$allocator@U?$pair@$$CBK_W@std@@@2@$0A@@std@@@std@@SAAAKPAU_Node@?$_Tree_nod@V?$_Tmap_traits@K_WU?$less@K@std@@V?$allocator@U?$pair@$$CBK_W@std@@@2@$0A@@std@@@2@@Z 00518740 f i KeyMap.obj
 0002:00067760       ??0?$allocator@U?$pair@$$CBK_W@std@@@std@@QAE@XZ 00518760 f i KeyMap.obj
 0002:00067780       ??R?$less@K@std@@QBE_NABK0@Z 00518780 f i KeyMap.obj
 0002:000677b0       ??D?$_Tree_iterator@V?$_Tree_val@V?$_Tmap_traits@_WKU?$less@_W@std@@V?$allocator@U?$pair@$$CB_WK@std@@@2@$0A@@std@@@std@@@std@@QBEAAU?$pair@$$CB_WK@1@XZ 005187b0 f i KeyMap.obj
 0002:000677d0       ??0?$pair@$$CB_WK@std@@QAE@AB_W$$QAK@Z 005187d0 f i KeyMap.obj
 0002:00067810       ??D?$_Tree_iterator@V?$_Tree_val@V?$_Tmap_traits@K_WU?$less@K@std@@V?$allocator@U?$pair@$$CBK_W@std@@@2@$0A@@std@@@std@@@std@@QBEAAU?$pair@$$CBK_W@1@XZ 00518810 f i KeyMap.obj
 0002:00067830       ??0?$pair@$$CBK_W@std@@QAE@ABK$$QA_W@Z 00518830 f i KeyMap.obj
 0002:00067870       ?_Lbound@?$_Tree@V?$_Tmap_traits@_WKU?$less@_W@std@@V?$allocator@U?$pair@$$CB_WK@std@@@2@$0A@@std@@@std@@IAEPAU_Node@?$_Tree_nod@V?$_Tmap_traits@_WKU?$less@_W@std@@V?$allocator@U?$pair@$$CB_WK@std@@@2@$0A@@std@@@2@AB_W@Z 00518870 f i KeyMap.obj
 0002:00067930       ??0?$_Tree_val@V?$_Tmap_traits@_WKU?$less@_W@std@@V?$allocator@U?$pair@$$CB_WK@std@@@2@$0A@@std@@@std@@QAE@ABU?$less@_W@1@V?$allocator@U?$pair@$$CB_WK@std@@@1@@Z 00518930 f i KeyMap.obj
 0002:00067a60       ??0?$allocator@U?$pair@$$CB_WK@std@@@std@@QAE@ABV01@@Z 00518a60 f i KeyMap.obj
 0002:00067a80       ?_Lbound@?$_Tree@V?$_Tmap_traits@K_WU?$less@K@std@@V?$allocator@U?$pair@$$CBK_W@std@@@2@$0A@@std@@@std@@IAEPAU_Node@?$_Tree_nod@V?$_Tmap_traits@K_WU?$less@K@std@@V?$allocator@U?$pair@$$CBK_W@std@@@2@$0A@@std@@@2@ABK@Z 00518a80 f i KeyMap.obj
 0002:00067b40       ??0?$_Tree_val@V?$_Tmap_traits@K_WU?$less@K@std@@V?$allocator@U?$pair@$$CBK_W@std@@@2@$0A@@std@@@std@@QAE@ABU?$less@K@1@V?$allocator@U?$pair@$$CBK_W@std@@@1@@Z 00518b40 f i KeyMap.obj
 0002:00067c70       ??0?$allocator@U?$pair@$$CBK_W@std@@@std@@QAE@ABV01@@Z 00518c70 f i KeyMap.obj
 0002:00067c90       ??D?$_Tree_const_iterator@V?$_Tree_val@V?$_Tmap_traits@_WKU?$less@_W@std@@V?$allocator@U?$pair@$$CB_WK@std@@@2@$0A@@std@@@std@@@std@@QBEABU?$pair@$$CB_WK@1@XZ 00518c90 f i KeyMap.obj
 0002:00067d60       ??0?$_Pair_base@$$CB_WK@std@@QAE@AB_W$$QAK@Z 00518d60 f i KeyMap.obj
 0002:00067da0       ??D?$_Tree_const_iterator@V?$_Tree_val@V?$_Tmap_traits@K_WU?$less@K@std@@V?$allocator@U?$pair@$$CBK_W@std@@@2@$0A@@std@@@std@@@std@@QBEABU?$pair@$$CBK_W@1@XZ 00518da0 f i KeyMap.obj
 0002:00067e70       ??0?$_Pair_base@$$CBK_W@std@@QAE@ABK$$QA_W@Z 00518e70 f i KeyMap.obj
 0002:00067eb0       ??0?$_Tree_nod@V?$_Tmap_traits@_WKU?$less@_W@std@@V?$allocator@U?$pair@$$CB_WK@std@@@2@$0A@@std@@@std@@QAE@ABU?$less@_W@1@V?$allocator@U?$pair@$$CB_WK@std@@@1@@Z 00518eb0 f i KeyMap.obj
 0002:00067fa0       ?allocate@?$allocator@U_Node@?$_Tree_nod@V?$_Tmap_traits@_WKU?$less@_W@std@@V?$allocator@U?$pair@$$CB_WK@std@@@2@$0A@@std@@@std@@@std@@QAEPAU_Node@?$_Tree_nod@V?$_Tmap_traits@_WKU?$less@_W@std@@V?$allocator@U?$pair@$$CB_WK@std@@@2@$0A@@std@@@2@I@Z 00518fa0 f i KeyMap.obj
 0002:00067fd0       ??0?$_Tree_nod@V?$_Tmap_traits@K_WU?$less@K@std@@V?$allocator@U?$pair@$$CBK_W@std@@@2@$0A@@std@@@std@@QAE@ABU?$less@K@1@V?$allocator@U?$pair@$$CBK_W@std@@@1@@Z 00518fd0 f i KeyMap.obj
 0002:000680c0       ?allocate@?$allocator@U_Node@?$_Tree_nod@V?$_Tmap_traits@K_WU?$less@K@std@@V?$allocator@U?$pair@$$CBK_W@std@@@2@$0A@@std@@@std@@@std@@QAEPAU_Node@?$_Tree_nod@V?$_Tmap_traits@K_WU?$less@K@std@@V?$allocator@U?$pair@$$CBK_W@std@@@2@$0A@@std@@@2@I@Z 005190c0 f i KeyMap.obj
 0002:000680f0       ??0?$_Tmap_traits@_WKU?$less@_W@std@@V?$allocator@U?$pair@$$CB_WK@std@@@2@$0A@@std@@QAE@U?$less@_W@1@@Z 005190f0 f i KeyMap.obj
 0002:00068110       ??0?$_Tmap_traits@K_WU?$less@K@std@@V?$allocator@U?$pair@$$CBK_W@std@@@2@$0A@@std@@QAE@U?$less@K@1@@Z 00519110 f i KeyMap.obj
 0002:00068130       ??$insert@U?$pair@$$CB_WK@std@@@?$_Tree@V?$_Tmap_traits@_WKU?$less@_W@std@@V?$allocator@U?$pair@$$CB_WK@std@@@2@$0A@@std@@@std@@QAE?AV?$_Tree_iterator@V?$_Tree_val@V?$_Tmap_traits@_WKU?$less@_W@std@@V?$allocator@U?$pair@$$CB_WK@std@@@2@$0A@@std@@@std@@@1@V?$_Tree_const_iterator@V?$_Tree_val@V?$_Tmap_traits@_WKU?$less@_W@std@@V?$allocator@U?$pair@$$CB_WK@std@@@2@$0A@@std@@@std@@@1@$$QAU?$pair@$$CB_WK@1@@Z 00519130 f i KeyMap.obj
 0002:000681f0       ??$_Debug_lt_pred@U?$less@_W@std@@_W_W@std@@YA_NU?$less@_W@0@AB_WAA_WPB_WI@Z 005191f0 f i KeyMap.obj
 0002:00068260       ??$insert@U?$pair@$$CBK_W@std@@@?$_Tree@V?$_Tmap_traits@K_WU?$less@K@std@@V?$allocator@U?$pair@$$CBK_W@std@@@2@$0A@@std@@@std@@QAE?AV?$_Tree_iterator@V?$_Tree_val@V?$_Tmap_traits@K_WU?$less@K@std@@V?$allocator@U?$pair@$$CBK_W@std@@@2@$0A@@std@@@std@@@1@V?$_Tree_const_iterator@V?$_Tree_val@V?$_Tmap_traits@K_WU?$less@K@std@@V?$allocator@U?$pair@$$CBK_W@std@@@2@$0A@@std@@@std@@@1@$$QAU?$pair@$$CBK_W@1@@Z 00519260 f i KeyMap.obj
 0002:00068320       ??$_Kfn@$$CB_WK@?$_Tmap_traits@_WKU?$less@_W@std@@V?$allocator@U?$pair@$$CB_WK@std@@@2@$0A@@std@@SAAB_WABU?$pair@$$CB_WK@1@@Z 00519320 f i KeyMap.obj
 0002:00068330       ??$_Kfn@$$CBK_W@?$_Tmap_traits@K_WU?$less@K@std@@V?$allocator@U?$pair@$$CBK_W@std@@@2@$0A@@std@@SAABKABU?$pair@$$CBK_W@1@@Z 00519330 f i KeyMap.obj
 0002:00068340       ??$move@AAK@std@@YA$$QAKAAK@Z 00519340 f i KeyMap.obj
 0002:00068350       ??$move@AA_W@std@@YA$$QA_WAA_W@Z 00519350 f i KeyMap.obj
 0002:00068360       ??$_Debug_lt_pred@U?$less@_W@std@@_W_W@std@@YA_NU?$less@_W@0@AA_WAB_WPB_WI@Z 00519360 f i KeyMap.obj
 0002:000683d0       ??$_Debug_lt_pred@U?$less@K@std@@KK@std@@YA_NU?$less@K@0@AAKABKPB_WI@Z 005193d0 f i KeyMap.obj
 0002:00068440       ??$?0U?$pair@$$CB_WK@std@@@?$allocator@U_Node@?$_Tree_nod@V?$_Tmap_traits@_WKU?$less@_W@std@@V?$allocator@U?$pair@$$CB_WK@std@@@2@$0A@@std@@@std@@@std@@QAE@ABV?$allocator@U?$pair@$$CB_WK@std@@@1@@Z 00519440 f i KeyMap.obj
 0002:00068460       ??$_Allocate@U_Node@?$_Tree_nod@V?$_Tmap_traits@_WKU?$less@_W@std@@V?$allocator@U?$pair@$$CB_WK@std@@@2@$0A@@std@@@std@@@std@@YAPAU_Node@?$_Tree_nod@V?$_Tmap_traits@_WKU?$less@_W@std@@V?$allocator@U?$pair@$$CB_WK@std@@@2@$0A@@std@@@0@IPAU120@@Z 00519460 f i KeyMap.obj
 0002:000684e0       ??$?0U?$pair@$$CBK_W@std@@@?$allocator@U_Node@?$_Tree_nod@V?$_Tmap_traits@K_WU?$less@K@std@@V?$allocator@U?$pair@$$CBK_W@std@@@2@$0A@@std@@@std@@@std@@QAE@ABV?$allocator@U?$pair@$$CBK_W@std@@@1@@Z 005194e0 f i KeyMap.obj
 0002:00068500       ??$_Allocate@U_Node@?$_Tree_nod@V?$_Tmap_traits@K_WU?$less@K@std@@V?$allocator@U?$pair@$$CBK_W@std@@@2@$0A@@std@@@std@@@std@@YAPAU_Node@?$_Tree_nod@V?$_Tmap_traits@K_WU?$less@K@std@@V?$allocator@U?$pair@$$CBK_W@std@@@2@$0A@@std@@@0@IPAU120@@Z 00519500 f i KeyMap.obj
 0002:00068580       ?_Insert@?$_Tree@V?$_Tmap_traits@_WKU?$less@_W@std@@V?$allocator@U?$pair@$$CB_WK@std@@@2@$0A@@std@@@std@@QAE?AV?$_Tree_iterator@V?$_Tree_val@V?$_Tmap_traits@_WKU?$less@_W@std@@V?$allocator@U?$pair@$$CB_WK@std@@@2@$0A@@std@@@std@@@2@V?$_Tree_const_iterator@V?$_Tree_val@V?$_Tmap_traits@_WKU?$less@_W@std@@V?$allocator@U?$pair@$$CB_WK@std@@@2@$0A@@std@@@std@@@2@PAU_Node@?$_Tree_nod@V?$_Tmap_traits@_WKU?$less@_W@std@@V?$allocator@U?$pair@$$CB_WK@std@@@2@$0A@@std@@@2@@Z 00519580 f i KeyMap.obj
 0002:00069450       ?_Insert@?$_Tree@V?$_Tmap_traits@K_WU?$less@K@std@@V?$allocator@U?$pair@$$CBK_W@std@@@2@$0A@@std@@@std@@QAE?AV?$_Tree_iterator@V?$_Tree_val@V?$_Tmap_traits@K_WU?$less@K@std@@V?$allocator@U?$pair@$$CBK_W@std@@@2@$0A@@std@@@std@@@2@V?$_Tree_const_iterator@V?$_Tree_val@V?$_Tmap_traits@K_WU?$less@K@std@@V?$allocator@U?$pair@$$CBK_W@std@@@2@$0A@@std@@@std@@@2@PAU_Node@?$_Tree_nod@V?$_Tmap_traits@K_WU?$less@K@std@@V?$allocator@U?$pair@$$CBK_W@std@@@2@$0A@@std@@@2@@Z 0051a450 f i KeyMap.obj
 0002:0006a320       ??1?$pair@V?$_Tree_iterator@V?$_Tree_val@V?$_Tmap_traits@_WKU?$less@_W@std@@V?$allocator@U?$pair@$$CB_WK@std@@@2@$0A@@std@@@std@@@std@@_N@std@@QAE@XZ 0051b320 f i KeyMap.obj
 0002:0006a340       ??1?$pair@V?$_Tree_iterator@V?$_Tree_val@V?$_Tmap_traits@K_WU?$less@K@std@@V?$allocator@U?$pair@$$CBK_W@std@@@2@$0A@@std@@@std@@@std@@_N@std@@QAE@XZ 0051b340 f i KeyMap.obj
 0002:0006a360       ??0?$_Tree_iterator@V?$_Tree_val@V?$_Tmap_traits@K_WU?$less@K@std@@V?$allocator@U?$pair@$$CBK_W@std@@@2@$0A@@std@@@std@@@std@@QAE@ABV01@@Z 0051b360 f i KeyMap.obj
 0002:0006a390       ??1?$_Pair_base@V?$_Tree_iterator@V?$_Tree_val@V?$_Tmap_traits@_WKU?$less@_W@std@@V?$allocator@U?$pair@$$CB_WK@std@@@2@$0A@@std@@@std@@@std@@_N@std@@QAE@XZ 0051b390 f i KeyMap.obj
 0002:0006a3b0       ??1?$_Pair_base@V?$_Tree_iterator@V?$_Tree_val@V?$_Tmap_traits@K_WU?$less@K@std@@V?$allocator@U?$pair@$$CBK_W@std@@@2@$0A@@std@@@std@@@std@@_N@std@@QAE@XZ 0051b3b0 f i KeyMap.obj
 0002:0006a3d0       ?size@?$_Tree@V?$_Tmap_traits@_WKU?$less@_W@std@@V?$allocator@U?$pair@$$CB_WK@std@@@2@$0A@@std@@@std@@QBEIXZ 0051b3d0 f i KeyMap.obj
 0002:0006a3f0       ?_Linsert@?$_Tree@V?$_Tmap_traits@_WKU?$less@_W@std@@V?$allocator@U?$pair@$$CB_WK@std@@@2@$0A@@std@@@std@@QAE?AU?$pair@V?$_Tree_iterator@V?$_Tree_val@V?$_Tmap_traits@_WKU?$less@_W@std@@V?$allocator@U?$pair@$$CB_WK@std@@@2@$0A@@std@@@std@@@std@@_N@2@PAU_Node@?$_Tree_nod@V?$_Tmap_traits@_WKU?$less@_W@std@@V?$allocator@U?$pair@$$CB_WK@std@@@2@$0A@@std@@@2@_N@Z 0051b3f0 f i KeyMap.obj
 0002:0006a880       ?_Insert@?$_Tree@V?$_Tmap_traits@_WKU?$less@_W@std@@V?$allocator@U?$pair@$$CB_WK@std@@@2@$0A@@std@@@std@@IAE?AV?$_Tree_iterator@V?$_Tree_val@V?$_Tmap_traits@_WKU?$less@_W@std@@V?$allocator@U?$pair@$$CB_WK@std@@@2@$0A@@std@@@std@@@2@_NPAU_Node@?$_Tree_nod@V?$_Tmap_traits@_WKU?$less@_W@std@@V?$allocator@U?$pair@$$CB_WK@std@@@2@$0A@@std@@@2@1@Z 0051b880 f i KeyMap.obj
 0002:0006ade0       ?size@?$_Tree@V?$_Tmap_traits@K_WU?$less@K@std@@V?$allocator@U?$pair@$$CBK_W@std@@@2@$0A@@std@@@std@@QBEIXZ 0051bde0 f i KeyMap.obj
 0002:0006ae00       ?_Linsert@?$_Tree@V?$_Tmap_traits@K_WU?$less@K@std@@V?$allocator@U?$pair@$$CBK_W@std@@@2@$0A@@std@@@std@@QAE?AU?$pair@V?$_Tree_iterator@V?$_Tree_val@V?$_Tmap_traits@K_WU?$less@K@std@@V?$allocator@U?$pair@$$CBK_W@std@@@2@$0A@@std@@@std@@@std@@_N@2@PAU_Node@?$_Tree_nod@V?$_Tmap_traits@K_WU?$less@K@std@@V?$allocator@U?$pair@$$CBK_W@std@@@2@$0A@@std@@@2@_N@Z 0051be00 f i KeyMap.obj
 0002:0006b290       ?_Insert@?$_Tree@V?$_Tmap_traits@K_WU?$less@K@std@@V?$allocator@U?$pair@$$CBK_W@std@@@2@$0A@@std@@@std@@IAE?AV?$_Tree_iterator@V?$_Tree_val@V?$_Tmap_traits@K_WU?$less@K@std@@V?$allocator@U?$pair@$$CBK_W@std@@@2@$0A@@std@@@std@@@2@_NPAU_Node@?$_Tree_nod@V?$_Tmap_traits@K_WU?$less@K@std@@V?$allocator@U?$pair@$$CBK_W@std@@@2@$0A@@std@@@2@1@Z 0051c290 f i KeyMap.obj
 0002:0006b7f0       ??0?$_Tree_const_iterator@V?$_Tree_val@V?$_Tmap_traits@_WKU?$less@_W@std@@V?$allocator@U?$pair@$$CB_WK@std@@@2@$0A@@std@@@std@@@std@@QAE@XZ 0051c7f0 f i KeyMap.obj
 0002:0006b810       ??F?$_Tree_const_iterator@V?$_Tree_val@V?$_Tmap_traits@_WKU?$less@_W@std@@V?$allocator@U?$pair@$$CB_WK@std@@@2@$0A@@std@@@std@@@std@@QAEAAV01@XZ 0051c810 f i KeyMap.obj
 0002:0006b960       ??0?$_Tree_const_iterator@V?$_Tree_val@V?$_Tmap_traits@K_WU?$less@K@std@@V?$allocator@U?$pair@$$CBK_W@std@@@2@$0A@@std@@@std@@@std@@QAE@XZ 0051c960 f i KeyMap.obj
 0002:0006b980       ??F?$_Tree_const_iterator@V?$_Tree_val@V?$_Tmap_traits@K_WU?$less@K@std@@V?$allocator@U?$pair@$$CBK_W@std@@@2@$0A@@std@@@std@@@std@@QAEAAV01@XZ 0051c980 f i KeyMap.obj
 0002:0006bad0       ?max_size@?$_Tree@V?$_Tmap_traits@_WKU?$less@_W@std@@V?$allocator@U?$pair@$$CB_WK@std@@@2@$0A@@std@@@std@@QBEIXZ 0051cad0 f i KeyMap.obj
 0002:0006baf0       ?max_size@?$_Tree@V?$_Tmap_traits@K_WU?$less@K@std@@V?$allocator@U?$pair@$$CBK_W@std@@@2@$0A@@std@@@std@@QBEIXZ 0051caf0 f i KeyMap.obj
 0002:0006bb10       ??F?$_Tree_iterator@V?$_Tree_val@V?$_Tmap_traits@_WKU?$less@_W@std@@V?$allocator@U?$pair@$$CB_WK@std@@@2@$0A@@std@@@std@@@std@@QAEAAV01@XZ 0051cb10 f i KeyMap.obj
 0002:0006bb30       ??0?$_Tree_unchecked_const_iterator@V?$_Tree_val@V?$_Tmap_traits@_WKU?$less@_W@std@@V?$allocator@U?$pair@$$CB_WK@std@@@2@$0A@@std@@@std@@U_Iterator_base12@2@@std@@QAE@XZ 0051cb30 f i KeyMap.obj
 0002:0006bb60       ??F?$_Tree_unchecked_const_iterator@V?$_Tree_val@V?$_Tmap_traits@_WKU?$less@_W@std@@V?$allocator@U?$pair@$$CB_WK@std@@@2@$0A@@std@@@std@@U_Iterator_base12@2@@std@@QAEAAV01@XZ 0051cb60 f i KeyMap.obj
 0002:0006bc90       ??F?$_Tree_iterator@V?$_Tree_val@V?$_Tmap_traits@K_WU?$less@K@std@@V?$allocator@U?$pair@$$CBK_W@std@@@2@$0A@@std@@@std@@@std@@QAEAAV01@XZ 0051cc90 f i KeyMap.obj
 0002:0006bcb0       ??0?$_Tree_unchecked_const_iterator@V?$_Tree_val@V?$_Tmap_traits@K_WU?$less@K@std@@V?$allocator@U?$pair@$$CBK_W@std@@@2@$0A@@std@@@std@@U_Iterator_base12@2@@std@@QAE@XZ 0051ccb0 f i KeyMap.obj
 0002:0006bce0       ??F?$_Tree_unchecked_const_iterator@V?$_Tree_val@V?$_Tmap_traits@K_WU?$less@K@std@@V?$allocator@U?$pair@$$CBK_W@std@@@2@$0A@@std@@@std@@U_Iterator_base12@2@@std@@QAEAAV01@XZ 0051cce0 f i KeyMap.obj
 0002:0006be10       ??0?$pair@V?$_Tree_iterator@V?$_Tree_val@V?$_Tmap_traits@_WKU?$less@_W@std@@V?$allocator@U?$pair@$$CB_WK@std@@@2@$0A@@std@@@std@@@std@@_N@std@@QAE@$$QAV?$_Tree_iterator@V?$_Tree_val@V?$_Tmap_traits@_WKU?$less@_W@std@@V?$allocator@U?$pair@$$CB_WK@std@@@2@$0A@@std@@@std@@@1@$$QA_N@Z 0051ce10 f i KeyMap.obj
 0002:0006be50       ??0?$pair@V?$_Tree_iterator@V?$_Tree_val@V?$_Tmap_traits@K_WU?$less@K@std@@V?$allocator@U?$pair@$$CBK_W@std@@@2@$0A@@std@@@std@@@std@@_N@std@@QAE@$$QAV?$_Tree_iterator@V?$_Tree_val@V?$_Tmap_traits@K_WU?$less@K@std@@V?$allocator@U?$pair@$$CBK_W@std@@@2@$0A@@std@@@std@@@1@$$QA_N@Z 0051ce50 f i KeyMap.obj
 0002:0006be90       ?max_size@?$allocator@U?$pair@$$CB_WK@std@@@std@@QBEIXZ 0051ce90 f i KeyMap.obj
 0002:0006bed0       ?max_size@?$allocator@U?$pair@$$CBK_W@std@@@std@@QBEIXZ 0051ced0 f i KeyMap.obj
 0002:0006bf10       ??0?$_Pair_base@V?$_Tree_iterator@V?$_Tree_val@V?$_Tmap_traits@_WKU?$less@_W@std@@V?$allocator@U?$pair@$$CB_WK@std@@@2@$0A@@std@@@std@@@std@@_N@std@@QAE@$$QAV?$_Tree_iterator@V?$_Tree_val@V?$_Tmap_traits@_WKU?$less@_W@std@@V?$allocator@U?$pair@$$CB_WK@std@@@2@$0A@@std@@@std@@@1@$$QA_N@Z 0051cf10 f i KeyMap.obj
 0002:0006bfa0       ??0?$_Pair_base@V?$_Tree_iterator@V?$_Tree_val@V?$_Tmap_traits@K_WU?$less@K@std@@V?$allocator@U?$pair@$$CBK_W@std@@@2@$0A@@std@@@std@@@std@@_N@std@@QAE@$$QAV?$_Tree_iterator@V?$_Tree_val@V?$_Tmap_traits@K_WU?$less@K@std@@V?$allocator@U?$pair@$$CBK_W@std@@@2@$0A@@std@@@std@@@1@$$QA_N@Z 0051cfa0 f i KeyMap.obj
 0002:0006c030       ??$forward@U?$pair@$$CB_WK@std@@@std@@YA$$QAU?$pair@$$CB_WK@0@AAU10@@Z 0051d030 f i KeyMap.obj
 0002:0006c040       ??$_Buynode@U?$pair@$$CB_WK@std@@@?$_Tree_val@V?$_Tmap_traits@_WKU?$less@_W@std@@V?$allocator@U?$pair@$$CB_WK@std@@@2@$0A@@std@@@std@@QAEPAU_Node@?$_Tree_nod@V?$_Tmap_traits@_WKU?$less@_W@std@@V?$allocator@U?$pair@$$CB_WK@std@@@2@$0A@@std@@@1@$$QAU?$pair@$$CB_WK@1@@Z 0051d040 f i KeyMap.obj
 0002:0006c140       ??$forward@U?$pair@$$CBK_W@std@@@std@@YA$$QAU?$pair@$$CBK_W@0@AAU10@@Z 0051d140 f i KeyMap.obj
 0002:0006c150       ??$_Buynode@U?$pair@$$CBK_W@std@@@?$_Tree_val@V?$_Tmap_traits@K_WU?$less@K@std@@V?$allocator@U?$pair@$$CBK_W@std@@@2@$0A@@std@@@std@@QAEPAU_Node@?$_Tree_nod@V?$_Tmap_traits@K_WU?$less@K@std@@V?$allocator@U?$pair@$$CBK_W@std@@@2@$0A@@std@@@1@$$QAU?$pair@$$CBK_W@1@@Z 0051d150 f i KeyMap.obj
 0002:0006c250       ??$_Debug_lt_pred@U?$less@K@std@@KK@std@@YA_NU?$less@K@0@ABKAAKPB_WI@Z 0051d250 f i KeyMap.obj
 0002:0006c2c0       ??$?0AAV?$_Tree_iterator@V?$_Tree_val@V?$_Tmap_traits@_WKU?$less@_W@std@@V?$allocator@U?$pair@$$CB_WK@std@@@2@$0A@@std@@@std@@@std@@_N@?$pair@V?$_Tree_iterator@V?$_Tree_val@V?$_Tmap_traits@_WKU?$less@_W@std@@V?$allocator@U?$pair@$$CB_WK@std@@@2@$0A@@std@@@std@@@std@@_N@std@@QAE@AAV?$_Tree_iterator@V?$_Tree_val@V?$_Tmap_traits@_WKU?$less@_W@std@@V?$allocator@U?$pair@$$CB_WK@std@@@2@$0A@@std@@@std@@@1@$$QA_N@Z 0051d2c0 f i KeyMap.obj
 0002:0006c300       ??$?0AAV?$_Tree_iterator@V?$_Tree_val@V?$_Tmap_traits@K_WU?$less@K@std@@V?$allocator@U?$pair@$$CBK_W@std@@@2@$0A@@std@@@std@@@std@@_N@?$pair@V?$_Tree_iterator@V?$_Tree_val@V?$_Tmap_traits@K_WU?$less@K@std@@V?$allocator@U?$pair@$$CBK_W@std@@@2@$0A@@std@@@std@@@std@@_N@std@@QAE@AAV?$_Tree_iterator@V?$_Tree_val@V?$_Tmap_traits@K_WU?$less@K@std@@V?$allocator@U?$pair@$$CBK_W@std@@@2@$0A@@std@@@std@@@1@$$QA_N@Z 0051d300 f i KeyMap.obj
 0002:0006c340       ??$move@AAV?$_Tree_iterator@V?$_Tree_val@V?$_Tmap_traits@_WKU?$less@_W@std@@V?$allocator@U?$pair@$$CB_WK@std@@@2@$0A@@std@@@std@@@std@@@std@@YA$$QAV?$_Tree_iterator@V?$_Tree_val@V?$_Tmap_traits@_WKU?$less@_W@std@@V?$allocator@U?$pair@$$CB_WK@std@@@2@$0A@@std@@@std@@@0@AAV10@@Z 0051d340 f i KeyMap.obj
 0002:0006c350       ??$move@AA_N@std@@YA$$QA_NAA_N@Z 0051d350 f i KeyMap.obj
 0002:0006c360       ??$move@AAV?$_Tree_iterator@V?$_Tree_val@V?$_Tmap_traits@K_WU?$less@K@std@@V?$allocator@U?$pair@$$CBK_W@std@@@2@$0A@@std@@@std@@@std@@@std@@YA$$QAV?$_Tree_iterator@V?$_Tree_val@V?$_Tmap_traits@K_WU?$less@K@std@@V?$allocator@U?$pair@$$CBK_W@std@@@2@$0A@@std@@@std@@@0@AAV10@@Z 0051d360 f i KeyMap.obj
 0002:0006c370       ?_Buynode@?$_Tree_val@V?$_Tmap_traits@_WKU?$less@_W@std@@V?$allocator@U?$pair@$$CB_WK@std@@@2@$0A@@std@@@std@@QAEPAU_Node@?$_Tree_nod@V?$_Tmap_traits@_WKU?$less@_W@std@@V?$allocator@U?$pair@$$CB_WK@std@@@2@$0A@@std@@@2@XZ 0051d370 f i KeyMap.obj
 0002:0006c410       ?_Buynode@?$_Tree_val@V?$_Tmap_traits@K_WU?$less@K@std@@V?$allocator@U?$pair@$$CBK_W@std@@@2@$0A@@std@@@std@@QAEPAU_Node@?$_Tree_nod@V?$_Tmap_traits@K_WU?$less@K@std@@V?$allocator@U?$pair@$$CBK_W@std@@@2@$0A@@std@@@2@XZ 0051d410 f i KeyMap.obj
 0002:0006c4b0       ??$_Cons_val@V?$allocator@U?$pair@$$CB_WK@std@@@std@@U?$pair@$$CB_WK@2@U32@@std@@YAXAAV?$allocator@U?$pair@$$CB_WK@std@@@0@PAU?$pair@$$CB_WK@0@$$QAU20@@Z 0051d4b0 f i KeyMap.obj
 0002:0006c4e0       ??$_Cons_val@V?$allocator@U?$pair@$$CBK_W@std@@@std@@U?$pair@$$CBK_W@2@U32@@std@@YAXAAV?$allocator@U?$pair@$$CBK_W@std@@@0@PAU?$pair@$$CBK_W@0@$$QAU20@@Z 0051d4e0 f i KeyMap.obj
 0002:0006c510       ??$forward@AAV?$_Tree_iterator@V?$_Tree_val@V?$_Tmap_traits@_WKU?$less@_W@std@@V?$allocator@U?$pair@$$CB_WK@std@@@2@$0A@@std@@@std@@@std@@@std@@YAAAV?$_Tree_iterator@V?$_Tree_val@V?$_Tmap_traits@_WKU?$less@_W@std@@V?$allocator@U?$pair@$$CB_WK@std@@@2@$0A@@std@@@std@@@0@AAV10@@Z 0051d510 f i KeyMap.obj
 0002:0006c520       ??$forward@_N@std@@YA$$QA_NAA_N@Z 0051d520 f i KeyMap.obj
 0002:0006c530       ??$?0AAV?$_Tree_iterator@V?$_Tree_val@V?$_Tmap_traits@_WKU?$less@_W@std@@V?$allocator@U?$pair@$$CB_WK@std@@@2@$0A@@std@@@std@@@std@@_N@?$_Pair_base@V?$_Tree_iterator@V?$_Tree_val@V?$_Tmap_traits@_WKU?$less@_W@std@@V?$allocator@U?$pair@$$CB_WK@std@@@2@$0A@@std@@@std@@@std@@_N@std@@QAE@AAV?$_Tree_iterator@V?$_Tree_val@V?$_Tmap_traits@_WKU?$less@_W@std@@V?$allocator@U?$pair@$$CB_WK@std@@@2@$0A@@std@@@std@@@1@$$QA_N@Z 0051d530 f i KeyMap.obj
 0002:0006c5c0       ??$forward@AAV?$_Tree_iterator@V?$_Tree_val@V?$_Tmap_traits@K_WU?$less@K@std@@V?$allocator@U?$pair@$$CBK_W@std@@@2@$0A@@std@@@std@@@std@@@std@@YAAAV?$_Tree_iterator@V?$_Tree_val@V?$_Tmap_traits@K_WU?$less@K@std@@V?$allocator@U?$pair@$$CBK_W@std@@@2@$0A@@std@@@std@@@0@AAV10@@Z 0051d5c0 f i KeyMap.obj
 0002:0006c5d0       ??$?0AAV?$_Tree_iterator@V?$_Tree_val@V?$_Tmap_traits@K_WU?$less@K@std@@V?$allocator@U?$pair@$$CBK_W@std@@@2@$0A@@std@@@std@@@std@@_N@?$_Pair_base@V?$_Tree_iterator@V?$_Tree_val@V?$_Tmap_traits@K_WU?$less@K@std@@V?$allocator@U?$pair@$$CBK_W@std@@@2@$0A@@std@@@std@@@std@@_N@std@@QAE@AAV?$_Tree_iterator@V?$_Tree_val@V?$_Tmap_traits@K_WU?$less@K@std@@V?$allocator@U?$pair@$$CBK_W@std@@@2@$0A@@std@@@std@@@1@$$QA_N@Z 0051d5d0 f i KeyMap.obj
 0002:0006c660       ?construct@?$allocator@U?$pair@$$CB_WK@std@@@std@@QAEXPAU?$pair@$$CB_WK@2@$$QAU32@@Z 0051d660 f i KeyMap.obj
 0002:0006c710       ?construct@?$allocator@U?$pair@$$CBK_W@std@@@std@@QAEXPAU?$pair@$$CBK_W@2@$$QAU32@@Z 0051d710 f i KeyMap.obj
 0002:0006c7c0       ??$?0$$CB_WK@?$pair@$$CB_WK@std@@QAE@$$QAU01@@Z 0051d7c0 f i KeyMap.obj
 0002:0006c810       ??$?0$$CBK_W@?$pair@$$CBK_W@std@@QAE@$$QAU01@@Z 0051d810 f i KeyMap.obj
 0002:0006c860       ??0?$_Pair_base@$$CB_WK@std@@QAE@$$QB_W$$QAK@Z 0051d860 f i KeyMap.obj
 0002:0006c8b0       ??0?$_Pair_base@$$CBK_W@std@@QAE@$$QBK$$QA_W@Z 0051d8b0 f i KeyMap.obj
 0002:0006c900       ??$forward@$$CB_W@std@@YA$$QB_WAB_W@Z 0051d900 f i KeyMap.obj
 0002:0006c910       ??$forward@K@std@@YA$$QAKAAK@Z 0051d910 f i KeyMap.obj
 0002:0006c920       ??$forward@$$CBK@std@@YA$$QBKABK@Z 0051d920 f i KeyMap.obj
 0002:0006c930       ??$forward@_W@std@@YA$$QA_WAA_W@Z 0051d930 f i KeyMap.obj
 0002:0006c940       ??$move@AB_W@std@@YA$$QB_WAB_W@Z 0051d940 f i KeyMap.obj
 0002:0006c950       ??$move@ABK@std@@YA$$QBKABK@Z 0051d950 f i KeyMap.obj
 0002:0006c960       ??0KeyMapJap@@QAE@XZ       0051d960 f   KeyMapjap.obj
 0002:0006c970       ?ToAsciiJp@KeyMapJap@@AAEHI@Z 0051d970 f   KeyMapjap.obj
 0002:0006cbe0       ?PCtoX@KeyMapJap@@QAE?AUKeyActionSpec@@IK@Z 0051dbe0 f   KeyMapjap.obj
 0002:0006d1f0       ??0Log@@QAE@HHPAD_N@Z      0051e1f0 f   Log.obj
 0002:0006d250       ?SetMode@Log@@QAEXH@Z      0051e250 f   Log.obj
 0002:0006d360       ?SetLevel@Log@@QAEXH@Z     0051e360 f   Log.obj
 0002:0006d380       ?SetFile@Log@@QAEXPAD_N@Z  0051e380 f   Log.obj
 0002:0006d420       ?CloseFile@Log@@AAEXXZ     0051e420 f   Log.obj
 0002:0006d450       ?ReallyPrint@Log@@AAEXPAD0@Z 0051e450 f   Log.obj
 0002:0006d540       ??1Log@@UAE@XZ             0051e540 f   Log.obj
 0002:0006d640       ??_ELog@@UAEPAXI@Z         0051e640 f i Log.obj
 0002:0006d640       ??_GLog@@UAEPAXI@Z         0051e640 f i Log.obj
 0002:0006d680       ?Initialize@LowLevelHook@@SAHPAUHWND__@@@Z 0051e680 f   LowLevelHook.obj
 0002:0006d730       ?HookThreadProc@LowLevelHook@@SGKPAX@Z 0051e730 f   LowLevelHook.obj
 0002:0006d7f0       ?Release@LowLevelHook@@SAHXZ 0051e7f0 f   LowLevelHook.obj
 0002:0006d830       ?GetCurrentScrollLockState@LowLevelHook@@CAHXZ 0051e830 f   LowLevelHook.obj
 0002:0006d860       ?CheckScrollLock@LowLevelHook@@CAHXZ 0051e860 f   LowLevelHook.obj
 0002:0006d890       ?VncLowLevelKbHookProc@LowLevelHook@@CGJHIJ@Z 0051e890 f   LowLevelHook.obj
 0002:0006de50       ?ShowMessageBox2@@YAXPADH@Z 0051ee50 f   MessBox2.obj
 0002:0006e1f0       ___lzo_ptr_linear          0051f1f0 f   minilzo.obj
 0002:0006e210       ___lzo_align_gap           0051f210 f   minilzo.obj
 0002:0006e250       _lzo_copyright             0051f250 f   minilzo.obj
 0002:0006e260       _lzo_version               0051f260 f   minilzo.obj
 0002:0006e270       _lzo_version_string        0051f270 f   minilzo.obj
 0002:0006e280       _lzo_version_date          0051f280 f   minilzo.obj
 0002:0006e290       __lzo_version_string       0051f290 f   minilzo.obj
 0002:0006e2a0       __lzo_version_date         0051f2a0 f   minilzo.obj
 0002:0006e2b0       _lzo_adler32               0051f2b0 f   minilzo.obj
 0002:0006e500       _lzo_memcmp                0051f500 f   minilzo.obj
 0002:0006e520       _lzo_memcpy                0051f520 f   minilzo.obj
 0002:0006e540       _lzo_memmove               0051f540 f   minilzo.obj
 0002:0006e560       _lzo_memset                0051f560 f   minilzo.obj
 0002:0006e580       __lzo_config_check         0051f580 f   minilzo.obj
 0002:0006e6a0       ___lzo_init_v2             0051f6a0 f   minilzo.obj
 0002:0006e760       _lzo1x_1_compress          0051f760 f   minilzo.obj
 0002:0006ee50       _lzo1x_decompress          0051fe50 f   minilzo.obj
 0002:0006f410       _lzo1x_decompress_safe     00520410 f   minilzo.obj
 0002:00070220       ??0MRU@@QAE@PADI@Z         00521220 f   MRU.obj
 0002:00070290       ?AddItem@MRU@@QAEXPAD@Z    00521290 f   MRU.obj
 0002:000704d0       ?NumItems@MRU@@QAEHXZ      005214d0 f   MRU.obj
 0002:00070500       ?GetItem@MRU@@QAEHHPADH@Z  00521500 f   MRU.obj
 0002:00070590       ?RemoveItem@MRU@@QAEXPAD@Z 00521590 f   MRU.obj
 0002:00070640       ?RemoveItem@MRU@@QAEXH@Z   00521640 f   MRU.obj
 0002:000706d0       ?ReadIndex@MRU@@AAEXXZ     005216d0 f   MRU.obj
 0002:00070730       ?WriteIndex@MRU@@IAEXXZ    00521730 f   MRU.obj
 0002:00070780       ?Tidy@MRU@@AAEXXZ          00521780 f   MRU.obj
 0002:00070b60       ??1MRU@@UAE@XZ             00521b60 f   MRU.obj
 0002:00070e00       ??_GMRU@@UAEPAXI@Z         00521e00 f i MRU.obj
 0002:00070e00       ??_EMRU@@UAEPAXI@Z         00521e00 f i MRU.obj
 0002:00070e40       ?strchr@@YAPADPADH@Z       00521e40 f i MRU.obj
 0002:00070e60       ??0SessionDialog@@QAE@PAVVNCOptions@@PAVClientConnection@@PAVCDSMPlugin@@@Z 00521e60 f   SessionDialog.obj
 0002:00070f20       ??1SessionDialog@@UAE@XZ   00521f20 f   SessionDialog.obj
 0002:00070f70       ?DoDialog@SessionDialog@@QAEHXZ 00521f70 f   SessionDialog.obj
 0002:00070fa0       ?SessDlgProc@SessionDialog@@CGHPAUHWND__@@IIJ@Z 00521fa0 f   SessionDialog.obj
 0002:00072580       ?SetQuickOption@SessionDialog@@QAEHPAV1@PAUHWND__@@@Z 00523580 f   SessionDialog.obj
 0002:00072800       ?ManageQuickOptions@SessionDialog@@QAEHPAV1@PAUHWND__@@@Z 00523800 f   SessionDialog.obj
 0002:000730b0       ??_GSessionDialog@@UAEPAXI@Z 005240b0 f i SessionDialog.obj
 0002:000730b0       ??_ESessionDialog@@UAEPAXI@Z 005240b0 f i SessionDialog.obj
 0002:000730f0       ?GetPluginFileName@CDSMPlugin@@QAEPADXZ 005240f0 f i SessionDialog.obj
 0002:00073110       ??$SafeGetWindowUserData@VSessionDialog@@@helper@@YAPAVSessionDialog@@PAUHWND__@@@Z 00524110 f i SessionDialog.obj
 0002:00073130       ??0TextChat@@QAE@PAVVNCviewerApp@@PAVClientConnection@@@Z 00524130 f   TextChat.obj
 0002:00073310       ??1TextChat@@UAE@XZ        00524310 f   TextChat.obj
 0002:00073410       ?SetTextFormat@TextChat@@QAEX_N0JPBDK@Z 00524410 f   TextChat.obj
 0002:000734e0       ?ProcessTextChatMsg@TextChat@@QAEXXZ 005244e0 f   TextChat.obj
 0002:00073680       ?SendTextChatRequest@TextChat@@QAEXH@Z 00524680 f   TextChat.obj
 0002:000736e0       ?PrintMessage@TextChat@@QAEXPBD0K@Z 005246e0 f   TextChat.obj
 0002:000739d0       ?SendLocalText@TextChat@@QAEXXZ 005249d0 f   TextChat.obj
 0002:00073ae0       ?DoDialog@TextChat@@QAEHXZ 00524ae0 f   TextChat.obj
 0002:00073b10       ?KillDialog@TextChat@@QAEXXZ 00524b10 f   TextChat.obj
 0002:00073b40       ?ShowChatWindow@TextChat@@QAEX_N@Z 00524b40 f   TextChat.obj
 0002:00073c00       ?AdjustLeft@@YAXPAUtagRECT@@@Z 00524c00 f   TextChat.obj
 0002:00073c50       ?AdjustTop@@YAXPAUtagRECT@@@Z 00524c50 f   TextChat.obj
 0002:00073ca0       ?AdjustRight@@YAXPAUtagRECT@@@Z 00524ca0 f   TextChat.obj
 0002:00073cf0       ?AdjustBottom@@YAXPAUtagRECT@@@Z 00524cf0 f   TextChat.obj
 0002:00073d40       ?TextChatDlgProc@TextChat@@SGHPAUHWND__@@IIJ@Z 00524d40 f   TextChat.obj
 0002:00074630       ?DrawResizeLine@@YAXPAUHWND__@@H@Z 00525630 f   TextChat.obj
 0002:00074760       ?SBProc@@YGJPAUHWND__@@IIJ@Z 00525760 f   TextChat.obj
 0002:00075020       ??_ETextChat@@UAEPAXI@Z    00526020 f i TextChat.obj
 0002:00075020       ??_GTextChat@@UAEPAXI@Z    00526020 f i TextChat.obj
 0002:00075060       ?strstr@@YAPADPADPBD@Z     00526060 f i TextChat.obj
 0002:00075080       ??$SafeGetWindowUserData@VTextChat@@@helper@@YAPAVTextChat@@PAUHWND__@@@Z 00526080 f i TextChat.obj
 0002:000750a0       _vncEncryptBytes           005260a0 f   vncauth.obj
 0002:00075140       _vncEncryptPasswd          00526140 f   vncauth.obj
 0002:000751b0       _vncEncryptPasswdMs        005261b0 f   vncauth.obj
 0002:00075220       _vncDecryptPasswd          00526220 f   vncauth.obj
 0002:000752a0       _vncDecryptPasswdMs        005262a0 f   vncauth.obj
 0002:00075320       _vncEncryptBytes2          00526320 f   vncauth.obj
 0002:000754d0       ??0VNCOptions@@QAE@XZ      005264d0 f   VNCOptions.obj
 0002:00075a00       ?GetDefaultOptionsFileName@VNCOptions@@SAXPAD@Z 00526a00 f   VNCOptions.obj
 0002:00075ad0       ?DeleteDefaultOptions@VNCOptions@@SAXXZ 00526ad0 f   VNCOptions.obj
 0002:00075b10       ??4VNCOptions@@QAEAAV0@AAV0@@Z 00526b10 f   VNCOptions.obj
 0002:00076040       ??1VNCOptions@@UAE@XZ      00527040 f   VNCOptions.obj
 0002:00076060       ?gcd@@YAHHH@Z              00527060 f   VNCOptions.obj
 0002:000760a0       ?FixScaling@VNCOptions@@AAEXXZ 005270a0 f   VNCOptions.obj
 0002:00076190       ?SetFromCommandLine@VNCOptions@@QAEXPAD@Z 00527190 f   VNCOptions.obj
 0002:00077b10       ?CheckProxyAndHost@VNCOptions@@QAEXXZ 00528b10 f   VNCOptions.obj
 0002:00077d10       ?saveInt@@YAXPADH0@Z       00528d10 f   VNCOptions.obj
 0002:00077d60       ?readInt@@YAHPADH0@Z       00528d60 f   VNCOptions.obj
 0002:00077d80       ?Save@VNCOptions@@QAEXPAD@Z 00528d80 f   VNCOptions.obj
 0002:000783c0       ?Load@VNCOptions@@QAEXPAD@Z 005293c0 f   VNCOptions.obj
 0002:00078e00       ?Register@VNCOptions@@SAXXZ 00529e00 f   VNCOptions.obj
 0002:00079010       ?ShowUsage@VNCOptions@@AAEXPAD@Z 0052a010 f   VNCOptions.obj
 0002:00079080       ?DoDialog@VNCOptions@@QAEH_N@Z 0052a080 f   VNCOptions.obj
 0002:000790c0       ?CancelDialog@VNCOptions@@QAEXXZ 0052a0c0 f   VNCOptions.obj
 0002:000790f0       ?OptDlgProc@VNCOptions@@SGHPAUHWND__@@IIJ@Z 0052a0f0 f   VNCOptions.obj
 0002:0007c210       ??_GVNCOptions@@UAEPAXI@Z  0052d210 f i VNCOptions.obj
 0002:0007c210       ??_EVNCOptions@@UAEPAXI@Z  0052d210 f i VNCOptions.obj
 0002:0007c250       ?SwitchMatch@@YA_NPBD0@Z   0052d250 f i VNCOptions.obj
 0002:0007c2b0       ??$SafeGetWindowUserData@VVNCOptions@@@helper@@YAPAVVNCOptions@@PAUHWND__@@@Z 0052d2b0 f i VNCOptions.obj
 0002:0007c2d0       _WinMain@16                0052d2d0 f   vncviewer.obj
 0002:0007e000       ?CentreWindow@@YAXPAUHWND__@@@Z 0052f000 f   vncviewer.obj
 0002:0007e0e0       ?ParseDisplay@@YA_NPAD0HPAH@Z 0052f0e0 f   vncviewer.obj
 0002:0007e990       ??0VNCviewerApp@@QAE@PAUHINSTANCE__@@PAD@Z 0052f990 f   VNCviewerApp.obj
 0002:0007eb60       ?RegisterConnection@VNCviewerApp@@QAEXPAVClientConnection@@@Z 0052fb60 f   VNCviewerApp.obj
 0002:0007ec60       ?DeregisterConnection@VNCviewerApp@@QAEXPAVClientConnection@@@Z 0052fc60 f   VNCviewerApp.obj
 0002:0007edb0       ??1VNCviewerApp@@QAE@XZ    0052fdb0 f   VNCviewerApp.obj
 0002:0007ef60       ??0VNCviewerApp32@@QAE@PAUHINSTANCE__@@PAD@Z 0052ff60 f   VNCviewerApp32.obj
 0002:0007f160       ?NewConnection@VNCviewerApp32@@UAEX_N@Z 00530160 f   VNCviewerApp32.obj
 0002:0007f280       ?NewConnection@VNCviewerApp32@@UAEX_NPADH@Z 00530280 f   VNCviewerApp32.obj
 0002:0007f3b0       ?NewConnection@VNCviewerApp32@@UAEX_NI@Z 005303b0 f   VNCviewerApp32.obj
 0002:0007f4d0       ?RegisterSounds@VNCviewerApp32@@AAEXXZ 005304d0 f   VNCviewerApp32.obj
 0002:0007f740       ??1VNCviewerApp32@@QAE@XZ  00530740 f   VNCviewerApp32.obj
 0002:0007fa00       ?SafeSetMsgResult@helper@@YAXPAUHWND__@@J@Z 00530a00 f   win32_helpers.obj
 0002:0007fa20       ?SafeSetWindowUserData@helper@@YAXPAUHWND__@@J@Z 00530a20 f   win32_helpers.obj
 0002:0007fa40       ?SafeGetWindowInstance@helper@@YAPAUHINSTANCE__@@PAUHWND__@@@Z 00530a40 f   win32_helpers.obj
 0002:0007fa60       ?SafeGetWindowProc@helper@@YAJPAUHWND__@@@Z 00530a60 f   win32_helpers.obj
 0002:0007fa80       ?SafeSetWindowProc@helper@@YAXPAUHWND__@@J@Z 00530a80 f   win32_helpers.obj
 0002:0007faa0       ?close_handle@helper@@YAXAAPAX@Z 00530aa0 f   win32_helpers.obj
 0002:0007fad0       ??0DynamicFnBase@helper@@QAE@PBD0@Z 00530ad0 f   win32_helpers.obj
 0002:0007fb30       ??1DynamicFnBase@helper@@QAE@XZ 00530b30 f   win32_helpers.obj
 0002:0007fbb0       ??0CZipUnZip32@@QAE@XZ     00530bb0 f   ZipUnzip32.obj
 0002:0007fd10       ??1CZipUnZip32@@UAE@XZ     00530d10 f   ZipUnzip32.obj
 0002:0007fd30       ?ZipDirectory@CZipUnZip32@@QAE_NPAD00_N@Z 00530d30 f   ZipUnzip32.obj
 0002:0007ff50       ?FreeUpZipMemory@CZipUnZip32@@AAEXXZ 00530f50 f   ZipUnzip32.obj
 0002:0007ff90       ?DummyPassword@@YGHPADHPBD1@Z 00530f90 f   ZipUnzip32.obj
 0002:0007ffa0       ?DummyPrint@@YGHPADK@Z     00530fa0 f   ZipUnzip32.obj
 0002:0007ffb0       ?DummyComment@@YGHPAD@Z    00530fb0 f   ZipUnzip32.obj
 0002:0007ffd0       ?UnZipDirectory@CZipUnZip32@@QAE_NPAD0@Z 00530fd0 f   ZipUnzip32.obj
 0002:00080260       ?GetReplaceDlgRetVal@@YGHPAD@Z 00531260 f   ZipUnzip32.obj
 0002:00080270       ?FreeUpUnzipMemory@CZipUnZip32@@AAEXXZ 00531270 f   ZipUnzip32.obj
 0002:000802e0       ?ReceiveDllMessage@@YGXKKIIIIIIDPAD0KD@Z 005312e0 f   ZipUnzip32.obj
 0002:000802f0       ?password@@YGHPADHPBD1@Z   005312f0 f   ZipUnzip32.obj
 0002:00080300       ?DisplayBuf@@YGHPADK@Z     00531300 f   ZipUnzip32.obj
 0002:000804e0       ??_GCZipUnZip32@@UAEPAXI@Z 005314e0 f i ZipUnzip32.obj
 0002:000804e0       ??_ECZipUnZip32@@UAEPAXI@Z 005314e0 f i ZipUnzip32.obj
 0002:00080520       ?zrleDecode8NE@ClientConnection@@AAEXHHHHPAVInStream@rdr@@PAVZlibInStream@3@PAE@Z 00531520 f   zrle.obj
 0002:00080b00       ?zywrleSynthesize16LE@@YAPAGPAG0HHHHPAH@Z 00531b00 f   zrle.obj
 0002:00081570       ?zrleDecode16LE@ClientConnection@@AAEXHHHHPAVInStream@rdr@@PAVZlibInStream@3@PAG@Z 00532570 f   zrle.obj
 0002:00081c20       ?zywrleSynthesize15LE@@YAPAGPAG0HHHHPAH@Z 00532c20 f   zrle.obj
 0002:00082440       ?zrleDecode15LE@ClientConnection@@AAEXHHHHPAVInStream@rdr@@PAVZlibInStream@3@PAG@Z 00533440 f   zrle.obj
 0002:00082af0       ?zywrleSynthesize32LE@@YAPAIPAI0HHHHPAH@Z 00533af0 f   zrle.obj
 0002:00083230       ?zrleDecode32LE@ClientConnection@@AAEXHHHHPAVInStream@rdr@@PAVZlibInStream@3@PAI@Z 00534230 f   zrle.obj
 0002:000838d0       ?zrleDecode24ALE@ClientConnection@@AAEXHHHHPAVInStream@rdr@@PAVZlibInStream@3@PAI@Z 005348d0 f   zrle.obj
 0002:00083fa0       ?zrleDecode24BLE@ClientConnection@@AAEXHHHHPAVInStream@rdr@@PAVZlibInStream@3@PAI@Z 00534fa0 f   zrle.obj
 0002:00084670       ?zrleDecode@ClientConnection@@AAEXHHHH@Z 00535670 f   zrle.obj
 0002:00085b90       ?readOpaque8@InStream@rdr@@QAEEXZ 00536b90 f i zrle.obj
 0002:00085bb0       ?readOpaque16@InStream@rdr@@QAEGXZ 00536bb0 f i zrle.obj
 0002:00085c20       ?readOpaque32@InStream@rdr@@QAEIXZ 00536c20 f i zrle.obj
 0002:00085cd0       ?readOpaque24A@InStream@rdr@@QAEIXZ 00536cd0 f i zrle.obj
 0002:00085d60       ?readOpaque24B@InStream@rdr@@QAEIXZ 00536d60 f i zrle.obj
 0002:00085dee       _CreateToolbarEx@52        00536dee f   comctl32:COMCTL32.dll
 0002:00085df4       _InitCommonControls@0      00536df4 f   comctl32:COMCTL32.dll
 0002:00085dfa       _InitCommonControlsEx@4    00536dfa f   comctl32:COMCTL32.dll
 0002:00085e00       _CreateStatusWindowA@16    00536e00 f   comctl32:COMCTL32.dll
 0002:00085e06       _ImageList_ReplaceIcon@12  00536e06 f   comctl32:COMCTL32.dll
 0002:00085e0c       _ImageList_Create@20       00536e0c f   comctl32:COMCTL32.dll
 0002:00085e12       _timeGetTime@0             00536e12 f   winmm:WINMM.dll
 0002:00085e18       _PlaySoundA@12             00536e18 f   winmm:WINMM.dll
 0002:00085e1e       _timeSetEvent@20           00536e1e f   winmm:WINMM.dll
 0002:00085e24       _timeKillEvent@4           00536e24 f   winmm:WINMM.dll
 0002:00085e2a       _getpeername@12            00536e2a f   ws2_32:WS2_32.dll
 0002:00085e30       _setsockopt@20             00536e30 f   ws2_32:WS2_32.dll
 0002:00085e36       _closesocket@4             00536e36 f   ws2_32:WS2_32.dll
 0002:00085e3c       _WSAGetLastError@0         00536e3c f   ws2_32:WS2_32.dll
 0002:00085e42       _connect@12                00536e42 f   ws2_32:WS2_32.dll
 0002:00085e48       _htons@4                   00536e48 f   ws2_32:WS2_32.dll
 0002:00085e4e       _gethostbyname@4           00536e4e f   ws2_32:WS2_32.dll
 0002:00085e54       _inet_addr@4               00536e54 f   ws2_32:WS2_32.dll
 0002:00085e5a       _socket@12                 00536e5a f   ws2_32:WS2_32.dll
 0002:00085e60       _shutdown@8                00536e60 f   ws2_32:WS2_32.dll
 0002:00085e66       _send@16                   00536e66 f   ws2_32:WS2_32.dll
 0002:00085e6c       ___WSAFDIsSet@8            00536e6c f   ws2_32:WS2_32.dll
 0002:00085e72       _select@20                 00536e72 f   ws2_32:WS2_32.dll
 0002:00085e78       _WSAAsyncSelect@16         00536e78 f   ws2_32:WS2_32.dll
 0002:00085e7e       _listen@8                  00536e7e f   ws2_32:WS2_32.dll
 0002:00085e84       _bind@12                   00536e84 f   ws2_32:WS2_32.dll
 0002:00085e8a       _recv@16                   00536e8a f   ws2_32:WS2_32.dll
 0002:00085e90       _ioctlsocket@12            00536e90 f   ws2_32:WS2_32.dll
 0002:00085e96       _accept@12                 00536e96 f   ws2_32:WS2_32.dll
 0002:00085e9c       _WSACleanup@0              00536e9c f   ws2_32:WS2_32.dll
 0002:00085ea2       _WSAStartup@8              00536ea2 f   ws2_32:WS2_32.dll
 0002:00085ea8       _GetModuleHandleA@4        00536ea8 f   kernel32:KERNEL32.dll
 0002:00085eae       _CreateEventA@16           00536eae f   kernel32:KERNEL32.dll
 0002:00085eb4       _Sleep@4                   00536eb4 f   kernel32:KERNEL32.dll
 0002:00085eba       _ResumeThread@4            00536eba f   kernel32:KERNEL32.dll
 0002:00085ec0       _CreateThread@24           00536ec0 f   kernel32:KERNEL32.dll
 0002:00085ec6       _GetLastError@0            00536ec6 f   kernel32:KERNEL32.dll
 0002:00085ecc       _SetEvent@4                00536ecc f   kernel32:KERNEL32.dll
 0002:00085ed2       _WaitForSingleObject@8     00536ed2 f   kernel32:KERNEL32.dll
 0002:00085ed8       _CloseHandle@4             00536ed8 f   kernel32:KERNEL32.dll
 0002:00085ede       _GetTickCount@0            00536ede f   kernel32:KERNEL32.dll
 0002:00085ee4       _OutputDebugStringA@4      00536ee4 f   kernel32:KERNEL32.dll
 0002:00085eea       _Beep@8                    00536eea f   kernel32:KERNEL32.dll
 0002:00085ef0       _LocalFree@4               00536ef0 f   kernel32:KERNEL32.dll
 0002:00085ef6       _FormatMessageA@28         00536ef6 f   kernel32:KERNEL32.dll
 0002:00085efc       _GlobalUnlock@4            00536efc f   kernel32:KERNEL32.dll
 0002:00085f02       _GlobalLock@4              00536f02 f   kernel32:KERNEL32.dll
 0002:00085f08       _GlobalAlloc@8             00536f08 f   kernel32:KERNEL32.dll
 0002:00085f0e       _WritePrivateProfileStringA@16 00536f0e f   kernel32:KERNEL32.dll
 0002:00085f14       _GetPrivateProfileIntA@16  00536f14 f   kernel32:KERNEL32.dll
 0002:00085f1a       _GetPrivateProfileStringA@24 00536f1a f   kernel32:KERNEL32.dll
 0002:00085f20       _WideCharToMultiByte@32    00536f20 f   kernel32:KERNEL32.dll
 0002:00085f26       _GlobalSize@4              00536f26 f   kernel32:KERNEL32.dll
 0002:00085f2c       _GlobalFree@4              00536f2c f   kernel32:KERNEL32.dll
 0002:00085f32       _MultiByteToWideChar@24    00536f32 f   kernel32:KERNEL32.dll
 0002:00085f38       _FindClose@4               00536f38 f   kernel32:KERNEL32.dll
 0002:00085f3e       _FindNextFileA@8           00536f3e f   kernel32:KERNEL32.dll
 0002:00085f44       _FindFirstFileA@8          00536f44 f   kernel32:KERNEL32.dll
 0002:00085f4a       _GetModuleFileNameA@12     00536f4a f   kernel32:KERNEL32.dll
 0002:00085f50       _DeleteFileA@4             00536f50 f   kernel32:KERNEL32.dll
 0002:00085f56       _FreeLibrary@4             00536f56 f   kernel32:KERNEL32.dll
 0002:00085f5c       _GetProcAddress@8          00536f5c f   kernel32:KERNEL32.dll
 0002:00085f62       _LoadLibraryA@4            00536f62 f   kernel32:KERNEL32.dll
 0002:00085f68       _CopyFileA@12              00536f68 f   kernel32:KERNEL32.dll
 0002:00085f6e       _GetTempPathA@8            00536f6e f   kernel32:KERNEL32.dll
 0002:00085f74       _lstrcpyA@8                00536f74 f   kernel32:KERNEL32.dll
 0002:00085f7a       _SetErrorMode@4            00536f7a f   kernel32:KERNEL32.dll
 0002:00085f80       _FileTimeToSystemTime@8    00536f80 f   kernel32:KERNEL32.dll
 0002:00085f86       _FileTimeToLocalFileTime@8 00536f86 f   kernel32:KERNEL32.dll
 0002:00085f8c       _GetFileAttributesA@4      00536f8c f   kernel32:KERNEL32.dll
 0002:00085f92       _lstrlenA@4                00536f92 f   kernel32:KERNEL32.dll
 0002:00085f98       _GetDriveTypeA@4           00536f98 f   kernel32:KERNEL32.dll
 0002:00085f9e       _GetLogicalDriveStringsA@8 00536f9e f   kernel32:KERNEL32.dll
 0002:00085fa4       _CreateFileA@28            00536fa4 f   kernel32:KERNEL32.dll
 0002:00085faa       _WriteFile@20              00536faa f   kernel32:KERNEL32.dll
 0002:00085fb0       _SetFilePointer@16         00536fb0 f   kernel32:KERNEL32.dll
 0002:00085fb6       _MoveFileExA@12            00536fb6 f   kernel32:KERNEL32.dll
 0002:00085fbc       _SetFileTime@16            00536fbc f   kernel32:KERNEL32.dll
 0002:00085fc2       _SystemTimeToFileTime@8    00536fc2 f   kernel32:KERNEL32.dll
 0002:00085fc8       _FlushFileBuffers@4        00536fc8 f   kernel32:KERNEL32.dll
 0002:00085fce       _SetEndOfFile@4            00536fce f   kernel32:KERNEL32.dll
 0002:00085fd4       _GetFileTime@16            00536fd4 f   kernel32:KERNEL32.dll
 0002:00085fda       _ReadFile@20               00536fda f   kernel32:KERNEL32.dll
 0002:00085fe0       _MoveFileA@8               00536fe0 f   kernel32:KERNEL32.dll
 0002:00085fe6       _CreateDirectoryA@8        00536fe6 f   kernel32:KERNEL32.dll
 0002:00085fec       _CompareFileTime@8         00536fec f   kernel32:KERNEL32.dll
 0002:00085ff2       _lstrcmpiA@8               00536ff2 f   kernel32:KERNEL32.dll
 0002:00085ff8       _MulDiv@12                 00536ff8 f   kernel32:KERNEL32.dll
 0002:00085ffe       _GetStdHandle@4            00536ffe f   kernel32:KERNEL32.dll
 0002:00086004       _AllocConsole@0            00537004 f   kernel32:KERNEL32.dll
 0002:0008600a       _WriteConsoleA@20          0053700a f   kernel32:KERNEL32.dll
 0002:00086010       _GetComputerNameA@8        00537010 f   kernel32:KERNEL32.dll
 0002:00086016       _GetVersionExA@4           00537016 f   kernel32:KERNEL32.dll
 0002:0008601c       _LoadImageA@24             0053701c f   user32:USER32.dll
 0002:00086022       _IsRectEmpty@4             00537022 f   user32:USER32.dll
 0002:00086028       _DialogBoxParamA@20        00537028 f   user32:USER32.dll
 0002:0008602e       _EndDialog@8               0053702e f   user32:USER32.dll
 0002:00086034       _SetDlgItemTextA@12        00537034 f   user32:USER32.dll
 0002:0008603a       _SetForegroundWindow@4     0053703a f   user32:USER32.dll
 0002:00086040       _CreateAcceleratorTableA@8 00537040 f   user32:USER32.dll
 0002:00086046       _TranslateAcceleratorA@12  00537046 f   user32:USER32.dll
 0002:0008604c       _DestroyAcceleratorTable@4 0053704c f   user32:USER32.dll
 0002:00086052       _GetDlgItemTextA@16        00537052 f   user32:USER32.dll
 0002:00086058       _SendMessageA@16           00537058 f   user32:USER32.dll
 0002:0008605e       _GetDlgItem@8              0053705e f   user32:USER32.dll
 0002:00086064       _GetWindowLongA@8          00537064 f   user32:USER32.dll
 0002:0008606a       _ShowWindow@8              0053706a f   user32:USER32.dll
 0002:00086070       _PostMessageA@16           00537070 f   user32:USER32.dll
 0002:00086076       _SetWindowPos@28           00537076 f   user32:USER32.dll
 0002:0008607c       _CreateWindowExA@48        0053707c f   user32:USER32.dll
 0002:00086082       _GetClientRect@8           00537082 f   user32:USER32.dll
 0002:00086088       _DestroyWindow@4           00537088 f   user32:USER32.dll
 0002:0008608e       _GetWindowRect@8           0053708e f   user32:USER32.dll
 0002:00086094       _ReleaseDC@8               00537094 f   user32:USER32.dll
 0002:0008609a       _GetDC@4                   0053709a f   user32:USER32.dll
 0002:000860a0       _RegisterClassA@4          005370a0 f   user32:USER32.dll
 0002:000860a6       _LoadCursorA@8             005370a6 f   user32:USER32.dll
 0002:000860ac       _LoadIconA@8               005370ac f   user32:USER32.dll
 0002:000860b2       _DrawMenuBar@4             005370b2 f   user32:USER32.dll
 0002:000860b8       _CreatePopupMenu@0         005370b8 f   user32:USER32.dll
 0002:000860be       _AppendMenuA@16            005370be f   user32:USER32.dll
 0002:000860c4       _GetSystemMenu@8           005370c4 f   user32:USER32.dll
 0002:000860ca       _SetClipboardViewer@4      005370ca f   user32:USER32.dll
 0002:000860d0       _EnableMenuItem@12         005370d0 f   user32:USER32.dll
 0002:000860d6       _CheckMenuItem@12          005370d6 f   user32:USER32.dll
 0002:000860dc       _MessageBoxA@16            005370dc f   user32:USER32.dll
 0002:000860e2       _SetDlgItemInt@16          005370e2 f   user32:USER32.dll
 0002:000860e8       _UpdateWindow@4            005370e8 f   user32:USER32.dll
 0002:000860ee       _SetWindowTextA@8          005370ee f   user32:USER32.dll
 0002:000860f4       _MoveWindow@24             005370f4 f   user32:USER32.dll
 0002:000860fa       _AdjustWindowRectEx@16     005370fa f   user32:USER32.dll
 0002:00086100       _SetRect@20                00537100 f   user32:USER32.dll
 0002:00086106       _ScrollWindowEx@32         00537106 f   user32:USER32.dll
 0002:0008610c       _KillTimer@8               0053710c f   user32:USER32.dll
 0002:00086112       _SetScrollInfo@16          00537112 f   user32:USER32.dll
 0002:00086118       _GetKeyboardLayoutNameA@4  00537118 f   user32:USER32.dll
 0002:0008611e       _InvalidateRect@12         0053711e f   user32:USER32.dll
 0002:00086124       _InvalidateRgn@12          00537124 f   user32:USER32.dll
 0002:0008612a       _IsIconic@4                0053712a f   user32:USER32.dll
 0002:00086130       _SetTimer@16               00537130 f   user32:USER32.dll
 0002:00086136       _wsprintfA                 00537136 f   user32:USER32.dll
 0002:0008613c       _GetDlgItemInt@16          0053713c f   user32:USER32.dll
 0002:00086142       _SetFocus@4                00537142 f   user32:USER32.dll
 0002:00086148       _ShowScrollBar@12          00537148 f   user32:USER32.dll
 0002:0008614e       _DestroyMenu@4             0053714e f   user32:USER32.dll
 0002:00086154       _ChangeClipboardChain@8    00537154 f   user32:USER32.dll
 0002:0008615a       _PostQuitMessage@4         0053715a f   user32:USER32.dll
 0002:00086160       _DefWindowProcA@16         00537160 f   user32:USER32.dll
 0002:00086166       _GetKeyNameTextA@12        00537166 f   user32:USER32.dll
 0002:0008616c       _IsWindow@4                0053716c f   user32:USER32.dll
 0002:00086172       _SendNotifyMessageA@16     00537172 f   user32:USER32.dll
 0002:00086178       _SetCursor@4               00537178 f   user32:USER32.dll
 0002:0008617e       _GetWindow@8               0053717e f   user32:USER32.dll
 0002:00086184       _GetForegroundWindow@0     00537184 f   user32:USER32.dll
 0002:0008618a       _GetFocus@0                0053718a f   user32:USER32.dll
 0002:00086190       _EndPaint@8                00537190 f   user32:USER32.dll
 0002:00086196       _FillRect@12               00537196 f   user32:USER32.dll
 0002:0008619c       _GetSysColorBrush@4        0053719c f   user32:USER32.dll
 0002:000861a2       _BeginPaint@8              005371a2 f   user32:USER32.dll
 0002:000861a8       _GetWindowTextA@12         005371a8 f   user32:USER32.dll
 0002:000861ae       _RegisterWindowMessageA@4  005371ae f   user32:USER32.dll
 0002:000861b4       _GetClipboardOwner@0       005371b4 f   user32:USER32.dll
 0002:000861ba       _CloseClipboard@0          005371ba f   user32:USER32.dll
 0002:000861c0       _GetClipboardData@4        005371c0 f   user32:USER32.dll
 0002:000861c6       _OpenClipboard@4           005371c6 f   user32:USER32.dll
 0002:000861cc       _SetClipboardData@8        005371cc f   user32:USER32.dll
 0002:000861d2       _EmptyClipboard@0          005371d2 f   user32:USER32.dll
 0002:000861d8       _RedrawWindow@16           005371d8 f   user32:USER32.dll
 0002:000861de       _SetWindowLongA@12         005371de f   user32:USER32.dll
 0002:000861e4       _SetCursorPos@8            005371e4 f   user32:USER32.dll
 0002:000861ea       _GetCursorPos@4            005371ea f   user32:USER32.dll
 0002:000861f0       _IsClipboardFormatAvailable@4 005371f0 f   user32:USER32.dll
 0002:000861f6       _RegisterClipboardFormatA@4 005371f6 f   user32:USER32.dll
 0002:000861fc       _LoadMenuA@8               005371fc f   user32:USER32.dll
 0002:00086202       _RegisterClassExA@4        00537202 f   user32:USER32.dll
 0002:00086208       _LoadStringA@16            00537208 f   user32:USER32.dll
 0002:0008620e       _TrackPopupMenu@28         0053720e f   user32:USER32.dll
 0002:00086214       _SetMenuDefaultItem@12     00537214 f   user32:USER32.dll
 0002:0008621a       _GetMenuItemID@8           0053721a f   user32:USER32.dll
 0002:00086220       _GetSubMenu@8              00537220 f   user32:USER32.dll
 0002:00086226       _ValidateRect@8            00537226 f   user32:USER32.dll
 0002:0008622c       _SystemParametersInfoA@16  0053722c f   user32:USER32.dll
 0002:00086232       _GetSystemMetrics@4        00537232 f   user32:USER32.dll
 0002:00086238       _GetMonitorInfoA@8         00537238 f   user32:USER32.dll
 0002:0008623e       _MonitorFromPoint@12       0053723e f   user32:USER32.dll
 0002:00086244       _EnumDisplaySettingsA@12   00537244 f   user32:USER32.dll
 0002:0008624a       _EnumDisplayDevicesA@16    0053724a f   user32:USER32.dll
 0002:00086250       _DispatchMessageA@4        00537250 f   user32:USER32.dll
 0002:00086256       _TranslateMessage@4        00537256 f   user32:USER32.dll
 0002:0008625c       _PeekMessageA@20           0053725c f   user32:USER32.dll
 0002:00086262       _SendDlgItemMessageA@20    00537262 f   user32:USER32.dll
 0002:00086268       _GetParent@4               00537268 f   user32:USER32.dll
 0002:0008626e       _DrawTextA@20              0053726e f   user32:USER32.dll
 0002:00086274       _GetComboBoxInfo@8         00537274 f   user32:USER32.dll
 0002:0008627a       _EnableWindow@8            0053727a f   user32:USER32.dll
 0002:00086280       _GetWindowTextLengthA@4    00537280 f   user32:USER32.dll
 0002:00086286       _GetMenuItemCount@4        00537286 f   user32:USER32.dll
 0002:0008628c       _DestroyIcon@4             0053728c f   user32:USER32.dll
 0002:00086292       _IntersectRect@12          00537292 f   user32:USER32.dll
 0002:00086298       _MapWindowPoints@16        00537298 f   user32:USER32.dll
 0002:0008629e       _WindowFromDC@4            0053729e f   user32:USER32.dll
 0002:000862a4       _SetWindowRgn@12           005372a4 f   user32:USER32.dll
 0002:000862aa       _GetDesktopWindow@0        005372aa f   user32:USER32.dll
 0002:000862b0       _PtInRect@12               005372b0 f   user32:USER32.dll
 0002:000862b6       _ModifyMenuA@20            005372b6 f   user32:USER32.dll
 0002:000862bc       _GetMenuStringA@20         005372bc f   user32:USER32.dll
 0002:000862c2       _LoadBitmapA@8             005372c2 f   user32:USER32.dll
 0002:000862c8       _GetKeyboardState@4        005372c8 f   user32:USER32.dll
 0002:000862ce       _ToUnicode@24              005372ce f   user32:USER32.dll
 0002:000862d4       _VkKeyScanW@4              005372d4 f   user32:USER32.dll
 0002:000862da       _keybd_event@16            005372da f   user32:USER32.dll
 0002:000862e0       _ToAscii@20                005372e0 f   user32:USER32.dll
 0002:000862e6       _GetKeyState@4             005372e6 f   user32:USER32.dll
 0002:000862ec       _GetWindowThreadProcessId@8 005372ec f   user32:USER32.dll
 0002:000862f2       _GetMessageA@16            005372f2 f   user32:USER32.dll
 0002:000862f8       _SetWindowsHookExA@16      005372f8 f   user32:USER32.dll
 0002:000862fe       _PostThreadMessageA@16     005372fe f   user32:USER32.dll
 0002:00086304       _CallNextHookEx@16         00537304 f   user32:USER32.dll
 0002:0008630a       _GetScrollInfo@12          0053730a f   user32:USER32.dll
 0002:00086310       _CallWindowProcA@20        00537310 f   user32:USER32.dll
 0002:00086316       _ReleaseCapture@0          00537316 f   user32:USER32.dll
 0002:0008631c       _ScreenToClient@8          0053731c f   user32:USER32.dll
 0002:00086322       _SetCaretBlinkTime@4       00537322 f   user32:USER32.dll
 0002:00086328       _GetCaretBlinkTime@0       00537328 f   user32:USER32.dll
 0002:0008632e       _SetCapture@4              0053732e f   user32:USER32.dll
 0002:00086334       _IsDlgButtonChecked@8      00537334 f   user32:USER32.dll
 0002:0008633a       _LoadKeyboardLayoutA@8     0053733a f   user32:USER32.dll
 0002:00086340       _DeleteDC@4                00537340 f   gdi32:GDI32.dll
 0002:00086346       _DeleteObject@4            00537346 f   gdi32:GDI32.dll
 0002:0008634c       _BitBlt@36                 0053734c f   gdi32:GDI32.dll
 0002:00086352       _PatBlt@24                 00537352 f   gdi32:GDI32.dll
 0002:00086358       _SelectObject@8            00537358 f   gdi32:GDI32.dll
 0002:0008635e       _CreateSolidBrush@4        0053735e f   gdi32:GDI32.dll
 0002:00086364       _CreateCompatibleDC@4      00537364 f   gdi32:GDI32.dll
 0002:0008636a       _GetClipBox@8              0053736a f   gdi32:GDI32.dll
 0002:00086370       _CreatePalette@4           00537370 f   gdi32:GDI32.dll
 0002:00086376       _GetDeviceCaps@8           00537376 f   gdi32:GDI32.dll
 0002:0008637c       _SetDIBColorTable@16       0053737c f   gdi32:GDI32.dll
 0002:00086382       _CreateDIBSection@24       00537382 f   gdi32:GDI32.dll
 0002:00086388       _CombineRgn@16             00537388 f   gdi32:GDI32.dll
 0002:0008638e       _CreateRectRgn@16          0053738e f   gdi32:GDI32.dll
 0002:00086394       _GetStockObject@4          00537394 f   gdi32:GDI32.dll
 0002:0008639a       _UpdateColors@4            0053739a f   gdi32:GDI32.dll
 0002:000863a0       _RealizePalette@4          005373a0 f   gdi32:GDI32.dll
 0002:000863a6       _SelectPalette@12          005373a6 f   gdi32:GDI32.dll
 0002:000863ac       _StretchBlt@44             005373ac f   gdi32:GDI32.dll
 0002:000863b2       _SetBrushOrgEx@16          005373b2 f   gdi32:GDI32.dll
 0002:000863b8       _SetStretchBltMode@8       005373b8 f   gdi32:GDI32.dll
 0002:000863be       _CreateRectRgnIndirect@4   005373be f   gdi32:GDI32.dll
 0002:000863c4       _Rectangle@20              005373c4 f   gdi32:GDI32.dll
 0002:000863ca       _CreateFontA@56            005373ca f   gdi32:GDI32.dll
 0002:000863d0       _CreatePolygonRgn@12       005373d0 f   gdi32:GDI32.dll
 0002:000863d6       _SetTextColor@8            005373d6 f   gdi32:GDI32.dll
 0002:000863dc       _SetBkMode@8               005373dc f   gdi32:GDI32.dll
 0002:000863e2       _LineTo@12                 005373e2 f   gdi32:GDI32.dll
 0002:000863e8       _MoveToEx@16               005373e8 f   gdi32:GDI32.dll
 0002:000863ee       _CreatePen@12              005373ee f   gdi32:GDI32.dll
 0002:000863f4       _SetROP2@8                 005373f4 f   gdi32:GDI32.dll
 0002:000863fa       _CommDlgExtendedError@0    005373fa f   comdlg32:COMDLG32.dll
 0002:00086400       _GetSaveFileNameA@4        00537400 f   comdlg32:COMDLG32.dll
 0002:00086406       _GetOpenFileNameA@4        00537406 f   comdlg32:COMDLG32.dll
 0002:0008640c       _RegCloseKey@4             0053740c f   advapi32:ADVAPI32.dll
 0002:00086412       _RegSetValueExA@24         00537412 f   advapi32:ADVAPI32.dll
 0002:00086418       _RegCreateKeyA@12          00537418 f   advapi32:ADVAPI32.dll
 0002:0008641e       _RegQueryValueExA@24       0053741e f   advapi32:ADVAPI32.dll
 0002:00086424       _RegCreateKeyExA@36        00537424 f   advapi32:ADVAPI32.dll
 0002:0008642a       _RegDeleteValueA@8         0053742a f   advapi32:ADVAPI32.dll
 0002:00086430       _RegEnumValueA@32          00537430 f   advapi32:ADVAPI32.dll
 0002:00086436       _RegQueryInfoKeyA@48       00537436 f   advapi32:ADVAPI32.dll
 0002:0008643c       _RegSetValueA@20           0053743c f   advapi32:ADVAPI32.dll
 0002:00086442       _RegOpenKeyExA@20          00537442 f   advapi32:ADVAPI32.dll
 0002:00086448       _RegOpenKeyA@12            00537448 f   advapi32:ADVAPI32.dll
 0002:0008644e       _Shell_NotifyIconA@8       0053744e f   shell32:SHELL32.dll
 0002:00086454       _SHFileOperationA@4        00537454 f   shell32:SHELL32.dll
 0002:0008645a       _SHGetPathFromIDListA@8    0053745a f   shell32:SHELL32.dll
 0002:00086460       _SHGetSpecialFolderLocation@12 00537460 f   shell32:SHELL32.dll
 0002:00086466       _ShellExecuteA@24          00537466 f   shell32:SHELL32.dll
 0002:0008646c       _SHGetFolderPathA@20       0053746c f   shell32:SHELL32.dll
 0002:00086480       _jpeg_CreateDecompress     00537480 f   libjpeg-turbo-win:jdapimin.obj
 0002:00086630       _jpeg_destroy_decompress   00537630 f   libjpeg-turbo-win:jdapimin.obj
 0002:00086650       _jpeg_abort_decompress     00537650 f   libjpeg-turbo-win:jdapimin.obj
 0002:00086670       _jpeg_read_header          00537670 f   libjpeg-turbo-win:jdapimin.obj
 0002:00086750       _jpeg_consume_input        00537750 f   libjpeg-turbo-win:jdapimin.obj
 0002:00086bd0       _jpeg_input_complete       00537bd0 f   libjpeg-turbo-win:jdapimin.obj
 0002:00086c40       _jpeg_has_multiple_scans   00537c40 f   libjpeg-turbo-win:jdapimin.obj
 0002:00086cb0       _jpeg_finish_decompress    00537cb0 f   libjpeg-turbo-win:jdapimin.obj
 0002:00086e00       _jpeg_start_decompress     00537e00 f   libjpeg-turbo-win:jdapistd.obj
 0002:00087110       _jpeg_read_scanlines       00538110 f   libjpeg-turbo-win:jdapistd.obj
 0002:00087270       _jpeg_read_raw_data        00538270 f   libjpeg-turbo-win:jdapistd.obj
 0002:000873d0       _jpeg_start_output         005383d0 f   libjpeg-turbo-win:jdapistd.obj
 0002:00087480       _jpeg_finish_output        00538480 f   libjpeg-turbo-win:jdapistd.obj
 0002:00087570       _jpeg_std_error            00538570 f   libjpeg-turbo-win:jerror.obj
 0002:00087920       _jpeg_resync_to_restart    00538920 f   libjpeg-turbo-win:jdmarker.obj
 0002:00087d30       _jinit_marker_reader       00538d30 f   libjpeg-turbo-win:jdmarker.obj
 0002:0008ab90       _jpeg_save_markers         0053bb90 f   libjpeg-turbo-win:jdmarker.obj
 0002:0008b100       _jpeg_set_marker_processor 0053c100 f   libjpeg-turbo-win:jdmarker.obj
 0002:0008b190       _jinit_input_controller    0053c190 f   libjpeg-turbo-win:jdinput.obj
 0002:0008bc10       _jinit_memory_mgr          0053cc10 f   libjpeg-turbo-win:jmemmgr.obj
 0002:0008d3a0       _jpeg_abort                0053e3a0 f   libjpeg-turbo-win:jcomapi.obj
 0002:0008d430       _jpeg_destroy              0053e430 f   libjpeg-turbo-win:jcomapi.obj
 0002:0008d480       _jpeg_alloc_quant_table    0053e480 f   libjpeg-turbo-win:jcomapi.obj
 0002:0008d4d0       _jpeg_alloc_huff_table     0053e4d0 f   libjpeg-turbo-win:jcomapi.obj
 0002:0008d520       _jpeg_calc_output_dimensions 0053e520 f   libjpeg-turbo-win:jdmaster.obj
 0002:0008da00       _jpeg_new_colormap         0053ea00 f   libjpeg-turbo-win:jdmaster.obj
 0002:0008dae0       _jinit_master_decompress   0053eae0 f   libjpeg-turbo-win:jdmaster.obj
 0002:0008e340       _jdiv_round_up             0053f340 f   libjpeg-turbo-win:jutils.obj
 0002:0008e360       _jround_up                 0053f360 f   libjpeg-turbo-win:jutils.obj
 0002:0008e380       _jcopy_sample_rows         0053f380 f   libjpeg-turbo-win:jutils.obj
 0002:0008e420       _jcopy_block_row           0053f420 f   libjpeg-turbo-win:jutils.obj
 0002:0008e450       _jzero_far                 0053f450 f   libjpeg-turbo-win:jutils.obj
 0002:0008e470       _jpeg_get_small            0053f470 f   libjpeg-turbo-win:jmemnobs.obj
 0002:0008e490       _jpeg_free_small           0053f490 f   libjpeg-turbo-win:jmemnobs.obj
 0002:0008e4b0       _jpeg_get_large            0053f4b0 f   libjpeg-turbo-win:jmemnobs.obj
 0002:0008e4d0       _jpeg_free_large           0053f4d0 f   libjpeg-turbo-win:jmemnobs.obj
 0002:0008e4f0       _jpeg_mem_available        0053f4f0 f   libjpeg-turbo-win:jmemnobs.obj
 0002:0008e500       _jpeg_open_backing_store   0053f500 f   libjpeg-turbo-win:jmemnobs.obj
 0002:0008e540       _jpeg_mem_init             0053f540 f   libjpeg-turbo-win:jmemnobs.obj
 0002:0008e550       _jpeg_mem_term             0053f550 f   libjpeg-turbo-win:jmemnobs.obj
 0002:0008e560       _jinit_d_main_controller   0053f560 f   libjpeg-turbo-win:jdmainct.obj
 0002:0008f060       _jinit_d_coef_controller   00540060 f   libjpeg-turbo-win:jdcoefct.obj
 0002:000906e0       _jpeg_make_d_derived_tbl   005416e0 f   libjpeg-turbo-win:jdhuff.obj
 0002:00090ba0       _jpeg_fill_bit_buffer      00541ba0 f   libjpeg-turbo-win:jdhuff.obj
 0002:00090da0       _jpeg_huff_decode          00541da0 f   libjpeg-turbo-win:jdhuff.obj
 0002:00090f10       _jinit_huff_decoder        00541f10 f   libjpeg-turbo-win:jdhuff.obj
 0002:00092460       _jinit_phuff_decoder       00543460 f   libjpeg-turbo-win:jdphuff.obj
 0002:000938c0       _jinit_inverse_dct         005448c0 f   libjpeg-turbo-win:jddctmgr.obj
 0002:00093d40       _jinit_d_post_controller   00544d40 f   libjpeg-turbo-win:jdpostct.obj
 0002:00094370       _jinit_upsampler           00545370 f   libjpeg-turbo-win:jdsample.obj
 0002:00094f40       _jinit_color_deconverter   00545f40 f   libjpeg-turbo-win:jdcolor.obj
 0002:000959b0       _jinit_merged_upsampler    005469b0 f   libjpeg-turbo-win:jdmerge.obj
 0002:00096540       _jinit_2pass_quantizer     00547540 f   libjpeg-turbo-win:jquant2.obj
 0002:00098810       _jinit_1pass_quantizer     00549810 f   libjpeg-turbo-win:jquant1.obj
 0002:00099ae0       _jpeg_idct_float           0054aae0 f   libjpeg-turbo-win:jidctflt.obj
 0002:0009a150       _jsimd_can_rgb_ycc         0054b150 f   libjpeg-turbo-win:jsimd_i386.obj
 0002:0009a2d0       _jsimd_can_ycc_rgb         0054b2d0 f   libjpeg-turbo-win:jsimd_i386.obj
 0002:0009a330       _jsimd_rgb_ycc_convert     0054b330 f   libjpeg-turbo-win:jsimd_i386.obj
 0002:0009a470       _jsimd_ycc_rgb_convert     0054b470 f   libjpeg-turbo-win:jsimd_i386.obj
 0002:0009a5b0       _jsimd_can_h2v2_downsample 0054b5b0 f   libjpeg-turbo-win:jsimd_i386.obj
 0002:0009a600       _jsimd_can_h2v1_downsample 0054b600 f   libjpeg-turbo-win:jsimd_i386.obj
 0002:0009a650       _jsimd_h2v2_downsample     0054b650 f   libjpeg-turbo-win:jsimd_i386.obj
 0002:0009a6e0       _jsimd_h2v1_downsample     0054b6e0 f   libjpeg-turbo-win:jsimd_i386.obj
 0002:0009a770       _jsimd_can_h2v2_upsample   0054b770 f   libjpeg-turbo-win:jsimd_i386.obj
 0002:0009a7c0       _jsimd_can_h2v1_upsample   0054b7c0 f   libjpeg-turbo-win:jsimd_i386.obj
 0002:0009a810       _jsimd_h2v2_upsample       0054b810 f   libjpeg-turbo-win:jsimd_i386.obj
 0002:0009a880       _jsimd_h2v1_upsample       0054b880 f   libjpeg-turbo-win:jsimd_i386.obj
 0002:0009a8f0       _jsimd_can_h2v2_fancy_upsample 0054b8f0 f   libjpeg-turbo-win:jsimd_i386.obj
 0002:0009a950       _jsimd_can_h2v1_fancy_upsample 0054b950 f   libjpeg-turbo-win:jsimd_i386.obj
 0002:0009a9b0       _jsimd_h2v2_fancy_upsample 0054b9b0 f   libjpeg-turbo-win:jsimd_i386.obj
 0002:0009aa20       _jsimd_h2v1_fancy_upsample 0054ba20 f   libjpeg-turbo-win:jsimd_i386.obj
 0002:0009aa90       _jsimd_can_h2v2_merged_upsample 0054ba90 f   libjpeg-turbo-win:jsimd_i386.obj
 0002:0009aaf0       _jsimd_can_h2v1_merged_upsample 0054baf0 f   libjpeg-turbo-win:jsimd_i386.obj
 0002:0009ab50       _jsimd_h2v2_merged_upsample 0054bb50 f   libjpeg-turbo-win:jsimd_i386.obj
 0002:0009ac90       _jsimd_h2v1_merged_upsample 0054bc90 f   libjpeg-turbo-win:jsimd_i386.obj
 0002:0009add0       _jsimd_can_convsamp        0054bdd0 f   libjpeg-turbo-win:jsimd_i386.obj
 0002:0009ae30       _jsimd_can_convsamp_float  0054be30 f   libjpeg-turbo-win:jsimd_i386.obj
 0002:0009aea0       _jsimd_convsamp            0054bea0 f   libjpeg-turbo-win:jsimd_i386.obj
 0002:0009aef0       _jsimd_convsamp_float      0054bef0 f   libjpeg-turbo-win:jsimd_i386.obj
 0002:0009af60       _jsimd_can_fdct_islow      0054bf60 f   libjpeg-turbo-win:jsimd_i386.obj
 0002:0009afc0       _jsimd_can_fdct_ifast      0054bfc0 f   libjpeg-turbo-win:jsimd_i386.obj
 0002:0009b020       _jsimd_can_fdct_float      0054c020 f   libjpeg-turbo-win:jsimd_i386.obj
 0002:0009b080       _jsimd_fdct_islow          0054c080 f   libjpeg-turbo-win:jsimd_i386.obj
 0002:0009b0d0       _jsimd_fdct_ifast          0054c0d0 f   libjpeg-turbo-win:jsimd_i386.obj
 0002:0009b120       _jsimd_fdct_float          0054c120 f   libjpeg-turbo-win:jsimd_i386.obj
 0002:0009b170       _jsimd_can_quantize        0054c170 f   libjpeg-turbo-win:jsimd_i386.obj
 0002:0009b1c0       _jsimd_can_quantize_float  0054c1c0 f   libjpeg-turbo-win:jsimd_i386.obj
 0002:0009b220       _jsimd_quantize            0054c220 f   libjpeg-turbo-win:jsimd_i386.obj
 0002:0009b270       _jsimd_quantize_float      0054c270 f   libjpeg-turbo-win:jsimd_i386.obj
 0002:0009b2e0       _jsimd_can_idct_2x2        0054c2e0 f   libjpeg-turbo-win:jsimd_i386.obj
 0002:0009b350       _jsimd_can_idct_4x4        0054c350 f   libjpeg-turbo-win:jsimd_i386.obj
 0002:0009b3c0       _jsimd_idct_2x2            0054c3c0 f   libjpeg-turbo-win:jsimd_i386.obj
 0002:0009b430       _jsimd_idct_4x4            0054c430 f   libjpeg-turbo-win:jsimd_i386.obj
 0002:0009b4a0       _jsimd_can_idct_islow      0054c4a0 f   libjpeg-turbo-win:jsimd_i386.obj
 0002:0009b510       _jsimd_can_idct_ifast      0054c510 f   libjpeg-turbo-win:jsimd_i386.obj
 0002:0009b580       _jsimd_can_idct_float      0054c580 f   libjpeg-turbo-win:jsimd_i386.obj
 0002:0009b610       _jsimd_idct_islow          0054c610 f   libjpeg-turbo-win:jsimd_i386.obj
 0002:0009b680       _jsimd_idct_ifast          0054c680 f   libjpeg-turbo-win:jsimd_i386.obj
 0002:0009b6f0       _jsimd_idct_float          0054c6f0 f   libjpeg-turbo-win:jsimd_i386.obj
 0002:0009b790       _jpeg_idct_ifast           0054c790 f   libjpeg-turbo-win:jidctfst.obj
 0002:0009bf90       _jpeg_idct_islow           0054cf90 f   libjpeg-turbo-win:jidctint.obj
 0002:0009c7b0       _jpeg_idct_4x4             0054d7b0 f   libjpeg-turbo-win:jidctred.obj
 0002:0009cca0       _jpeg_idct_2x2             0054dca0 f   libjpeg-turbo-win:jidctred.obj
 0002:0009cfc0       _jpeg_idct_1x1             0054dfc0 f   libjpeg-turbo-win:jidctred.obj
 0002:0009d040       _jsimd_rgb_ycc_convert_sse2 0054e040     libjpeg-turbo-win:jccolss2.obj
 0002:0009d480       _jsimd_extrgb_ycc_convert_sse2 0054e480     libjpeg-turbo-win:jccolss2.obj
 0002:0009d8c0       _jsimd_extrgbx_ycc_convert_sse2 0054e8c0     libjpeg-turbo-win:jccolss2.obj
 0002:0009dcd0       _jsimd_extbgr_ycc_convert_sse2 0054ecd0     libjpeg-turbo-win:jccolss2.obj
 0002:0009e110       _jsimd_extbgrx_ycc_convert_sse2 0054f110     libjpeg-turbo-win:jccolss2.obj
 0002:0009e520       _jsimd_extxbgr_ycc_convert_sse2 0054f520     libjpeg-turbo-win:jccolss2.obj
 0002:0009e930       _jsimd_extxrgb_ycc_convert_sse2 0054f930     libjpeg-turbo-win:jccolss2.obj
 0002:0009ed40       _jpeg_simd_cpu_support     0054fd40     libjpeg-turbo-win:jsimdcpu.obj
 0002:0009edb0       _jsimd_ycc_rgb_convert_sse2 0054fdb0     libjpeg-turbo-win:jdcolss2.obj
 0002:0009f150       _jsimd_ycc_extrgb_convert_sse2 00550150     libjpeg-turbo-win:jdcolss2.obj
 0002:0009f4f0       _jsimd_ycc_extrgbx_convert_sse2 005504f0     libjpeg-turbo-win:jdcolss2.obj
 0002:0009f860       _jsimd_ycc_extbgr_convert_sse2 00550860     libjpeg-turbo-win:jdcolss2.obj
 0002:0009fc00       _jsimd_ycc_extbgrx_convert_sse2 00550c00     libjpeg-turbo-win:jdcolss2.obj
 0002:0009ff70       _jsimd_ycc_extxbgr_convert_sse2 00550f70     libjpeg-turbo-win:jdcolss2.obj
 0002:000a02e0       _jsimd_ycc_extxrgb_convert_sse2 005512e0     libjpeg-turbo-win:jdcolss2.obj
 0002:000a0650       _jsimd_rgb_ycc_convert_mmx 00551650     libjpeg-turbo-win:jccolmmx.obj
 0002:000a09c0       _jsimd_extrgb_ycc_convert_mmx 005519c0     libjpeg-turbo-win:jccolmmx.obj
 0002:000a0d30       _jsimd_extrgbx_ycc_convert_mmx 00551d30     libjpeg-turbo-win:jccolmmx.obj
 0002:000a1070       _jsimd_extbgr_ycc_convert_mmx 00552070     libjpeg-turbo-win:jccolmmx.obj
 0002:000a13e0       _jsimd_extbgrx_ycc_convert_mmx 005523e0     libjpeg-turbo-win:jccolmmx.obj
 0002:000a1720       _jsimd_extxbgr_ycc_convert_mmx 00552720     libjpeg-turbo-win:jccolmmx.obj
 0002:000a1a60       _jsimd_extxrgb_ycc_convert_mmx 00552a60     libjpeg-turbo-win:jccolmmx.obj
 0002:000a1da0       _jsimd_ycc_rgb_convert_mmx 00552da0     libjpeg-turbo-win:jdcolmmx.obj
 0002:000a2030       _jsimd_ycc_extrgb_convert_mmx 00553030     libjpeg-turbo-win:jdcolmmx.obj
 0002:000a22c0       _jsimd_ycc_extrgbx_convert_mmx 005532c0     libjpeg-turbo-win:jdcolmmx.obj
 0002:000a2520       _jsimd_ycc_extbgr_convert_mmx 00553520     libjpeg-turbo-win:jdcolmmx.obj
 0002:000a27b0       _jsimd_ycc_extbgrx_convert_mmx 005537b0     libjpeg-turbo-win:jdcolmmx.obj
 0002:000a2a10       _jsimd_ycc_extxbgr_convert_mmx 00553a10     libjpeg-turbo-win:jdcolmmx.obj
 0002:000a2c70       _jsimd_ycc_extxrgb_convert_mmx 00553c70     libjpeg-turbo-win:jdcolmmx.obj
 0002:000a2ed0       _jsimd_h2v1_downsample_mmx 00553ed0     libjpeg-turbo-win:jcsammmx.obj
 0002:000a2f90       _jsimd_h2v2_downsample_mmx 00553f90     libjpeg-turbo-win:jcsammmx.obj
 0002:000a3090       _jsimd_h2v1_downsample_sse2 00554090     libjpeg-turbo-win:jcsamss2.obj
 0002:000a3180       _jsimd_h2v2_downsample_sse2 00554180     libjpeg-turbo-win:jcsamss2.obj
 0002:000a32c0       _jsimd_h2v1_fancy_upsample_mmx 005542c0     libjpeg-turbo-win:jdsammmx.obj
 0002:000a33f0       _jsimd_h2v2_fancy_upsample_mmx 005543f0     libjpeg-turbo-win:jdsammmx.obj
 0002:000a36d0       _jsimd_h2v1_upsample_mmx   005546d0     libjpeg-turbo-win:jdsammmx.obj
 0002:000a3750       _jsimd_h2v2_upsample_mmx   00554750     libjpeg-turbo-win:jdsammmx.obj
 0002:000a37f0       _jsimd_h2v1_fancy_upsample_sse2 005547f0     libjpeg-turbo-win:jdsamss2.obj
 0002:000a3950       _jsimd_h2v2_fancy_upsample_sse2 00554950     libjpeg-turbo-win:jdsamss2.obj
 0002:000a3cc0       _jsimd_h2v1_upsample_sse2  00554cc0     libjpeg-turbo-win:jdsamss2.obj
 0002:000a3d40       _jsimd_h2v2_upsample_sse2  00554d40     libjpeg-turbo-win:jdsamss2.obj
 0002:000a3df0       _jsimd_h2v1_merged_upsample_sse2 00554df0     libjpeg-turbo-win:jdmerss2.obj
 0002:000a4190       _jsimd_h2v2_merged_upsample_sse2 00555190     libjpeg-turbo-win:jdmerss2.obj
 0002:000a41e0       _jsimd_h2v1_extrgb_merged_upsample_sse2 005551e0     libjpeg-turbo-win:jdmerss2.obj
 0002:000a4580       _jsimd_h2v2_extrgb_merged_upsample_sse2 00555580     libjpeg-turbo-win:jdmerss2.obj
 0002:000a45d0       _jsimd_h2v1_extrgbx_merged_upsample_sse2 005555d0     libjpeg-turbo-win:jdmerss2.obj
 0002:000a4930       _jsimd_h2v2_extrgbx_merged_upsample_sse2 00555930     libjpeg-turbo-win:jdmerss2.obj
 0002:000a4980       _jsimd_h2v1_extbgr_merged_upsample_sse2 00555980     libjpeg-turbo-win:jdmerss2.obj
 0002:000a4d20       _jsimd_h2v2_extbgr_merged_upsample_sse2 00555d20     libjpeg-turbo-win:jdmerss2.obj
 0002:000a4d70       _jsimd_h2v1_extbgrx_merged_upsample_sse2 00555d70     libjpeg-turbo-win:jdmerss2.obj
 0002:000a50d0       _jsimd_h2v2_extbgrx_merged_upsample_sse2 005560d0     libjpeg-turbo-win:jdmerss2.obj
 0002:000a5120       _jsimd_h2v1_extxbgr_merged_upsample_sse2 00556120     libjpeg-turbo-win:jdmerss2.obj
 0002:000a5480       _jsimd_h2v2_extxbgr_merged_upsample_sse2 00556480     libjpeg-turbo-win:jdmerss2.obj
 0002:000a54d0       _jsimd_h2v1_extxrgb_merged_upsample_sse2 005564d0     libjpeg-turbo-win:jdmerss2.obj
 0002:000a5830       _jsimd_h2v2_extxrgb_merged_upsample_sse2 00556830     libjpeg-turbo-win:jdmerss2.obj
 0002:000a5880       _jsimd_h2v1_merged_upsample_mmx 00556880     libjpeg-turbo-win:jdmermmx.obj
 0002:000a5b00       _jsimd_h2v2_merged_upsample_mmx 00556b00     libjpeg-turbo-win:jdmermmx.obj
 0002:000a5b50       _jsimd_h2v1_extrgb_merged_upsample_mmx 00556b50     libjpeg-turbo-win:jdmermmx.obj
 0002:000a5dd0       _jsimd_h2v2_extrgb_merged_upsample_mmx 00556dd0     libjpeg-turbo-win:jdmermmx.obj
 0002:000a5e20       _jsimd_h2v1_extrgbx_merged_upsample_mmx 00556e20     libjpeg-turbo-win:jdmermmx.obj
 0002:000a6070       _jsimd_h2v2_extrgbx_merged_upsample_mmx 00557070     libjpeg-turbo-win:jdmermmx.obj
 0002:000a60c0       _jsimd_h2v1_extbgr_merged_upsample_mmx 005570c0     libjpeg-turbo-win:jdmermmx.obj
 0002:000a6340       _jsimd_h2v2_extbgr_merged_upsample_mmx 00557340     libjpeg-turbo-win:jdmermmx.obj
 0002:000a6390       _jsimd_h2v1_extbgrx_merged_upsample_mmx 00557390     libjpeg-turbo-win:jdmermmx.obj
 0002:000a65e0       _jsimd_h2v2_extbgrx_merged_upsample_mmx 005575e0     libjpeg-turbo-win:jdmermmx.obj
 0002:000a6630       _jsimd_h2v1_extxbgr_merged_upsample_mmx 00557630     libjpeg-turbo-win:jdmermmx.obj
 0002:000a6880       _jsimd_h2v2_extxbgr_merged_upsample_mmx 00557880     libjpeg-turbo-win:jdmermmx.obj
 0002:000a68d0       _jsimd_h2v1_extxrgb_merged_upsample_mmx 005578d0     libjpeg-turbo-win:jdmermmx.obj
 0002:000a6b20       _jsimd_h2v2_extxrgb_merged_upsample_mmx 00557b20     libjpeg-turbo-win:jdmermmx.obj
 0002:000a6b70       _jsimd_convsamp_mmx        00557b70     libjpeg-turbo-win:jcqntmmx.obj
 0002:000a6c20       _jsimd_quantize_mmx        00557c20     libjpeg-turbo-win:jcqntmmx.obj
 0002:000a6cf0       _jsimd_convsamp_sse2       00557cf0     libjpeg-turbo-win:jcqnts2i.obj
 0002:000a6d80       _jsimd_quantize_sse2       00557d80     libjpeg-turbo-win:jcqnts2i.obj
 0002:000a6e90       _jsimd_convsamp_float_3dnow 00557e90     libjpeg-turbo-win:jcqnt3dn.obj
 0002:000a6f60       _jsimd_quantize_float_3dnow 00557f60     libjpeg-turbo-win:jcqnt3dn.obj
 0002:000a7040       _jsimd_convsamp_float_sse  00558040     libjpeg-turbo-win:jcqntsse.obj
 0002:000a7100       _jsimd_quantize_float_sse  00558100     libjpeg-turbo-win:jcqntsse.obj
 0002:000a7190       _jsimd_convsamp_float_sse2 00558190     libjpeg-turbo-win:jcqnts2f.obj
 0002:000a7220       _jsimd_quantize_float_sse2 00558220     libjpeg-turbo-win:jcqnts2f.obj
 0002:000a7290       _jsimd_fdct_islow_sse2     00558290     libjpeg-turbo-win:jfss2int.obj
 0002:000a7930       _jsimd_fdct_ifast_sse2     00558930     libjpeg-turbo-win:jfss2fst.obj
 0002:000a7d10       _jsimd_fdct_float_sse      00558d10     libjpeg-turbo-win:jfsseflt.obj
 0002:000a8010       _jsimd_fdct_islow_mmx      00559010     libjpeg-turbo-win:jfmmxint.obj
 0002:000a8540       _jsimd_fdct_ifast_mmx      00559540     libjpeg-turbo-win:jfmmxfst.obj
 0002:000a8830       _jsimd_fdct_float_3dnow    00559830     libjpeg-turbo-win:jf3dnflt.obj
 0002:000a8af0       _jsimd_idct_4x4_sse2       00559af0     libjpeg-turbo-win:jiss2red.obj
 0002:000a8e90       _jsimd_idct_2x2_sse2       00559e90     libjpeg-turbo-win:jiss2red.obj
 0002:000a9020       _jsimd_idct_4x4_mmx        0055a020     libjpeg-turbo-win:jimmxred.obj
 0002:000a9400       _jsimd_idct_2x2_mmx        0055a400     libjpeg-turbo-win:jimmxred.obj
 0002:000a95a0       _jsimd_idct_islow_sse2     0055a5a0     libjpeg-turbo-win:jiss2int.obj
 0002:000a9f60       _jsimd_idct_ifast_sse2     0055af60     libjpeg-turbo-win:jiss2fst.obj
 0002:000aa430       _jsimd_idct_float_sse      0055b430     libjpeg-turbo-win:jisseflt.obj
 0002:000aa940       _jsimd_idct_float_sse2     0055b940     libjpeg-turbo-win:jiss2flt.obj
 0002:000aadf0       _jsimd_idct_islow_mmx      0055bdf0     libjpeg-turbo-win:jimmxint.obj
 0002:000ab550       _jsimd_idct_ifast_mmx      0055c550     libjpeg-turbo-win:jimmxfst.obj
 0002:000ab920       _jsimd_idct_float_3dnow    0055c920     libjpeg-turbo-win:ji3dnflt.obj
 0002:000abd50       ??0ZlibInStream@rdr@@QAE@H@Z 0055cd50 f   rdr:ZlibInStream.obj
 0002:000abf90       ??_EZlibInStream@rdr@@UAEPAXI@Z 0055cf90 f i rdr:ZlibInStream.obj
 0002:000abf90       ??_GZlibInStream@rdr@@UAEPAXI@Z 0055cf90 f i rdr:ZlibInStream.obj
 0002:000ac000       ??1ZlibInStream@rdr@@UAE@XZ 0055d000 f   rdr:ZlibInStream.obj
 0002:000ac100       ?setUnderlying@ZlibInStream@rdr@@QAEXPAVInStream@2@H@Z 0055d100 f   rdr:ZlibInStream.obj
 0002:000ac170       ?pos@ZlibInStream@rdr@@UAEHXZ 0055d170 f   rdr:ZlibInStream.obj
 0002:000ac1c0       ?reset@ZlibInStream@rdr@@QAEXXZ 0055d1c0 f   rdr:ZlibInStream.obj
 0002:000ac270       ?overrun@ZlibInStream@rdr@@EAEHHH@Z 0055d270 f   rdr:ZlibInStream.obj
 0002:000ac430       ?decompress@ZlibInStream@rdr@@AAEXXZ 0055d430 f   rdr:ZlibInStream.obj
 0002:000ac5f0       ?getptr@InStream@rdr@@QBEPBEXZ 0055d5f0 f i rdr:ZlibInStream.obj
 0002:000ac630       ?getend@InStream@rdr@@QBEPBEXZ 0055d630 f i rdr:ZlibInStream.obj
 0002:000ac670       ?setptr@InStream@rdr@@QAEXPBE@Z 0055d670 f i rdr:ZlibInStream.obj
 0002:000ac6c0       ??0FdInStream@rdr@@QAE@HHH@Z 0055d6c0 f   rdr:FdInStream.obj
 0002:000ac880       ??_GFdInStream@rdr@@UAEPAXI@Z 0055d880 f i rdr:FdInStream.obj
 0002:000ac880       ??_EFdInStream@rdr@@UAEPAXI@Z 0055d880 f i rdr:FdInStream.obj
 0002:000ac8f0       ??0FdInStream@rdr@@QAE@HP6AXPAX@Z0H@Z 0055d8f0 f   rdr:FdInStream.obj
 0002:000acaa0       ??1FdInStream@rdr@@UAE@XZ  0055daa0 f   rdr:FdInStream.obj
 0002:000acb70       ?Update_socket@FdInStream@rdr@@QAEXXZ 0055db70 f   rdr:FdInStream.obj
 0002:000acbb0       ?pos@FdInStream@rdr@@UAEHXZ 0055dbb0 f   rdr:FdInStream.obj
 0002:000acc00       ?readBytes@FdInStream@rdr@@UAEXPAXH@Z 0055dc00 f   rdr:FdInStream.obj
 0002:000acd40       ?overrun@FdInStream@rdr@@MAEHHH@Z 0055dd40 f   rdr:FdInStream.obj
 0002:000acf00       ?Check_if_buffer_has_data@FdInStream@rdr@@QAEHXZ 0055df00 f   rdr:FdInStream.obj
 0002:000acf80       ?checkReadable@FdInStream@rdr@@AAEHHH@Z 0055df80 f   rdr:FdInStream.obj
 0002:000ad1a0       ?Passedusecs@@YA_JXZ       0055e1a0 f   rdr:FdInStream.obj
 0002:000ad3c0       ?readWithTimeoutOrCallback@FdInStream@rdr@@AAEHPAXH@Z 0055e3c0 f   rdr:FdInStream.obj
 0002:000ad930       ??0SystemException@rdr@@QAE@PBDH@Z 0055e930 f i rdr:FdInStream.obj
 0002:000adba0       ??0TimedOut@rdr@@QAE@PBD@Z 0055eba0 f i rdr:FdInStream.obj
 0002:000adc10       ??0SystemException@rdr@@QAE@ABU01@@Z 0055ec10 f i rdr:FdInStream.obj
 0002:000adc90       ??0TimedOut@rdr@@QAE@ABU01@@Z 0055ec90 f i rdr:FdInStream.obj
 0002:000add00       ?startTiming@FdInStream@rdr@@QAEXXZ 0055ed00 f   rdr:FdInStream.obj
 0002:000add80       ?stopTiming@FdInStream@rdr@@QAEXXZ 0055ed80 f   rdr:FdInStream.obj
 0002:000addf0       ?kbitsPerSecond@FdInStream@rdr@@QAEIXZ 0055edf0 f   rdr:FdInStream.obj
 0002:000ade40       ?SetReadFromMemoryBuffer@FdInStream@rdr@@QAEXHPAD@Z 0055ee40 f   rdr:FdInStream.obj
 0002:000adeb0       ??0ZlibOutStream@rdr@@QAE@PAVOutStream@1@HH@Z 0055eeb0 f   rdr:ZlibOutStream.obj
 0002:000ae0d0       ??_GZlibOutStream@rdr@@UAEPAXI@Z 0055f0d0 f i rdr:ZlibOutStream.obj
 0002:000ae0d0       ??_EZlibOutStream@rdr@@UAEPAXI@Z 0055f0d0 f i rdr:ZlibOutStream.obj
 0002:000ae140       ??1ZlibOutStream@rdr@@UAE@XZ 0055f140 f   rdr:ZlibOutStream.obj
 0002:000ae270       ?setUnderlying@ZlibOutStream@rdr@@QAEXPAVOutStream@2@@Z 0055f270 f   rdr:ZlibOutStream.obj
 0002:000ae2c0       ?length@ZlibOutStream@rdr@@UAEHXZ 0055f2c0 f   rdr:ZlibOutStream.obj
 0002:000ae310       ?flush@ZlibOutStream@rdr@@UAEXXZ 0055f310 f   rdr:ZlibOutStream.obj
 0002:000ae4c0       ?getptr@OutStream@rdr@@QAEPAEXZ 0055f4c0 f i rdr:ZlibOutStream.obj
 0002:000ae500       ?getend@OutStream@rdr@@QAEPAEXZ 0055f500 f i rdr:ZlibOutStream.obj
 0002:000ae540       ?setptr@OutStream@rdr@@QAEXPAE@Z 0055f540 f i rdr:ZlibOutStream.obj
 0002:000ae590       ?overrun@ZlibOutStream@rdr@@EAEHHH@Z 0055f590 f   rdr:ZlibOutStream.obj
 0002:000ae860       _crc32                     0055f860 f   unz32lib:crc32.obj
 0002:000aea80       _Wiz_Init@8                0055fa80 f   unz32lib:windll.obj
 0002:000aeb10       _Wiz_SetOpts@8             0055fb10 f   unz32lib:windll.obj
 0002:000aed80       _Wiz_Unzip@20              0055fd80 f   unz32lib:windll.obj
 0002:000aef10       _Wiz_SingleEntryUnzip@24   0055ff10 f   unz32lib:windll.obj
 0002:000af000       _win_fprintf               00560000 f   unz32lib:windll.obj
 0002:000af0a0       _UzpPassword@24            005600a0 f   unz32lib:windll.obj
 0002:000af100       _Wiz_NoPrinting@4          00560100 f   unz32lib:windll.obj
 0002:000af1b0       _Wiz_UnzipToMemory@16      005601b0 f   unz32lib:windll.obj
 0002:000af270       _Wiz_Grep@24               00560270 f   unz32lib:windll.obj
 0002:000af520       _Wiz_Validate@8            00560520 f   unz32lib:windll.obj
 0002:000af7f0       _get_crc_table             005607f0 f   unz32lib:crctab.obj
 0002:000af8c0       _globalsCtor               005608c0 f   unz32lib:globals.obj
 0002:000af9c0       _process_zipfiles          005609c0 f   unz32lib:process.obj
 0002:000b00b0       _free_G_buffers            005610b0 f   unz32lib:process.obj
 0002:000b12d0       _uz_end_central            005622d0 f   unz32lib:process.obj
 0002:000b1390       _process_cdir_file_hdr     00562390 f   unz32lib:process.obj
 0002:000b1590       _get_cdir_ent              00562590 f   unz32lib:process.obj
 0002:000b1720       _process_local_file_hdr    00562720 f   unz32lib:process.obj
 0002:000b1890       _ef_scan_for_izux          00562890 f   unz32lib:process.obj
 0002:000b2510       _UzpVersion@0              00563510 f   unz32lib:api.obj
 0002:000b25a0       _UzpVersion2@4             005635a0 f   unz32lib:api.obj
 0002:000b2650       _UzpFreeMemBuffer@4        00563650 f   unz32lib:api.obj
 0002:000b2690       _setFileNotFound           00563690 f   unz32lib:api.obj
 0002:000b26b0       _unzipToMemory             005636b0 f   unz32lib:api.obj
 0002:000b2740       _redirect_outfile          00563740 f   unz32lib:api.obj
 0002:000b2870       _writeToMemory             00563870 f   unz32lib:api.obj
 0002:000b2900       _close_redirect            00563900 f   unz32lib:api.obj
 0002:000b2990       _UzpValidate@8             00563990 f   unz32lib:api.obj
 0002:000b2d10       _open_input_file           00563d10 f   unz32lib:fileio.obj
 0002:000b2da0       _open_outfile              00563da0 f   unz32lib:fileio.obj
 0002:000b2f30       _undefer_input             00563f30 f   unz32lib:fileio.obj
 0002:000b2fd0       _defer_leftover_input      00563fd0 f   unz32lib:fileio.obj
 0002:000b3080       _readbuf                   00564080 f   unz32lib:fileio.obj
 0002:000b31e0       _readbyte                  005641e0 f   unz32lib:fileio.obj
 0002:000b33c0       _seek_zipf                 005643c0 f   unz32lib:fileio.obj
 0002:000b3530       _flush                     00564530 f   unz32lib:fileio.obj
 0002:000b3f00       _UzpMessagePrnt@16         00564f00 f   unz32lib:fileio.obj
 0002:000b4130       _UzpMessageNull@16         00565130 f   unz32lib:fileio.obj
 0002:000b4140       _UzpInput@16               00565140 f   unz32lib:fileio.obj
 0002:000b4170       _dos_to_unix_time          00565170 f   unz32lib:fileio.obj
 0002:000b42c0       _check_for_newer           005652c0 f   unz32lib:fileio.obj
 0002:000b4450       _do_string                 00565450 f   unz32lib:fileio.obj
 0002:000b4b30       _makeword                  00565b30 f   unz32lib:fileio.obj
 0002:000b4b50       _makelong                  00565b50 f   unz32lib:fileio.obj
 0002:000b4b80       _plastchar                 00565b80 f   unz32lib:fileio.obj
 0002:000b5390       _match                     00566390 f   unz32lib:match.obj
 0002:000b59a0       _iswild                    005669a0 f   unz32lib:match.obj
 0002:000b5bb0       _test_NTSD                 00566bb0 f   unz32lib:win32.obj
 0002:000b5bd0       _IsWinNT                   00566bd0 f   unz32lib:win32.obj
 0002:000b5c10       _SetFileSize               00566c10 f   unz32lib:win32.obj
 0002:000b5c90       _close_outfile             00566c90 f   unz32lib:win32.obj
 0002:000b6580       _defer_dir_attribs         00567580 f   unz32lib:win32.obj
 0002:000b66c0       _set_direc_attribs         005676c0 f   unz32lib:win32.obj
 0002:000b69f0       _stamp_file                005679f0 f   unz32lib:win32.obj
 0002:000b6cb0       _do_wild                   00567cb0 f   unz32lib:win32.obj
 0002:000b7400       _mapattr                   00568400 f   unz32lib:win32.obj
 0002:000b7440       _mapname                   00568440 f   unz32lib:win32.obj
 0002:000b7ee0       _checkdir                  00568ee0 f   unz32lib:win32.obj
 0002:000b8f70       _dateformat                00569f70 f   unz32lib:win32.obj
 0002:000b8fc0       _dateseparator             00569fc0 f   unz32lib:win32.obj
 0002:000b8ff0       _zstat_win32               00569ff0 f   unz32lib:win32.obj
 0002:000ba280       _inflate_codes             0056b280 f   unz32lib:inflate.obj
 0002:000baa70       _inflate_copy              0056ba70 f   unz32lib:inflate.obj
 0002:000bbf40       _inflate_free              0056cf40 f   unz32lib:inflate.obj
 0002:000bbfa0       _huft_build                0056cfa0 f   unz32lib:inflate.obj
 0002:000bc860       _huft_free                 0056d860 f   unz32lib:inflate.obj
 0002:000bd230       _extract_or_test_files     0056e230 f   unz32lib:extract.obj
 0002:000c0d70       _memextract                00571d70 f   unz32lib:extract.obj
 0002:000c1040       _memflush                  00572040 f   unz32lib:extract.obj
 0002:000c10c0       _extract_izvms_block       005720c0 f   unz32lib:extract.obj
 0002:000c12f0       _fnfilter                  005722f0 f   unz32lib:extract.obj
 0002:000c2450       _list_files                00573450 f   unz32lib:list.obj
 0002:000c2c40       _get_time_stamp            00573c40 f   unz32lib:list.obj
 0002:000c3140       _ratio                     00574140 f   unz32lib:list.obj
 0002:000c3200       _fnprint                   00574200 f   unz32lib:list.obj
 0002:000c35f0       _zi_end_central            005745f0 f   unz32lib:zipinfo.obj
 0002:000c3b40       _zipinfo                   00574b40 f   unz32lib:zipinfo.obj
 0002:000c90b0       _decrypt_byte              0057a0b0 f   unz32lib:crypt.obj
 0002:000c90f0       _update_keys               0057a0f0 f   unz32lib:crypt.obj
 0002:000c91b0       _init_keys                 0057a1b0 f   unz32lib:crypt.obj
 0002:000c9210       _decrypt                   0057a210 f   unz32lib:crypt.obj
 0002:000c9880       _ValidateSecurity          0057a880 f   unz32lib:nt.obj
 0002:000c99a0       _GetVolumeCaps             0057a9a0 f   unz32lib:nt.obj
 0002:000c9f10       _SecuritySet               0057af10 f   unz32lib:nt.obj
 0002:000ca3f0       _explode                   0057b3f0 f   unz32lib:explode.obj
 0002:000cc180       _unshrink                  0057d180 f   unz32lib:unshrink.obj
 0002:000ccb80       _AllocMemory               0057db80 f   zip32:api.obj
 0002:000ccc50       _ZpInit@4                  0057dc50 f   zip32:api.obj
 0002:000cccb0       _ZpSetOptions@4            0057dcb0 f   zip32:api.obj
 0002:000ccd70       _ZpGetOptions@0            0057dd70 f   zip32:api.obj
 0002:000ccda0       _ZpArchive@12              0057dda0 f   zip32:api.obj
 0002:000cd960       _encr_passwd               0057e960 f   zip32:api.obj
 0002:000cd9a0       _ZpVersion@4               0057e9a0 f   zip32:api.obj
 0002:000cddd0       _ziperr                    0057edd0 f   zip32:zip.obj
 0002:000ce1f0       _error                     0057f1f0 f   zip32:zip.obj
 0002:000ce210       _zipwarn                   0057f210 f   zip32:zip.obj
 0002:000ce250       _zipmain                   0057f250 f   zip32:zip.obj
 0002:000d1c20       _zsearch                   00582c20 f   zip32:zipfile.obj
 0002:000d1c90       _ziptyp                    00582c90 f   zip32:zipfile.obj
 0002:000d1d70       _readzipfile               00582d70 f   zip32:zipfile.obj
 0002:000d3c00       _putlocal                  00584c00 f   zip32:zipfile.obj
 0002:000d3f90       _putextended               00584f90 f   zip32:zipfile.obj
 0002:000d4140       _putcentral                00585140 f   zip32:zipfile.obj
 0002:000d46d0       _putend                    005856d0 f   zip32:zipfile.obj
 0002:000d48e0       _zipcopy                   005858e0 f   zip32:zipfile.obj
 0002:000d4a40       _get_ef_ut_ztime           00585a40 f   zip32:zipfile.obj
 0002:000d4dc0       _trash                     00585dc0 f   zip32:zipfile.obj
 0002:000d5e50       _getnam                    00586e50 f   zip32:fileio.obj
 0002:000d5f00       _fexpel                    00586f00 f   zip32:fileio.obj
 0002:000d5f90       _last                      00586f90 f   zip32:fileio.obj
 0002:000d5fc0       _msname                    00586fc0 f   zip32:fileio.obj
 0002:000d6170       _check_dup                 00587170 f   zip32:fileio.obj
 0002:000d63b0       _filter                    005873b0 f   zip32:fileio.obj
 0002:000d65c0       _newname                   005875c0 f   zip32:fileio.obj
 0002:000d6b00       _dostime                   00587b00 f   zip32:fileio.obj
 0002:000d6b60       _unix2dostime              00587b60 f   zip32:fileio.obj
 0002:000d6c40       _issymlnk                  00587c40 f   zip32:fileio.obj
 0002:000d6c50       _dos2unixtime              00587c50 f   zip32:fileio.obj
 0002:000d6d10       _destroy                   00587d10 f   zip32:fileio.obj
 0002:000d6d30       _replace                   00587d30 f   zip32:fileio.obj
 0002:000d6ed0       _getfileattr               00587ed0 f   zip32:fileio.obj
 0002:000d6f20       _setfileattr               00587f20 f   zip32:fileio.obj
 0002:000d6f40       _tempname                  00587f40 f   zip32:fileio.obj
 0002:000d7010       _fcopy                     00588010 f   zip32:fileio.obj
 0002:000d75f0       _lm_init                   005885f0 f   zip32:deflate.obj
 0002:000d7790       _lm_free                   00588790 f   zip32:deflate.obj
 0002:000d77a0       _longest_match2            005887a0 f   zip32:deflate.obj
 0002:000d7c40       _deflate_copy              00588c40 f   zip32:deflate.obj
 0002:000d8650       _percent                   00589650 f   zip32:zipup.obj
 0002:000d86c0       _zipup                     005896c0 f   zip32:zipup.obj
 0002:000d93b0       _flush_outbuf              0058a3b0 f   zip32:zipup.obj
 0002:000d9420       _seekable                  0058a420 f   zip32:zipup.obj
 0002:000d94a0       _memcompress               0058a4a0 f   zip32:zipup.obj
 0002:000d9a70       _DllMain@12                0058aa70 f   zip32:windll.obj
 0002:000d9aa0       _WEP@4                     0058aaa0 f   zip32:windll.obj
 0002:000d9ab0       _comment                   0058aab0 f   zip32:windll.obj
 0002:000d9bd0       _printff                   0058abd0 f   zip32:windll.obj
 0002:000d9d60       _pperror                   0058ad60 f   zip32:windll.obj
 0002:000d9e40       _isshexp                   0058ae40 f   zip32:util.obj
 0002:000d9ec0       _shmatch                   0058aec0 f   zip32:util.obj
 0002:000da3f0       _dosmatch                  0058b3f0 f   zip32:util.obj
 0002:000da4b0       _search                    0058b4b0 f   zip32:util.obj
 0002:000da530       _init_upper                0058b530 f   zip32:util.obj
 0002:000da5c0       _namecmp                   0058b5c0 f   zip32:util.obj
 0002:000da630       _lastchar                  0058b630 f   zip32:util.obj
 0002:000da670       _zmbschr                   0058b670 f   zip32:util.obj
 0002:000da6b0       _zmbsrchr                  0058b6b0 f   zip32:util.obj
 0002:000da700       _envargs                   0058b700 f   zip32:util.obj
 0002:000daad0       _expand_args               0058bad0 f   zip32:util.obj
 0002:000dae00       _wild                      0058be00 f   zip32:win32zip.obj
 0002:000db950       _procname                  0058c950 f   zip32:win32zip.obj
 0002:000db970       _ex2in                     0058c970 f   zip32:win32zip.obj
 0002:000dbc40       _in2ex                     0058cc40 f   zip32:win32zip.obj
 0002:000dbc80       _filetime                  0058cc80 f   zip32:win32zip.obj
 0002:000dbf00       _set_extra_field           0058cf00 f   zip32:win32zip.obj
 0002:000dc3c0       _deletedir                 0058d3c0 f   zip32:win32zip.obj
 0002:000dc950       _IsFileSystemOldFAT        0058d950 f   zip32:win32.obj
 0002:000dca20       _GetFileMode               0058da20 f   zip32:win32.obj
 0002:000dcaa0       _ChangeNameForFAT          0058daa0 f   zip32:win32.obj
 0002:000dcd50       _GetLongPathEA             0058dd50 f   zip32:win32.obj
 0002:000dcd60       _IsFileNameValid           0058dd60 f   zip32:win32.obj
 0002:000dcdb0       _getVolumeLabel            0058ddb0 f   zip32:win32.obj
 0002:000dce50       _stamp                     0058de50 f   zip32:win32.obj
 0002:000dd080       _ZipIsWinNT                0058e080 f   zip32:win32.obj
 0002:000dd0c0       _fseekable                 0058e0c0 f   zip32:win32.obj
 0002:000dd0f0       _zstat_zipwin32            0058e0f0 f   zip32:win32.obj
 0002:000dd870       _ct_init                   0058e870 f   zip32:trees.obj
 0002:000ddd10       _flush_block               0058ed10 f   zip32:trees.obj
 0002:000deaf0       _ct_tally                  0058faf0 f   zip32:trees.obj
 0002:000def80       _bi_init                   0058ff80 f   zip32:trees.obj
 0002:000dfab0       _zp_decrypt_byte           00590ab0 f   zip32:crypt.obj
 0002:000dfae0       _zp_update_keys            00590ae0 f   zip32:crypt.obj
 0002:000dfb70       _zp_init_keys              00590b70 f   zip32:crypt.obj
 0002:000dfbc0       _crypthead                 00590bc0 f   zip32:crypt.obj
 0002:000dfd60       _zfwrite                   00590d60 f   zip32:crypt.obj
 0002:000dfeb0       _ZipGetVolumeCaps          00590eb0 f   zip32:nt.obj
 0002:000e0410       _SecurityGet               00591410 f   zip32:nt.obj
 0002:000e0870       _uncompress                00591870 f   zlibstat:uncompr.obj
 0002:000e0980       _inflateReset              00591980 f   zlibstat:inflate.obj
 0002:000e0a90       _inflateReset2             00591a90 f   zlibstat:inflate.obj
 0002:000e0b60       _inflateInit2_             00591b60 f   zlibstat:inflate.obj
 0002:000e0c60       _inflateInit_              00591c60 f   zlibstat:inflate.obj
 0002:000e0c80       _inflatePrime              00591c80 f   zlibstat:inflate.obj
 0002:000e0d20       _inflate                   00591d20 f   zlibstat:inflate.obj
 0002:000e2fa0       _inflateEnd                00593fa0 f   zlibstat:inflate.obj
 0002:000e3020       _inflateSetDictionary      00594020 f   zlibstat:inflate.obj
 0002:000e3150       _inflateGetHeader          00594150 f   zlibstat:inflate.obj
 0002:000e31a0       _inflateSync               005941a0 f   zlibstat:inflate.obj
 0002:000e33c0       _inflateSyncPoint          005943c0 f   zlibstat:inflate.obj
 0002:000e3410       _inflateCopy               00594410 f   zlibstat:inflate.obj
 0002:000e35d0       _inflateUndermine          005945d0 f   zlibstat:inflate.obj
 0002:000e3620       _inflateMark               00594620 f   zlibstat:inflate.obj
 0002:000e41e0       _compress2                 005951e0 f   zlibstat:compress.obj
 0002:000e42b0       _compress                  005952b0 f   zlibstat:compress.obj
 0002:000e42d0       _compressBound             005952d0 f   zlibstat:compress.obj
 0002:000e4340       _adler32                   00595340 f   zlibstat:adler32.obj
 0002:000e47d0       _adler32_combine           005957d0 f   zlibstat:adler32.obj
 0002:000e48d0       _adler32_combine64         005958d0 f   zlibstat:adler32.obj
 0002:000e4a60       _deflateInit_              00595a60 f   zlibstat:deflate.obj
 0002:000e4a90       _deflateInit2_             00595a90 f   zlibstat:deflate.obj
 0002:000e4dd0       _deflateSetDictionary      00595dd0 f   zlibstat:deflate.obj
 0002:000e4f90       _deflateReset              00595f90 f   zlibstat:deflate.obj
 0002:000e50a0       _deflateSetHeader          005960a0 f   zlibstat:deflate.obj
 0002:000e50e0       _deflatePrime              005960e0 f   zlibstat:deflate.obj
 0002:000e5130       _deflateParams             00596130 f   zlibstat:deflate.obj
 0002:000e5260       _deflateTune               00596260 f   zlibstat:deflate.obj
 0002:000e52c0       _deflateBound              005962c0 f   zlibstat:deflate.obj
 0002:000e5440       _deflate                   00596440 f   zlibstat:deflate.obj
 0002:000e6420       _deflateEnd                00597420 f   zlibstat:deflate.obj
 0002:000e6560       _deflateCopy               00597560 f   zlibstat:deflate.obj
 0002:000e93c0       _zlibVersion               0059a3c0 f   zlibstat:zutil.obj
 0002:000e93d0       _zlibCompileFlags          0059a3d0 f   zlibstat:zutil.obj
 0002:000e94e0       _zError                    0059a4e0 f   zlibstat:zutil.obj
 0002:000e9500       _zcalloc                   0059a500 f   zlibstat:zutil.obj
 0002:000e9530       _zcfree                    0059a530 f   zlibstat:zutil.obj
 0002:000e95b0       _inflate_fast              0059a5b0 f   zlibstat:inffast.obj
 0002:000e9f00       _inflate_table             0059af00 f   zlibstat:inftrees.obj
 0002:000ea720       __tr_init                  0059b720 f   zlibstat:trees.obj
 0002:000ea8a0       __tr_stored_block          0059b8a0 f   zlibstat:trees.obj
 0002:000ea9e0       __tr_align                 0059b9e0 f   zlibstat:trees.obj
 0002:000eaea0       __tr_flush_block           0059bea0 f   zlibstat:trees.obj
 0002:000ecd40       __tr_tally                 0059dd40 f   zlibstat:trees.obj
 0002:000ee6e0       ??0omni_mutex@@QAE@XZ      0059f6e0 f   omnithread:nt.obj
 0002:000ee700       ??1omni_mutex@@QAE@XZ      0059f700 f   omnithread:nt.obj
 0002:000ee720       ?lock@omni_mutex@@QAEXXZ   0059f720 f   omnithread:nt.obj
 0002:000ee740       ?unlock@omni_mutex@@QAEXXZ 0059f740 f   omnithread:nt.obj
 0002:000ee760       ??0omni_condition@@QAE@PAVomni_mutex@@@Z 0059f760 f   omnithread:nt.obj
 0002:000ee7a0       ??1omni_condition@@QAE@XZ  0059f7a0 f   omnithread:nt.obj
 0002:000ee7c0       ?wait@omni_condition@@QAEXXZ 0059f7c0 f   omnithread:nt.obj
 0002:000ee8f0       ?timedwait@omni_condition@@QAEHKK@Z 0059f8f0 f   omnithread:nt.obj
 0002:000eeb90       ?signal@omni_condition@@QAEXXZ 0059fb90 f   omnithread:nt.obj
 0002:000eec50       ?broadcast@omni_condition@@QAEXXZ 0059fc50 f   omnithread:nt.obj
 0002:000eed20       ??0omni_semaphore@@QAE@I@Z 0059fd20 f   omnithread:nt.obj
 0002:000eed80       ??1omni_semaphore@@QAE@XZ  0059fd80 f   omnithread:nt.obj
 0002:000eedc0       ?wait@omni_semaphore@@QAEXXZ 0059fdc0 f   omnithread:nt.obj
 0002:000eee10       ?trywait@omni_semaphore@@QAEHXZ 0059fe10 f   omnithread:nt.obj
 0002:000eee70       ?post@omni_semaphore@@QAEXXZ 0059fe70 f   omnithread:nt.obj
 0002:000eeec0       ??0init_t@omni_thread@@QAE@XZ 0059fec0 f   omnithread:nt.obj
 0002:000ef0b0       _omni_thread_wrapper@4     005a00b0 f   omnithread:nt.obj
 0002:000ef1a0       ??0omni_thread@@QAE@P6AXPAX@Z0W4priority_t@0@@Z 005a01a0 f   omnithread:nt.obj
 0002:000ef230       ??0omni_thread@@QAE@P6APAXPAX@Z0W4priority_t@0@@Z 005a0230 f   omnithread:nt.obj
 0002:000ef2c0       ??0omni_thread@@IAE@PAXW4priority_t@0@@Z 005a02c0 f   omnithread:nt.obj
 0002:000ef350       ?common_constructor@omni_thread@@AAEXPAXW4priority_t@1@H@Z 005a0350 f   omnithread:nt.obj
 0002:000ef420       ??1omni_thread@@MAE@XZ     005a0420 f   omnithread:nt.obj
 0002:000ef4f0       ?start@omni_thread@@QAEXXZ 005a04f0 f   omnithread:nt.obj
 0002:000ef640       ?start_undetached@omni_thread@@IAEXXZ 005a0640 f   omnithread:nt.obj
 0002:000ef690       ?join@omni_thread@@QAEXPAPAX@Z 005a0690 f   omnithread:nt.obj
 0002:000ef7b0       ?set_priority@omni_thread@@QAEXW4priority_t@1@@Z 005a07b0 f   omnithread:nt.obj
 0002:000ef880       ?create@omni_thread@@SAPAV1@P6AXPAX@Z0W4priority_t@1@@Z 005a0880 f   omnithread:nt.obj
 0002:000ef910       ?create@omni_thread@@SAPAV1@P6APAXPAX@Z0W4priority_t@1@@Z 005a0910 f   omnithread:nt.obj
 0002:000ef9a0       ?exit@omni_thread@@SAXPAX@Z 005a09a0 f   omnithread:nt.obj
 0002:000efa30       ?self@omni_thread@@SAPAV1@XZ 005a0a30 f   omnithread:nt.obj
 0002:000efa50       ?yield@omni_thread@@SAXXZ  005a0a50 f   omnithread:nt.obj
 0002:000efa60       ?sleep@omni_thread@@SAXKK@Z 005a0a60 f   omnithread:nt.obj
 0002:000efb00       ?get_time@omni_thread@@SAXPAK0KK@Z 005a0b00 f   omnithread:nt.obj
 0002:000efb50       ?nt_priority@omni_thread@@CAHW4priority_t@1@@Z 005a0b50 f   omnithread:nt.obj
 0002:000f01e0       ??0omni_thread_fatal@@QAE@H@Z 005a11e0 f i omnithread:nt.obj
 0002:000f0200       ??0_internal_omni_thread_helper@@QAE@XZ 005a1200 f i omnithread:nt.obj
 0002:000f0330       ??0_internal_omni_thread_dummy@@QAE@XZ 005a1330 f i omnithread:nt.obj
 0002:000f0370       ?run_undetached@omni_thread@@EAEPAXPAX@Z 005a1370 f i omnithread:nt.obj
 0002:000f0390       ??_G_internal_omni_thread_dummy@@UAEPAXI@Z 005a1390 f i omnithread:nt.obj
 0002:000f0390       ??_E_internal_omni_thread_dummy@@UAEPAXI@Z 005a1390 f i omnithread:nt.obj
 0002:000f03d0       ??1_internal_omni_thread_dummy@@UAE@XZ 005a13d0 f i omnithread:nt.obj
 0002:000f0400       ??1_internal_omni_thread_helper@@QAE@XZ 005a1400 f i omnithread:nt.obj
 0002:000f0460       ??B_internal_omni_thread_helper@@QAEPAVomni_thread@@XZ 005a1460 f i omnithread:nt.obj
 0002:000f0480       ??C_internal_omni_thread_helper@@QAEPAVomni_thread@@XZ 005a1480 f i omnithread:nt.obj
 0002:000f04a0       ??_Gomni_thread@@MAEPAXI@Z 005a14a0 f i omnithread:nt.obj
 0002:000f04a0       ??_Eomni_thread@@MAEPAXI@Z 005a14a0 f i omnithread:nt.obj
 0002:000f04e0       ??0_Init_locks@std@@QAE@XZ 005a14e0 f   libcpmtd:xlock.obj
 0002:000f0550       ??1_Init_locks@std@@QAE@XZ 005a1550 f   libcpmtd:xlock.obj
 0002:000f05b0       ?_Init_locks_ctor@_Init_locks@std@@CAXPAV12@@Z 005a15b0 f   libcpmtd:xlock.obj
 0002:000f0610       ?_Init_locks_dtor@_Init_locks@std@@CAXPAV12@@Z 005a1610 f   libcpmtd:xlock.obj
 0002:000f0670       ??0_Lockit@std@@QAE@XZ     005a1670 f   libcpmtd:xlock.obj
 0002:000f06a0       ??0_Lockit@std@@QAE@H@Z    005a16a0 f   libcpmtd:xlock.obj
 0002:000f06f0       ??1_Lockit@std@@QAE@XZ     005a16f0 f   libcpmtd:xlock.obj
 0002:000f0730       ?_Lockit_ctor@_Lockit@std@@CAXPAV12@@Z 005a1730 f   libcpmtd:xlock.obj
 0002:000f0750       ?_Lockit_ctor@_Lockit@std@@CAXPAV12@H@Z 005a1750 f   libcpmtd:xlock.obj
 0002:000f0790       ?_Lockit_dtor@_Lockit@std@@CAXPAV12@@Z 005a1790 f   libcpmtd:xlock.obj
 0002:000f07c0       ?_Lockit_ctor@_Lockit@std@@SAXH@Z 005a17c0 f   libcpmtd:xlock.obj
 0002:000f07f0       ?_Lockit_dtor@_Lockit@std@@SAXH@Z 005a17f0 f   libcpmtd:xlock.obj
 0002:000f0820       ?_Debug_message@std@@YAXPB_W0I@Z 005a1820 f   libcpmtd:stdthrow.obj
 0002:000f0850       ?_Debug_message@std@@YAXPBG0I@Z 005a1850 f   libcpmtd:stdthrow.obj
 0002:000f0880       ??_U@YAPAXI@Z              005a1880 f   libcpmtd:newaop.obj
 0002:000f08a0       ?_Xinvalid_argument@std@@YAXPBD@Z 005a18a0 f   libcpmtd:xthrow.obj
 0002:000f08d0       ??0invalid_argument@std@@QAE@PBD@Z 005a18d0 f i libcpmtd:xthrow.obj
 0002:000f0900       ??0logic_error@std@@QAE@PBD@Z 005a1900 f i libcpmtd:xthrow.obj
 0002:000f0930       ??_Elogic_error@std@@UAEPAXI@Z 005a1930 f i libcpmtd:xthrow.obj
 0002:000f0930       ??_Glogic_error@std@@UAEPAXI@Z 005a1930 f i libcpmtd:xthrow.obj
 0002:000f0970       ??1logic_error@std@@UAE@XZ 005a1970 f i libcpmtd:xthrow.obj
 0002:000f0990       ??_Einvalid_argument@std@@UAEPAXI@Z 005a1990 f i libcpmtd:xthrow.obj
 0002:000f0990       ??_Ginvalid_argument@std@@UAEPAXI@Z 005a1990 f i libcpmtd:xthrow.obj
 0002:000f09d0       ??1invalid_argument@std@@UAE@XZ 005a19d0 f i libcpmtd:xthrow.obj
 0002:000f09f0       ??0invalid_argument@std@@QAE@ABV01@@Z 005a19f0 f i libcpmtd:xthrow.obj
 0002:000f0a20       ??0logic_error@std@@QAE@ABV01@@Z 005a1a20 f i libcpmtd:xthrow.obj
 0002:000f0a50       ?_Xlength_error@std@@YAXPBD@Z 005a1a50 f   libcpmtd:xthrow.obj
 0002:000f0a80       ??0length_error@std@@QAE@PBD@Z 005a1a80 f i libcpmtd:xthrow.obj
 0002:000f0ab0       ??_Elength_error@std@@UAEPAXI@Z 005a1ab0 f i libcpmtd:xthrow.obj
 0002:000f0ab0       ??_Glength_error@std@@UAEPAXI@Z 005a1ab0 f i libcpmtd:xthrow.obj
 0002:000f0af0       ??1length_error@std@@UAE@XZ 005a1af0 f i libcpmtd:xthrow.obj
 0002:000f0b10       ??0length_error@std@@QAE@ABV01@@Z 005a1b10 f i libcpmtd:xthrow.obj
 0002:000f0b40       ?_Xout_of_range@std@@YAXPBD@Z 005a1b40 f   libcpmtd:xthrow.obj
 0002:000f0b70       ??0out_of_range@std@@QAE@PBD@Z 005a1b70 f i libcpmtd:xthrow.obj
 0002:000f0ba0       ??_Eout_of_range@std@@UAEPAXI@Z 005a1ba0 f i libcpmtd:xthrow.obj
 0002:000f0ba0       ??_Gout_of_range@std@@UAEPAXI@Z 005a1ba0 f i libcpmtd:xthrow.obj
 0002:000f0be0       ??1out_of_range@std@@UAE@XZ 005a1be0 f i libcpmtd:xthrow.obj
 0002:000f0c00       ??0out_of_range@std@@QAE@ABV01@@Z 005a1c00 f i libcpmtd:xthrow.obj
 0002:000f0c30       ?_Xoverflow_error@std@@YAXPBD@Z 005a1c30 f   libcpmtd:xthrow.obj
 0002:000f0c60       ??0overflow_error@std@@QAE@PBD@Z 005a1c60 f i libcpmtd:xthrow.obj
 0002:000f0c90       ??0runtime_error@std@@QAE@PBD@Z 005a1c90 f i libcpmtd:xthrow.obj
 0002:000f0cc0       ??_Gruntime_error@std@@UAEPAXI@Z 005a1cc0 f i libcpmtd:xthrow.obj
 0002:000f0cc0       ??_Eruntime_error@std@@UAEPAXI@Z 005a1cc0 f i libcpmtd:xthrow.obj
 0002:000f0d00       ??1runtime_error@std@@UAE@XZ 005a1d00 f i libcpmtd:xthrow.obj
 0002:000f0d20       ??_Eoverflow_error@std@@UAEPAXI@Z 005a1d20 f i libcpmtd:xthrow.obj
 0002:000f0d20       ??_Goverflow_error@std@@UAEPAXI@Z 005a1d20 f i libcpmtd:xthrow.obj
 0002:000f0d60       ??1overflow_error@std@@UAE@XZ 005a1d60 f i libcpmtd:xthrow.obj
 0002:000f0d80       ??0overflow_error@std@@QAE@ABV01@@Z 005a1d80 f i libcpmtd:xthrow.obj
 0002:000f0db0       ??0runtime_error@std@@QAE@ABV01@@Z 005a1db0 f i libcpmtd:xthrow.obj
 0002:000f0de0       ?_Xruntime_error@std@@YAXPBD@Z 005a1de0 f   libcpmtd:xthrow.obj
 0002:000f0e10       __Once                     005a1e10 f   libcpmtd:xmtx.obj
 0002:000f0e80       __Mtxinit                  005a1e80 f   libcpmtd:xmtx.obj
 0002:000f0ea0       __Mtxdst                   005a1ea0 f   libcpmtd:xmtx.obj
 0002:000f0ec0       __Mtxlock                  005a1ec0 f   libcpmtd:xmtx.obj
 0002:000f0ee0       __Mtxunlock                005a1ee0 f   libcpmtd:xmtx.obj
 0002:000f0f00       @__security_check_cookie@4 005a1f00 f   LIBCMTD:secchk.obj
 0002:000f0f20       ?name@type_info@@QBEPBDPAU__type_info_node@@@Z 005a1f20 f   LIBCMTD:typinfo.obj
 0002:000f0f50       ??1type_info@@UAE@XZ       005a1f50 f   LIBCMTD:typinfo.obj
 0002:000f0f80       ??_Etype_info@@UAEPAXI@Z   005a1f80 f i LIBCMTD:typinfo.obj
 0002:000f0f80       ??_Gtype_info@@UAEPAXI@Z   005a1f80 f i LIBCMTD:typinfo.obj
 0002:000f0fc0       ?_name_internal_method@type_info@@QBEPBDPAU__type_info_node@@@Z 005a1fc0 f   LIBCMTD:typinfo.obj
 0002:000f0ff0       ?_type_info_dtor_internal_method@type_info@@QAEXXZ 005a1ff0 f   LIBCMTD:typinfo.obj
 0002:000f1010       ??8type_info@@QBE_NABV0@@Z 005a2010 f   LIBCMTD:typinfo.obj
 0002:000f1050       ??9type_info@@QBE_NABV0@@Z 005a2050 f   LIBCMTD:typinfo.obj
 0002:000f1090       ?before@type_info@@QBEHABV1@@Z 005a2090 f   LIBCMTD:typinfo.obj
 0002:000f10d0       ?raw_name@type_info@@QBEPBDXZ 005a20d0 f   LIBCMTD:typinfo.obj
 0002:000f10f0       ??0type_info@@AAE@ABV0@@Z  005a20f0 f   LIBCMTD:typinfo.obj
 0002:000f1120       ??4type_info@@AAEAAV0@ABV0@@Z 005a2120 f   LIBCMTD:typinfo.obj
 0002:000f1140       ??3@YAXPAX@Z               005a2140 f   LIBCMTD:dbgdel.obj
 0002:000f1260       ?_JumpToContinuation@@YGXPAXPAUEHRegistrationNode@@@Z 005a2260 f   LIBCMTD:_trnsctrl_.obj
 0002:000f12b0       ?_CallMemberFunction0@@YGXPAX0@Z 005a22b0 f   LIBCMTD:_trnsctrl_.obj
 0002:000f12c0       ?_CallMemberFunction1@@YGXPAX00@Z 005a22c0 f   LIBCMTD:_trnsctrl_.obj
 0002:000f12d0       ?_CallMemberFunction2@@YGXPAX00H@Z 005a22d0 f   LIBCMTD:_trnsctrl_.obj
 0002:000f12e0       ?_UnwindNestedFrames@@YGXPAUEHRegistrationNode@@PAUEHExceptionRecord@@@Z 005a22e0 f   LIBCMTD:_trnsctrl_.obj
 0002:000f1350       ___CxxFrameHandler         005a2350 f   LIBCMTD:_trnsctrl_.obj
 0002:000f13a0       ___CxxFrameHandler3        005a23a0 f   LIBCMTD:_trnsctrl_.obj
 0002:000f13f0       ___CxxFrameHandler2        005a23f0 f   LIBCMTD:_trnsctrl_.obj
 0002:000f1440       ___CxxLongjmpUnwind@4      005a2440 f   LIBCMTD:_trnsctrl_.obj
 0002:000f1480       ?_CallCatchBlock2@@YAPAXPAUEHRegistrationNode@@PBU_s_FuncInfo@@PAXHK@Z 005a2480 f   LIBCMTD:_trnsctrl_.obj
 0002:000f1570       ?_CallSETranslator@@YAHPAUEHExceptionRecord@@PAUEHRegistrationNode@@PAX2PBU_s_FuncInfo@@H1@Z 005a2570 f   LIBCMTD:_trnsctrl_.obj
 0002:000f1780       ?_GetRangeOfTrysToCheck@@YAPBU_s_TryBlockMapEntry@@PBU_s_FuncInfo@@HHPAI1@Z 005a2780 f   LIBCMTD:_trnsctrl_.obj
 0002:000f1820       __CreateFrameInfo          005a2820 f   LIBCMTD:_trnsctrl_.obj
 0002:000f1860       __IsExceptionObjectToBeDestroyed 005a2860 f   LIBCMTD:_trnsctrl_.obj
 0002:000f18a0       __FindAndUnlinkFrame       005a28a0 f   LIBCMTD:_trnsctrl_.obj
 0002:000f1910       _strcpy                    005a2910 f   LIBCMTD:strcat.obj
 0002:000f1920       _strcat                    005a2920 f   LIBCMTD:strcat.obj
 0002:000f1a50       _sprintf                   005a2a50 f   LIBCMTD:sprintf.obj
 0002:000f1c50       __sprintf_l                005a2c50 f   LIBCMTD:sprintf.obj
 0002:000f1c90       _sprintf_s                 005a2c90 f   LIBCMTD:sprintf.obj
 0002:000f1cd0       __sprintf_s_l              005a2cd0 f   LIBCMTD:sprintf.obj
 0002:000f1d10       __snprintf_s               005a2d10 f   LIBCMTD:sprintf.obj
 0002:000f1d50       __snprintf_s_l             005a2d50 f   LIBCMTD:sprintf.obj
 0002:000f1d90       __sprintf_p                005a2d90 f   LIBCMTD:sprintf.obj
 0002:000f1dd0       __sprintf_p_l              005a2dd0 f   LIBCMTD:sprintf.obj
 0002:000f1e10       __scprintf                 005a2e10 f   LIBCMTD:sprintf.obj
 0002:000f1e40       __scprintf_p               005a2e40 f   LIBCMTD:sprintf.obj
 0002:000f1e70       __scprintf_l               005a2e70 f   LIBCMTD:sprintf.obj
 0002:000f1ea0       __scprintf_p_l             005a2ea0 f   LIBCMTD:sprintf.obj
 0002:000f1ed0       _strncpy                   005a2ed0 f   LIBCMTD:strncpy.obj
 0002:000f2040       ??2@YAPAXI@Z               005a3040 f   LIBCMTD:new.obj
 0002:000f20e0       ??0bad_alloc@std@@QAE@XZ   005a30e0 f i LIBCMTD:new.obj
 0002:000f2120       _strlen                    005a3120 f   LIBCMTD:strlen.obj
 0002:000f21d0       _strcmp                    005a31d0 f   LIBCMTD:strcmp.obj
 0002:000f2280       __snprintf                 005a3280 f   LIBCMTD:snprintf.obj
 0002:000f24c0       __snprintf_l               005a34c0 f   LIBCMTD:snprintf.obj
 0002:000f2500       __stricmp_l                005a3500 f   LIBCMTD:stricmp.obj
 0002:000f2710       ??0_LocaleUpdate@@QAE@PAUlocaleinfo_struct@@@Z 005a3710 f i LIBCMTD:stricmp.obj
 0002:000f2820       ??1_LocaleUpdate@@QAE@XZ   005a3820 f i LIBCMTD:stricmp.obj
 0002:000f2860       ?GetLocaleT@_LocaleUpdate@@QAEPAUlocaleinfo_struct@@XZ 005a3860 f i LIBCMTD:stricmp.obj
 0002:000f2880       ___ascii_stricmp           005a3880 f   LIBCMTD:stricmp.obj
 0002:000f2910       __stricmp                  005a3910 f   LIBCMTD:stricmp.obj
 0002:000f2a60       __CxxThrowException@8      005a3a60 f   LIBCMTD:throw.obj
 0002:000f2ad0       __purecall                 005a3ad0 f   LIBCMTD:purevirt.obj
 0002:000f2b20       __set_purecall_handler     005a3b20 f   LIBCMTD:purevirt.obj
 0002:000f2b60       __get_purecall_handler     005a3b60 f   LIBCMTD:purevirt.obj
 0002:000f2b80       _sscanf                    005a3b80 f   LIBCMTD:sscanf.obj
 0002:000f2d70       __sscanf_l                 005a3d70 f   LIBCMTD:sscanf.obj
 0002:000f2db0       _sscanf_s                  005a3db0 f   LIBCMTD:sscanf.obj
 0002:000f2df0       __sscanf_s_l               005a3df0 f   LIBCMTD:sscanf.obj
 0002:000f2e30       __itoa                     005a3e30 f   LIBCMTD:xtoa.obj
 0002:000f2f80       __ltoa                     005a3f80 f   LIBCMTD:xtoa.obj
 0002:000f2fd0       __ultoa                    005a3fd0 f   LIBCMTD:xtoa.obj
 0002:000f3000       __i64toa                   005a4000 f   LIBCMTD:xtoa.obj
 0002:000f31a0       __ui64toa                  005a41a0 f   LIBCMTD:xtoa.obj
 0002:000f31d0       _memset                    005a41d0 f   LIBCMTD:memset.obj
 0002:000f3270       ??_V@YAXPAX@Z              005a4270 f   LIBCMTD:delete2.obj
 0002:000f3290       _free                      005a4290 f   LIBCMTD:dbgfree.obj
 0002:000f32b0       __chkstk                   005a42b0 f   LIBCMTD:chkstk.obj
 0002:000f32b0       __alloca_probe             005a42b0     LIBCMTD:chkstk.obj
 0002:000f32f0       __time64                   005a42f0 f   LIBCMTD:time64.obj
 0002:000f3390       _memcpy                    005a4390 f   LIBCMTD:memcpy.obj
 0002:000f37d0       _abs                       005a47d0 f   LIBCMTD:abs.obj
 0002:000f3800       __abs64                    005a4800 f   LIBCMTD:abs.obj
 0002:000f3860       _memcmp                    005a4860 f   LIBCMTD:memcmp.obj
 0002:000f4580       __allmul                   005a5580 f   LIBCMTD:llmul.obj
 0002:000f45d0       __alldiv                   005a55d0 f   LIBCMTD:lldiv.obj
 0002:000f46b0       __allrem                   005a56b0 f   LIBCMTD:llrem.obj
 0002:000f4790       __initp_misc_invarg        005a5790 f   LIBCMTD:invarg.obj
 0002:000f47b0       __invalid_parameter        005a57b0 f   LIBCMTD:invarg.obj
 0002:000f4820       __invoke_watson            005a5820 f   LIBCMTD:invarg.obj
 0002:000f4860       __call_reportfault         005a5860 f   LIBCMTD:invarg.obj
 0002:000f4a10       __set_invalid_parameter_handler 005a5a10 f   LIBCMTD:invarg.obj
 0002:000f4a60       __get_invalid_parameter_handler 005a5a60 f   LIBCMTD:invarg.obj
 0002:000f4aa0       ?_invalid_parameter@@YAXPBG00II@Z 005a5aa0 f   LIBCMTD:invarg.obj
 0002:000f4ad0       ?_invoke_watson@@YAXPBG00II@Z 005a5ad0 f   LIBCMTD:invarg.obj
 0002:000f4b00       __CrtSetReportHookW2       005a5b00 f   LIBCMTD:dbgrptw.obj
 0002:000f4ef0       __CrtDbgReportW            005a5ef0 f   LIBCMTD:dbgrptw.obj
 0002:000f4f40       __CrtDbgReportWV           005a5f40 f i LIBCMTD:dbgrptw.obj
 0002:000f4f70       ___crtMessageWindowW       005a5f70 f   LIBCMTD:dbgrptw.obj
 0002:000f5470       __invoke_watson_if_error   005a6470 f i LIBCMTD:dbgrptw.obj
 0002:000f54b0       __invoke_watson_if_oneof   005a64b0 f i LIBCMTD:dbgrptw.obj
 0002:000f5500       ?_CrtDbgReportW@@YAHHPBGH00ZZ 005a6500 f   LIBCMTD:dbgrptw.obj
 0002:000f5550       _memmove                   005a6550 f   LIBCMTD:memmove.obj
 0002:000f5990       ??0exception@std@@QAE@XZ   005a6990 f   LIBCMTD:stdexcpt.obj
 0002:000f59d0       ??_Eexception@std@@UAEPAXI@Z 005a69d0 f i LIBCMTD:stdexcpt.obj
 0002:000f59d0       ??_Gexception@std@@UAEPAXI@Z 005a69d0 f i LIBCMTD:stdexcpt.obj
 0002:000f5a10       ??0exception@std@@QAE@ABQBD@Z 005a6a10 f   LIBCMTD:stdexcpt.obj
 0002:000f5a60       ??0exception@std@@QAE@ABQBDH@Z 005a6a60 f   LIBCMTD:stdexcpt.obj
 0002:000f5aa0       ??0exception@std@@QAE@ABV01@@Z 005a6aa0 f   LIBCMTD:stdexcpt.obj
 0002:000f5af0       ??4exception@std@@QAEAAV01@ABV01@@Z 005a6af0 f   LIBCMTD:stdexcpt.obj
 0002:000f5b50       ??1exception@std@@UAE@XZ   005a6b50 f   LIBCMTD:stdexcpt.obj
 0002:000f5b80       ?what@exception@std@@UBEPBDXZ 005a6b80 f   LIBCMTD:stdexcpt.obj
 0002:000f5bc0       ?_Copy_str@exception@std@@AAEXPBD@Z 005a6bc0 f   LIBCMTD:stdexcpt.obj
 0002:000f5c40       ?_Tidy@exception@std@@AAEXXZ 005a6c40 f   LIBCMTD:stdexcpt.obj
 0002:000f5c90       ??0bad_cast@std@@QAE@PBD@Z 005a6c90 f   LIBCMTD:stdexcpt.obj
 0002:000f5cc0       ??_Gbad_cast@std@@UAEPAXI@Z 005a6cc0 f i LIBCMTD:stdexcpt.obj
 0002:000f5cc0       ??_Ebad_cast@std@@UAEPAXI@Z 005a6cc0 f i LIBCMTD:stdexcpt.obj
 0002:000f5d00       ??0bad_cast@std@@QAE@ABV01@@Z 005a6d00 f   LIBCMTD:stdexcpt.obj
 0002:000f5d30       ??1bad_cast@std@@UAE@XZ    005a6d30 f   LIBCMTD:stdexcpt.obj
 0002:000f5d60       ??0bad_typeid@std@@QAE@PBD@Z 005a6d60 f   LIBCMTD:stdexcpt.obj
 0002:000f5d90       ??_Gbad_typeid@std@@UAEPAXI@Z 005a6d90 f i LIBCMTD:stdexcpt.obj
 0002:000f5d90       ??_Ebad_typeid@std@@UAEPAXI@Z 005a6d90 f i LIBCMTD:stdexcpt.obj
 0002:000f5dd0       ??0bad_typeid@std@@QAE@ABV01@@Z 005a6dd0 f   LIBCMTD:stdexcpt.obj
 0002:000f5e00       ??1bad_typeid@std@@UAE@XZ  005a6e00 f   LIBCMTD:stdexcpt.obj
 0002:000f5e30       ??0__non_rtti_object@std@@QAE@PBD@Z 005a6e30 f   LIBCMTD:stdexcpt.obj
 0002:000f5e60       ??_E__non_rtti_object@std@@UAEPAXI@Z 005a6e60 f i LIBCMTD:stdexcpt.obj
 0002:000f5e60       ??_G__non_rtti_object@std@@UAEPAXI@Z 005a6e60 f i LIBCMTD:stdexcpt.obj
 0002:000f5ea0       ??0__non_rtti_object@std@@QAE@ABV01@@Z 005a6ea0 f   LIBCMTD:stdexcpt.obj
 0002:000f5ed0       ??1__non_rtti_object@std@@UAE@XZ 005a6ed0 f   LIBCMTD:stdexcpt.obj
 0002:000f5f00       _strncat                   005a6f00 f   LIBCMTD:strncat.obj
 0002:000f6090       _wcslen                    005a7090 f   LIBCMTD:wcslen.obj
 0002:000f60d0       __wassert                  005a70d0 f   LIBCMTD:wassert.obj
 0002:000f6f90       _srand                     005a7f90 f   LIBCMTD:rand.obj
 0002:000f6fb0       _rand                      005a7fb0 f   LIBCMTD:rand.obj
 0002:000f7000       __aullrem                  005a8000 f   LIBCMTD:ullrem.obj
 0002:000f70a0       __allshl                   005a80a0 f   LIBCMTD:llshl.obj
 0002:000f70d0       __aullshr                  005a80d0 f   LIBCMTD:ullshr.obj
 0002:000f7100       _strrchr                   005a8100 f   LIBCMTD:strrchr.obj
 0002:000f7140       _strcpy_s                  005a8140 f   LIBCMTD:strcpy_s.obj
 0002:000f74d0       __CrtSetReportHook2        005a84d0 f   LIBCMTD:dbgrpt.obj
 0002:000f78c0       __CrtDbgReport             005a88c0 f   LIBCMTD:dbgrpt.obj
 0002:000f7910       __CrtDbgReportV            005a8910 f i LIBCMTD:dbgrpt.obj
 0002:000f7940       ___crtMessageWindowA       005a8940 f   LIBCMTD:dbgrpt.obj
 0002:000f7e40       __strnicmp_l               005a8e40 f   LIBCMTD:strnicmp.obj
 0002:000f8110       __strnicmp                 005a9110 f   LIBCMTD:strnicmp.obj
 0002:000f8300       __mbsrchr_l                005a9300 f   LIBCMTD:mbsrchr.obj
 0002:000f84c0       __mbsrchr                  005a94c0 f   LIBCMTD:mbsrchr.obj
 0002:000f84e0       __fpmath                   005a94e0 f   LIBCMTD:_fpinit_.obj
 0002:000f8500       __cfltcvt_init             005a9500 f   LIBCMTD:_fpinit_.obj
 0002:000f8590       ___setfflag                005a9590 f   LIBCMTD:_fpinit_.obj
 0002:000f85c0       __strtime_s                005a95c0 f   LIBCMTD:strtime.obj
 0002:000f8840       __strtime                  005a9840 f   LIBCMTD:strtime.obj
 0002:000f8880       __strdate_s                005a9880 f   LIBCMTD:strdate.obj
 0002:000f8b10       __strdate                  005a9b10 f   LIBCMTD:strdate.obj
 0002:000f8b50       ___tzset                   005a9b50 f   LIBCMTD:tzset.obj
 0002:000f8c10       _tzset                     005a9c10 f   LIBCMTD:tzset.obj
 0002:000f8c10       __tzset                    005a9c10 f   LIBCMTD:tzset.obj
 0002:000f9320       __set_daylight             005aa320 f i LIBCMTD:tzset.obj
 0002:000f9340       __set_dstbias              005aa340 f i LIBCMTD:tzset.obj
 0002:000f9360       __set_timezone             005aa360 f i LIBCMTD:tzset.obj
 0002:000f9380       __isindst                  005aa380 f   LIBCMTD:tzset.obj
 0002:000f9bd0       __aulldiv                  005aabd0 f   LIBCMTD:ulldiv.obj
 0002:000f9c60       _strncmp                   005aac60 f   LIBCMTD:strncmp.obj
 0002:000f9e30       _atol                      005aae30 f   LIBCMTD:atox.obj
 0002:000f9e50       __atol_l                   005aae50 f   LIBCMTD:atox.obj
 0002:000f9e80       _atoi                      005aae80 f   LIBCMTD:atox.obj
 0002:000f9ea0       __atoi_l                   005aaea0 f   LIBCMTD:atox.obj
 0002:000f9ec0       __atoi64                   005aaec0 f   LIBCMTD:atox.obj
 0002:000f9ee0       __atoi64_l                 005aaee0 f   LIBCMTD:atox.obj
 0002:000f9f10       __mbschr_l                 005aaf10 f   LIBCMTD:mbschr.obj
 0002:000fa100       __mbschr                   005ab100 f   LIBCMTD:mbschr.obj
 0002:000fa120       _memchr                    005ab120 f   LIBCMTD:memchr.obj
 0002:000fa200       _strncpy_s                 005ab200 f   LIBCMTD:strncpy_s.obj
 0002:000fa6f0       _fflush                    005ab6f0 f   LIBCMTD:fflush.obj
 0002:000fa7b0       __fflush_nolock            005ab7b0 f   LIBCMTD:fflush.obj
 0002:000fa820       __flush                    005ab820 f   LIBCMTD:fflush.obj
 0002:000fa910       __flushall                 005ab910 f   LIBCMTD:fflush.obj
 0002:000fab40       _printf                    005abb40 f   LIBCMTD:printf.obj
 0002:000facd0       __printf_l                 005abcd0 f   LIBCMTD:printf.obj
 0002:000fad00       __printf_s_l               005abd00 f   LIBCMTD:printf.obj
 0002:000fad30       _printf_s                  005abd30 f   LIBCMTD:printf.obj
 0002:000fad60       __printf_p_l               005abd60 f   LIBCMTD:printf.obj
 0002:000fad90       __printf_p                 005abd90 f   LIBCMTD:printf.obj
 0002:000fadc0       __set_printf_count_output  005abdc0 f   LIBCMTD:printf.obj
 0002:000fae20       __get_printf_count_output  005abe20 f   LIBCMTD:printf.obj
 0002:000fae50       _fdopen                    005abe50 f   LIBCMTD:fdopen.obj
 0002:000fae50       __fdopen                   005abe50 f   LIBCMTD:fdopen.obj
 0002:000fb4e0       __dup2                     005ac4e0 f   LIBCMTD:dup2.obj
 0002:000fbbe0       __alloc_osfhnd             005acbe0 f   LIBCMTD:osfinfo.obj
 0002:000fbf40       __set_osfhnd               005acf40 f   LIBCMTD:osfinfo.obj
 0002:000fc040       __free_osfhnd              005ad040 f   LIBCMTD:osfinfo.obj
 0002:000fc160       __get_osfhandle            005ad160 f   LIBCMTD:osfinfo.obj
 0002:000fc320       __open_osfhandle           005ad320 f   LIBCMTD:osfinfo.obj
 0002:000fc5e0       ___lock_fhandle            005ad5e0 f   LIBCMTD:osfinfo.obj
 0002:000fc720       __unlock_fhandle           005ad720 f   LIBCMTD:osfinfo.obj
 0002:000fc760       _fclose                    005ad760 f   LIBCMTD:fclose.obj
 0002:000fc8b0       __fclose_nolock            005ad8b0 f   LIBCMTD:fclose.obj
 0002:000fc9f0       ___iob_func                005ad9f0 f   LIBCMTD:_file.obj
 0002:000fca00       ___initstdio               005ada00 f   LIBCMTD:_file.obj
 0002:000fcba0       ___endstdio                005adba0 f   LIBCMTD:_file.obj
 0002:000fcbe0       __lock_file                005adbe0 f   LIBCMTD:_file.obj
 0002:000fcc50       __lock_file2               005adc50 f   LIBCMTD:_file.obj
 0002:000fcca0       __unlock_file              005adca0 f   LIBCMTD:_file.obj
 0002:000fcd10       __unlock_file2             005add10 f   LIBCMTD:_file.obj
 0002:000fcd60       __vsnprintf_l              005add60 f   LIBCMTD:vsnprint.obj
 0002:000fcf90       __vsnprintf                005adf90 f   LIBCMTD:vsnprint.obj
 0002:000fcfc0       __onexit                   005adfc0 f   LIBCMTD:onexit.obj
 0002:000fd200       _atexit                    005ae200 f   LIBCMTD:onexit.obj
 0002:000fd230       ___onexitinit              005ae230 f   LIBCMTD:onexit.obj
 0002:000fd2b0       _strchr                    005ae2b0 f   LIBCMTD:strchr.obj
 0002:000fd2b6       ___from_strstr_to_strchr   005ae2b6     LIBCMTD:strchr.obj
 0002:000fd3b0       __strdup                   005ae3b0 f   LIBCMTD:strdup.obj
 0002:000fd3d0       __strdup_dbg               005ae3d0 f   LIBCMTD:strdup.obj
 0002:000fd480       _strtok                    005ae480 f   LIBCMTD:strtok.obj
 0002:000fd620       __toupper                  005ae620 f   LIBCMTD:toupper.obj
 0002:000fd630       __toupper_l                005ae630 f   LIBCMTD:toupper.obj
 0002:000fd880       _toupper                   005ae880 f   LIBCMTD:toupper.obj
 0002:000fd8e0       _strstr                    005ae8e0 f   LIBCMTD:strstr.obj
 0002:000fd990       _malloc                    005ae990 f   LIBCMTD:dbgmalloc.obj
 0002:000fd9d0       _getenv                    005ae9d0 f   LIBCMTD:getenv.obj
 0002:000fdb80       __getenv_helper_nolock     005aeb80 f   LIBCMTD:getenv.obj
 0002:000fdce0       _getenv_s                  005aece0 f   LIBCMTD:getenv.obj
 0002:000fdf90       __dupenv_s                 005aef90 f   LIBCMTD:getenv.obj
 0002:000fdfc0       __dupenv_s_dbg             005aefc0 f   LIBCMTD:getenv.obj
 0002:000fe2a0       __mkdir                    005af2a0 f   LIBCMTD:mkdir.obj
 0002:000fe300       __stat64i32                005af300 f   LIBCMTD:stati32.obj
 0002:000fed50       __access                   005afd50 f   LIBCMTD:access.obj
 0002:000fed80       __access_s                 005afd80 f   LIBCMTD:access.obj
 0002:000fef30       __fullpath                 005aff30 f   LIBCMTD:fullpath.obj
 0002:000fef60       __fullpath_dbg             005aff60 f   LIBCMTD:fullpath.obj
 0002:000ff180       __cinit                    005b0180 f   LIBCMTD:crt0dat.obj
 0002:000ff250       _exit                      005b0250 f   LIBCMTD:crt0dat.obj
 0002:000ff270       __exit                     005b0270 f   LIBCMTD:crt0dat.obj
 0002:000ff290       __cexit                    005b0290 f   LIBCMTD:crt0dat.obj
 0002:000ff2b0       __c_exit                   005b02b0 f   LIBCMTD:crt0dat.obj
 0002:000ff2d0       __amsg_exit                005b02d0 f   LIBCMTD:crt0dat.obj
 0002:000ff300       ___freeCrtMemory           005b0300 f   LIBCMTD:crt0dat.obj
 0002:000ff710       ___crtCorExitProcess       005b0710 f   LIBCMTD:crt0dat.obj
 0002:000ff760       ___crtExitProcess          005b0760 f   LIBCMTD:crt0dat.obj
 0002:000ff790       __lockexit                 005b0790 f   LIBCMTD:crt0dat.obj
 0002:000ff7b0       __unlockexit               005b07b0 f   LIBCMTD:crt0dat.obj
 0002:000ff7d0       __init_pointers            005b07d0 f   LIBCMTD:crt0dat.obj
 0002:000ff880       __initterm_e               005b0880 f   LIBCMTD:crt0dat.obj
 0002:000ff8d0       __get_wpgmptr              005b08d0 f   LIBCMTD:crt0dat.obj
 0002:000ffa00       __get_pgmptr               005b0a00 f   LIBCMTD:crt0dat.obj
 0002:000ffb30       _setbuf                    005b0b30 f   LIBCMTD:setbuf.obj
 0002:000ffbb0       _fprintf                   005b0bb0 f   LIBCMTD:fprintf.obj
 0002:000fff00       __fprintf_l                005b0f00 f   LIBCMTD:fprintf.obj
 0002:000fff40       __fprintf_s_l              005b0f40 f   LIBCMTD:fprintf.obj
 0002:000fff80       _fprintf_s                 005b0f80 f   LIBCMTD:fprintf.obj
 0002:000fffb0       __fprintf_p_l              005b0fb0 f   LIBCMTD:fprintf.obj
 0002:000ffff0       __fprintf_p                005b0ff0 f   LIBCMTD:fprintf.obj
 0002:00100020       _WinMainCRTStartup         005b1020 f   LIBCMTD:wincrt0.obj
 0002:00100340       __RTC_CheckEsp             005b1340 f   LIBCMTD:_stack_.obj
 0002:00100370       @_RTC_CheckStackVars@8     005b1370 f   LIBCMTD:_stack_.obj
 0002:001003f0       @_RTC_AllocaHelper@12      005b13f0 f   LIBCMTD:_stack_.obj
 0002:00100430       @_RTC_CheckStackVars2@12   005b1430 f   LIBCMTD:_stack_.obj
 0002:00100540       __RTC_InitBase             005b1540 f   LIBCMTD:_init_.obj
 0002:00100580       __RTC_Shutdown             005b1580 f   LIBCMTD:_init_.obj
 0002:001005a0       __ftol2_sse                005b15a0 f   LIBCMTD:ftol2.obj
 0002:001005a9       __ftol2_pentium4           005b15a9 f   LIBCMTD:ftol2.obj
 0002:001005bc       __ftol2_sse_excpt          005b15bc f   LIBCMTD:ftol2.obj
 0002:001005d6       __ftol2                    005b15d6 f   LIBCMTD:ftol2.obj
 0002:00100680       __ftime64_s                005b1680 f   LIBCMTD:ftime64.obj
 0002:00100900       __ftime64                  005b1900 f   LIBCMTD:ftime64.obj
 0002:00100920       _strerror                  005b1920 f   LIBCMTD:strerror.obj
 0002:001009f0       __get_sys_err_msg          005b19f0 f i LIBCMTD:strerror.obj
 0002:00100a40       _strerror_s                005b1a40 f   LIBCMTD:strerror.obj
 0002:00100bb0       ____setlc_active_func      005b1bb0 f   LIBCMTD:setlocal.obj
 0002:00100bc0       ____unguarded_readlc_active_add_func 005b1bc0 f   LIBCMTD:setlocal.obj
 0002:00100bd0       __configthreadlocale       005b1bd0 f   LIBCMTD:setlocal.obj
 0002:00100d20       __locterm                  005b1d20 f   LIBCMTD:setlocal.obj
 0002:00100de0       __free_locale              005b1de0 f   LIBCMTD:setlocal.obj
 0002:00100f70       ___free_locale             005b1f70 f   LIBCMTD:setlocal.obj
 0002:00100f90       __create_locale            005b1f90 f   LIBCMTD:setlocal.obj
 0002:00101250       ___create_locale           005b2250 f   LIBCMTD:setlocal.obj
 0002:00101270       __get_current_locale       005b2270 f   LIBCMTD:setlocal.obj
 0002:001013d0       ___get_current_locale      005b23d0 f   LIBCMTD:setlocal.obj
 0002:001013e0       _setlocale                 005b23e0 f   LIBCMTD:setlocal.obj
 0002:00102640       __expandlocale             005b3640 f   LIBCMTD:setlocal.obj
 0002:00102990       ___init_dummy              005b3990 f   LIBCMTD:setlocal.obj
 0002:001029a0       __strcats                  005b39a0 f   LIBCMTD:setlocal.obj
 0002:00102a40       ___lc_strtolc              005b3a40 f   LIBCMTD:setlocal.obj
 0002:00102cc0       ___lc_lctostr              005b3cc0 f   LIBCMTD:setlocal.obj
 0002:00102d80       __setjmp3                  005b3d80 f   LIBCMTD:setjmp3.obj
 0002:00102e20       __write                    005b3e20 f   LIBCMTD:write.obj
 0002:001030d0       __write_nolock             005b40d0 f   LIBCMTD:write.obj
 0002:00103ee0       __fileno                   005b4ee0 f   LIBCMTD:fileno.obj
 0002:00103ee0       _fileno                    005b4ee0 f   LIBCMTD:fileno.obj
 0002:00103f70       _strcat_s                  005b4f70 f   LIBCMTD:strcat_s.obj
 0002:00104440       __isalpha_l                005b5440 f i LIBCMTD:_ctype.obj
 0002:001044f0       _isalpha                   005b54f0 f i LIBCMTD:_ctype.obj
 0002:00104530       __isupper_l                005b5530 f i LIBCMTD:_ctype.obj
 0002:001045d0       _isupper                   005b55d0 f i LIBCMTD:_ctype.obj
 0002:00104610       __islower_l                005b5610 f i LIBCMTD:_ctype.obj
 0002:001046b0       _islower                   005b56b0 f i LIBCMTD:_ctype.obj
 0002:001046f0       __isdigit_l                005b56f0 f i LIBCMTD:_ctype.obj
 0002:00104790       _isdigit                   005b5790 f i LIBCMTD:_ctype.obj
 0002:001047d0       __isxdigit_l               005b57d0 f i LIBCMTD:_ctype.obj
 0002:00104880       _isxdigit                  005b5880 f i LIBCMTD:_ctype.obj
 0002:001048c0       __isspace_l                005b58c0 f i LIBCMTD:_ctype.obj
 0002:00104960       _isspace                   005b5960 f i LIBCMTD:_ctype.obj
 0002:001049a0       __ispunct_l                005b59a0 f i LIBCMTD:_ctype.obj
 0002:00104a40       _ispunct                   005b5a40 f i LIBCMTD:_ctype.obj
 0002:00104a80       __isalnum_l                005b5a80 f i LIBCMTD:_ctype.obj
 0002:00104b30       _isalnum                   005b5b30 f i LIBCMTD:_ctype.obj
 0002:00104b70       __isprint_l                005b5b70 f i LIBCMTD:_ctype.obj
 0002:00104c20       _isprint                   005b5c20 f i LIBCMTD:_ctype.obj
 0002:00104c60       __isgraph_l                005b5c60 f i LIBCMTD:_ctype.obj
 0002:00104d10       _isgraph                   005b5d10 f i LIBCMTD:_ctype.obj
 0002:00104d50       __iscntrl_l                005b5d50 f i LIBCMTD:_ctype.obj
 0002:00104df0       _iscntrl                   005b5df0 f i LIBCMTD:_ctype.obj
 0002:00104e30       ___isascii                 005b5e30 f i LIBCMTD:_ctype.obj
 0002:00104e50       ___toascii                 005b5e50 f i LIBCMTD:_ctype.obj
 0002:00104e60       __iscsymf_l                005b5e60 f i LIBCMTD:_ctype.obj
 0002:00104eb0       ___iscsymf                 005b5eb0 f i LIBCMTD:_ctype.obj
 0002:00104ef0       __iscsym_l                 005b5ef0 f i LIBCMTD:_ctype.obj
 0002:00104f40       ___iscsym                  005b5f40 f i LIBCMTD:_ctype.obj
 0002:00104f90       _putenv                    005b5f90 f   LIBCMTD:putenv.obj
 0002:00104f90       __putenv                   005b5f90 f   LIBCMTD:putenv.obj
 0002:00105040       __putenv_s                 005b6040 f   LIBCMTD:putenv.obj
 0002:00105820       __close                    005b6820 f   LIBCMTD:close.obj
 0002:00105820       _close                     005b6820 f   LIBCMTD:close.obj
 0002:00105ac0       __close_nolock             005b6ac0 f   LIBCMTD:close.obj
 0002:00105bc0       __read                     005b6bc0 f   LIBCMTD:read.obj
 0002:00105bc0       _read                      005b6bc0 f   LIBCMTD:read.obj
 0002:00105f00       __read_nolock              005b6f00 f   LIBCMTD:read.obj
 0002:00107220       __lseek                    005b8220 f   LIBCMTD:lseek.obj
 0002:001074d0       __lseek_nolock             005b84d0 f   LIBCMTD:lseek.obj
 0002:001075e0       _realloc                   005b85e0 f   LIBCMTD:dbgrealloc.obj
 0002:00107610       __dosmaperr                005b8610 f   LIBCMTD:dosmap.obj
 0002:00107650       __get_errno_from_oserr     005b8650 f   LIBCMTD:dosmap.obj
 0002:001076f0       __set_errno                005b86f0 f   LIBCMTD:dosmap.obj
 0002:00107730       __get_errno                005b8730 f   LIBCMTD:dosmap.obj
 0002:001077d0       __set_doserrno             005b87d0 f   LIBCMTD:dosmap.obj
 0002:00107810       __get_doserrno             005b8810 f   LIBCMTD:dosmap.obj
 0002:001078b0       __errno                    005b88b0 f   LIBCMTD:dosmap.obj
 0002:001078e0       ___doserrno                005b88e0 f   LIBCMTD:dosmap.obj
 0002:00107910       __open                     005b8910 f   LIBCMTD:open.obj
 0002:00107af0       __sopen_helper             005b8af0 f   LIBCMTD:open.obj
 0002:001091e0       __sopen                    005ba1e0 f   LIBCMTD:open.obj
 0002:00109270       __sopen_s                  005ba270 f   LIBCMTD:open.obj
 0002:001092a0       __fsopen                   005ba2a0 f   LIBCMTD:fopen.obj
 0002:00109530       _fopen                     005ba530 f   LIBCMTD:fopen.obj
 0002:00109550       _fopen_s                   005ba550 f   LIBCMTD:fopen.obj
 0002:00109620       _remove                    005ba620 f   LIBCMTD:unlink.obj
 0002:00109680       _unlink                    005ba680 f   LIBCMTD:unlink.obj
 0002:00109680       __unlink                   005ba680 f   LIBCMTD:unlink.obj
 0002:001096a0       _chmod                     005ba6a0 f   LIBCMTD:chmod.obj
 0002:001096a0       __chmod                    005ba6a0 f   LIBCMTD:chmod.obj
 0002:001097c0       _longjmp                   005ba7c0 f   LIBCMTD:longjmp.obj
 0002:001098a0       __isatty                   005ba8a0 f   LIBCMTD:isatty.obj
 0002:001098a0       _isatty                    005ba8a0 f   LIBCMTD:isatty.obj
 0002:00109990       _fputc                     005ba990 f   LIBCMTD:fputc.obj
 0002:00109c80       _putc                      005bac80 f   LIBCMTD:fputc.obj
 0002:00109f70       __localtime64_s            005baf70 f   LIBCMTD:loctim64.obj
 0002:0010a5e0       __localtime64              005bb5e0 f   LIBCMTD:loctim64.obj
 0002:0010a630       __mktime64                 005bb630 f   LIBCMTD:mktime64.obj
 0002:0010a650       __mkgmtime64               005bb650 f   LIBCMTD:mktime64.obj
 0002:0010ac00       __tolower                  005bbc00 f   LIBCMTD:tolower.obj
 0002:0010ac10       __tolower_l                005bbc10 f   LIBCMTD:tolower.obj
 0002:0010ae60       _tolower                   005bbe60 f   LIBCMTD:tolower.obj
 0002:0010aec0       __mblen_l                  005bbec0 f   LIBCMTD:mblen.obj
 0002:0010b0a0       _mblen                     005bc0a0 f   LIBCMTD:mblen.obj
 0002:0010b0f0       ___init_ctype              005bc0f0 f   LIBCMTD:initctyp.obj
 0002:0010b810       ____mb_cur_max_func        005bc810 f   LIBCMTD:initctyp.obj
 0002:0010b870       ____mb_cur_max_l_func      005bc870 f   LIBCMTD:initctyp.obj
 0002:0010b8b0       ____lc_codepage_func       005bc8b0 f   LIBCMTD:initctyp.obj
 0002:0010b910       ____lc_collate_cp_func     005bc910 f   LIBCMTD:initctyp.obj
 0002:0010b970       ____lc_handle_func         005bc970 f   LIBCMTD:initctyp.obj
 0002:0010b9d0       __mbsinc_l                 005bc9d0 f   LIBCMTD:mbsinc.obj
 0002:0010ba30       __mbsinc                   005bca30 f   LIBCMTD:mbsinc.obj
 0002:0010bb00       __gmtime64_s               005bcb00 f   LIBCMTD:gmtime64.obj
 0002:0010c000       __gmtime64                 005bd000 f   LIBCMTD:gmtime64.obj
 0002:0010c050       __strupr_l                 005bd050 f   LIBCMTD:strupr.obj
 0002:0010c080       _strupr                    005bd080 f   LIBCMTD:strupr.obj
 0002:0010c080       __strupr                   005bd080 f   LIBCMTD:strupr.obj
 0002:0010c190       __strupr_s_l               005bd190 f   LIBCMTD:strupr.obj
 0002:0010c710       __MarkAllocaS              005bd710 f i LIBCMTD:strupr.obj
 0002:0010c740       __freea                    005bd740 f i LIBCMTD:strupr.obj
 0002:0010c790       __strupr_s                 005bd790 f   LIBCMTD:strupr.obj
 0002:0010c7b0       _qsort                     005bd7b0 f   LIBCMTD:qsort.obj
 0002:0010ced0       _fgets                     005bded0 f   LIBCMTD:fgets.obj
 0002:0010d340       __setmode                  005be340 f   LIBCMTD:setmode.obj
 0002:0010d340       _setmode                   005be340 f   LIBCMTD:setmode.obj
 0002:0010d670       __setmode_nolock           005be670 f   LIBCMTD:setmode.obj
 0002:0010d970       __set_fmode                005be970 f   LIBCMTD:setmode.obj
 0002:0010da50       __get_fmode                005bea50 f   LIBCMTD:setmode.obj
 0002:0010daf0       __chdir                    005beaf0 f   LIBCMTD:chdir.obj
 0002:0010dd80       __getcwd                   005bed80 f   LIBCMTD:getcwd.obj
 0002:0010de30       __getcwd_dbg               005bee30 f   LIBCMTD:getcwd.obj
 0002:0010def0       __getdcwd                  005beef0 f   LIBCMTD:getcwd.obj
 0002:0010dfa0       __getdcwd_dbg              005befa0 f   LIBCMTD:getcwd.obj
 0002:0010e060       __getdcwd_nolock           005bf060 f   LIBCMTD:getcwd.obj
 0002:0010e090       __getdcwd_lk_dbg           005bf090 f   LIBCMTD:getcwd.obj
 0002:0010e380       __validdrive               005bf380 f   LIBCMTD:getcwd.obj
 0002:0010e410       _fseek                     005bf410 f   LIBCMTD:fseek.obj
 0002:0010e5e0       __fseek_nolock             005bf5e0 f   LIBCMTD:fseek.obj
 0002:0010e700       _perror                    005bf700 f   LIBCMTD:perror.obj
 0002:0010e840       _setvbuf                   005bf840 f   LIBCMTD:setvbuf.obj
 0002:0010ebd0       _feof                      005bfbd0 f   LIBCMTD:feoferr.obj
 0002:0010ec60       _ferror                    005bfc60 f   LIBCMTD:feoferr.obj
 0002:0010ecf0       _ftell                     005bfcf0 f   LIBCMTD:ftell.obj
 0002:0010ee10       __ftell_nolock             005bfe10 f   LIBCMTD:ftell.obj
 0002:0010f190       _fread_s                   005c0190 f   LIBCMTD:fread.obj
 0002:0010f310       __fread_nolock_s           005c0310 f   LIBCMTD:fread.obj
 0002:0010fa60       _fread                     005c0a60 f   LIBCMTD:fread.obj
 0002:0010fa90       __fread_nolock             005c0a90 f   LIBCMTD:fread.obj
 0002:0010fac0       _fgetc                     005c0ac0 f   LIBCMTD:fgetc.obj
 0002:0010fda0       _getc                      005c0da0 f   LIBCMTD:fgetc.obj
 0002:00110080       __getc_nolock              005c1080 f   LIBCMTD:fgetc.obj
 0002:001100f0       _clearerr_s                005c10f0 f   LIBCMTD:clearerr.obj
 0002:001102a0       _clearerr                  005c12a0 f   LIBCMTD:clearerr.obj
 0002:001102c0       _fwrite                    005c12c0 f   LIBCMTD:fwrite.obj
 0002:00110410       __fwrite_nolock            005c1410 f   LIBCMTD:fwrite.obj
 0002:001108d0       _rename                    005c18d0 f   LIBCMTD:rename.obj
 0002:00110930       __fstat64i32               005c1930 f   LIBCMTD:fstati32.obj
 0002:00111130       __beginthreadex            005c2130 f   LIBCMTD:threadex.obj
 0002:00111440       __endthreadex              005c2440 f   LIBCMTD:threadex.obj
 0002:00111480       ___report_gsfailure        005c2480 f   LIBCMTD:gs_report.obj
 0002:001115e0       ?_Type_info_dtor@type_info@@CAXPAV1@@Z 005c25e0 f   LIBCMTD:typname.obj
 0002:00111730       ?_Name_base@type_info@@CAPBDPBV1@PAU__type_info_node@@@Z 005c2730 f   LIBCMTD:typname.obj
 0002:00111940       ?_Type_info_dtor_internal@type_info@@CAXPAV1@@Z 005c2940 f   LIBCMTD:typname.obj
 0002:00111a90       ___unDNameHelper           005c2a90 f   LIBCMTD:typname.obj
 0002:00111ae0       ?_Name_base_internal@type_info@@CAPBDPBV1@PAU__type_info_node@@@Z 005c2ae0 f   LIBCMTD:typname.obj
 0002:00111d10       ___clean_type_info_names_internal 005c2d10 f   LIBCMTD:typname.obj
 0002:00111df0       __mtinitlocks              005c2df0 f   LIBCMTD:mlock.obj
 0002:00111ea0       __mtdeletelocks            005c2ea0 f   LIBCMTD:mlock.obj
 0002:00111f90       __mtinitlocknum            005c2f90 f   LIBCMTD:mlock.obj
 0002:00112130       __lock                     005c3130 f   LIBCMTD:mlock.obj
 0002:00112180       __unlock                   005c3180 f   LIBCMTD:mlock.obj
 0002:001121a0       __lockerr_exit             005c31a0 f   LIBCMTD:mlock.obj
 0002:001121d0       __malloc_dbg               005c31d0 f   LIBCMTD:dbgheap.obj
 0002:00112210       __nh_malloc                005c3210 f   LIBCMTD:dbgheap.obj
 0002:00112240       __nh_malloc_dbg            005c3240 f   LIBCMTD:dbgheap.obj
 0002:00112340       __heap_alloc               005c3340 f   LIBCMTD:dbgheap.obj
 0002:00112810       __heap_alloc_dbg           005c3810 f   LIBCMTD:dbgheap.obj
 0002:00112880       __calloc_dbg_impl          005c3880 f   LIBCMTD:dbgheap.obj
 0002:00112920       __calloc_dbg               005c3920 f   LIBCMTD:dbgheap.obj
 0002:00112990       __recalloc                 005c3990 f   LIBCMTD:dbgheap.obj
 0002:001129d0       __realloc_dbg              005c39d0 f   LIBCMTD:dbgheap.obj
 0002:00113210       __recalloc_dbg             005c4210 f   LIBCMTD:dbgheap.obj
 0002:001132f0       __expand                   005c42f0 f   LIBCMTD:dbgheap.obj
 0002:00113320       __expand_dbg               005c4320 f   LIBCMTD:dbgheap.obj
 0002:00113470       __free_nolock              005c4470 f   LIBCMTD:dbgheap.obj
 0002:00113490       __free_dbg                 005c4490 f   LIBCMTD:dbgheap.obj
 0002:00113530       __free_dbg_nolock          005c4530 f   LIBCMTD:dbgheap.obj
 0002:00113b50       __msize                    005c4b50 f   LIBCMTD:dbgheap.obj
 0002:00113b70       __msize_dbg                005c4b70 f   LIBCMTD:dbgheap.obj
 0002:00113dd0       __CrtSetBreakAlloc         005c4dd0 f   LIBCMTD:dbgheap.obj
 0002:00113e00       __CrtSetDbgBlockType       005c4e00 f   LIBCMTD:dbgheap.obj
 0002:00113f20       __CrtSetAllocHook          005c4f20 f   LIBCMTD:dbgheap.obj
 0002:00113f50       __CrtGetAllocHook          005c4f50 f   LIBCMTD:dbgheap.obj
 0002:00113fb0       __CrtCheckMemory           005c4fb0 f   LIBCMTD:dbgheap.obj
 0002:00114520       __CrtSetDbgFlag            005c5520 f   LIBCMTD:dbgheap.obj
 0002:001146c0       __CrtDoForAllClientObjects 005c56c0 f   LIBCMTD:dbgheap.obj
 0002:00114830       __CrtIsValidPointer        005c5830 f   LIBCMTD:dbgheap.obj
 0002:00114850       __CrtIsValidHeapPointer    005c5850 f   LIBCMTD:dbgheap.obj
 0002:001148b0       __CrtIsMemoryBlock         005c58b0 f   LIBCMTD:dbgheap.obj
 0002:00114a80       __CrtReportBlockType       005c5a80 f   LIBCMTD:dbgheap.obj
 0002:00114ac0       __CrtSetDumpClient         005c5ac0 f   LIBCMTD:dbgheap.obj
 0002:00114af0       __CrtGetDumpClient         005c5af0 f   LIBCMTD:dbgheap.obj
 0002:00114b00       __CrtMemCheckpoint         005c5b00 f   LIBCMTD:dbgheap.obj
 0002:00114da0       __CrtMemDifference         005c5da0 f   LIBCMTD:dbgheap.obj
 0002:00115040       __CrtMemDumpAllObjectsSince 005c6040 f   LIBCMTD:dbgheap.obj
 0002:00115670       __CrtDumpMemoryLeaks       005c6670 f   LIBCMTD:dbgheap.obj
 0002:00115710       __CrtMemDumpStatistics     005c6710 f   LIBCMTD:dbgheap.obj
 0002:00115860       __aligned_malloc           005c6860 f   LIBCMTD:dbgheap.obj
 0002:00115890       __aligned_malloc_dbg       005c6890 f   LIBCMTD:dbgheap.obj
 0002:001158c0       __aligned_realloc          005c68c0 f   LIBCMTD:dbgheap.obj
 0002:001158f0       __aligned_recalloc         005c68f0 f   LIBCMTD:dbgheap.obj
 0002:00115920       __aligned_realloc_dbg      005c6920 f   LIBCMTD:dbgheap.obj
 0002:00115950       __aligned_recalloc_dbg     005c6950 f   LIBCMTD:dbgheap.obj
 0002:00115990       __aligned_offset_malloc    005c6990 f   LIBCMTD:dbgheap.obj
 0002:001159c0       __aligned_offset_malloc_dbg 005c69c0 f   LIBCMTD:dbgheap.obj
 0002:00115bf0       __aligned_offset_realloc   005c6bf0 f   LIBCMTD:dbgheap.obj
 0002:00115c20       __aligned_offset_recalloc  005c6c20 f   LIBCMTD:dbgheap.obj
 0002:00115c50       __aligned_offset_realloc_dbg 005c6c50 f   LIBCMTD:dbgheap.obj
 0002:00116000       __aligned_offset_recalloc_dbg 005c7000 f   LIBCMTD:dbgheap.obj
 0002:001160f0       __aligned_free             005c70f0 f   LIBCMTD:dbgheap.obj
 0002:00116110       __aligned_free_dbg         005c7110 f   LIBCMTD:dbgheap.obj
 0002:001161f0       __CrtSetDebugFillThreshold 005c71f0 f   LIBCMTD:dbgheap.obj
 0002:00116220       __CrtSetCheckCount         005c7220 f   LIBCMTD:dbgheap.obj
 0002:00116240       __CrtGetCheckCount         005c7240 f   LIBCMTD:dbgheap.obj
 0002:00116250       __aligned_msize            005c7250 f   LIBCMTD:dbgheap.obj
 0002:00116280       __aligned_msize_dbg        005c7280 f   LIBCMTD:dbgheap.obj
 0002:001163d0       __except_handler4          005c73d0 f   LIBCMTD:chandler4.obj
 0002:00116680       ___InternalCxxFrameHandler 005c7680 f   LIBCMTD:frame.obj
 0002:00116df0       ??0bad_exception@std@@QAE@PBD@Z 005c7df0 f i LIBCMTD:frame.obj
 0002:00116e20       ??1bad_exception@std@@UAE@XZ 005c7e20 f i LIBCMTD:frame.obj
 0002:00116e50       ??_Ebad_exception@std@@UAEPAXI@Z 005c7e50 f i LIBCMTD:frame.obj
 0002:00116e50       ??_Gbad_exception@std@@UAEPAXI@Z 005c7e50 f i LIBCMTD:frame.obj
 0002:00116e90       ??0bad_exception@std@@QAE@ABV01@@Z 005c7e90 f i LIBCMTD:frame.obj
 0002:001170b0       ___TypeMatch               005c80b0 f   LIBCMTD:frame.obj
 0002:00117190       ___FrameUnwindFilter       005c8190 f   LIBCMTD:frame.obj
 0002:00117230       ___FrameUnwindToState      005c8230 f   LIBCMTD:frame.obj
 0002:001178c0       ___BuildCatchObjectHelper  005c88c0 f   LIBCMTD:frame.obj
 0002:00117bd0       ___BuildCatchObject        005c8bd0 f   LIBCMTD:frame.obj
 0002:00117d20       ___DestructExceptionObject 005c8d20 f   LIBCMTD:frame.obj
 0002:00117e00       ___AdjustPointer           005c8e00 f   LIBCMTD:frame.obj
 0002:00117e60       ?__uncaught_exception@@YA_NXZ 005c8e60 f   LIBCMTD:frame.obj
 0002:00117e80       ___CxxExceptionFilter      005c8e80 f   LIBCMTD:frame.obj
 0002:001180f0       ___CxxRegisterExceptionObject 005c90f0 f   LIBCMTD:frame.obj
 0002:00118270       ___CxxDetectRethrow        005c9270 f   LIBCMTD:frame.obj
 0002:00118320       ___CxxUnregisterExceptionObject 005c9320 f   LIBCMTD:frame.obj
 0002:00118500       ___CxxQueryExceptionSize   005c9500 f   LIBCMTD:frame.obj
 0002:00118510       ___CxxCallUnwindDtor       005c9510 f   LIBCMTD:frame.obj
 0002:001185b0       ___CxxCallUnwindDelDtor    005c95b0 f   LIBCMTD:frame.obj
 0002:00118650       ___CxxCallUnwindStdDelDtor 005c9650 f   LIBCMTD:frame.obj
 0002:001186f0       ___CxxCallUnwindVecDtor    005c96f0 f   LIBCMTD:frame.obj
 0002:001189c0       ?_is_exception_typeof@@YAHABVtype_info@@PAU_EXCEPTION_POINTERS@@@Z 005c99c0 f   LIBCMTD:frame.obj
 0002:00118ad0       __CallSettingFrame@12      005c9ad0 f   LIBCMTD:lowhelpr.obj
 0002:00118af7       __NLG_Return               005c9af7     LIBCMTD:lowhelpr.obj
 0002:00118b30       __encoded_null             005c9b30 f   LIBCMTD:tidtable.obj
 0002:00118b50       ___crtTlsAlloc@4           005c9b50 f   LIBCMTD:tidtable.obj
 0002:00118b70       ___fls_getvalue@4          005c9b70 f   LIBCMTD:tidtable.obj
 0002:00118ba0       ___get_flsindex            005c9ba0 f   LIBCMTD:tidtable.obj
 0002:00118bb0       ___set_flsgetvalue         005c9bb0 f   LIBCMTD:tidtable.obj
 0002:00118c10       ___fls_setvalue@8          005c9c10 f   LIBCMTD:tidtable.obj
 0002:00118c40       __mtinit                   005c9c40 f   LIBCMTD:tidtable.obj
 0002:00118ec0       __mtterm                   005c9ec0 f   LIBCMTD:tidtable.obj
 0002:00118f30       __initptd                  005c9f30 f   LIBCMTD:tidtable.obj
 0002:001190a0       __getptd_noexit            005ca0a0 f   LIBCMTD:tidtable.obj
 0002:00119190       __getptd                   005ca190 f   LIBCMTD:tidtable.obj
 0002:001191c0       __freefls@4                005ca1c0 f   LIBCMTD:tidtable.obj
 0002:00119450       __freeptd                  005ca450 f   LIBCMTD:tidtable.obj
 0002:001194f0       ___threadid                005ca4f0 f   LIBCMTD:tidtable.obj
 0002:00119500       ___threadhandle            005ca500 f   LIBCMTD:tidtable.obj
 0002:00119510       __initp_eh_hooks           005ca510 f   LIBCMTD:hooks.obj
 0002:00119530       ?terminate@@YAXXZ          005ca530 f   LIBCMTD:hooks.obj
 0002:001195d0       ?unexpected@@YAXXZ         005ca5d0 f   LIBCMTD:hooks.obj
 0002:00119600       ?_inconsistency@@YAXXZ     005ca600 f   LIBCMTD:hooks.obj
 0002:001196b0       __flsbuf                   005ca6b0 f   LIBCMTD:_flsbuf.obj
 0002:00119a20       __output_l                 005caa20 f   LIBCMTD:output.obj
 0002:0011b3a0       _get_int_arg               005cc3a0 f i LIBCMTD:output.obj
 0002:0011b3d0       _get_int64_arg             005cc3d0 f i LIBCMTD:output.obj
 0002:0011b400       _get_short_arg             005cc400 f i LIBCMTD:output.obj
 0002:0011b430       __vsprintf_l               005cc430 f   LIBCMTD:vsprintf.obj
 0002:0011b630       _vsprintf                  005cc630 f   LIBCMTD:vsprintf.obj
 0002:0011b660       __vscprintf_helper         005cc660 f   LIBCMTD:vsprintf.obj
 0002:0011b770       __vscprintf                005cc770 f   LIBCMTD:vsprintf.obj
 0002:0011b7a0       __vscprintf_l              005cc7a0 f   LIBCMTD:vsprintf.obj
 0002:0011b7d0       __vscprintf_p              005cc7d0 f   LIBCMTD:vsprintf.obj
 0002:0011b800       __vscprintf_p_l            005cc800 f   LIBCMTD:vsprintf.obj
 0002:0011b830       __vsnprintf_helper         005cc830 f   LIBCMTD:vsnprnc.obj
 0002:0011ba90       __vsnprintf_c              005cca90 f   LIBCMTD:vsnprnc.obj
 0002:0011baf0       __vsnprintf_c_l            005ccaf0 f   LIBCMTD:vsnprnc.obj
 0002:0011bb50       __vsprintf_s_l             005ccb50 f   LIBCMTD:vsnprnc.obj
 0002:0011be50       _vsprintf_s                005cce50 f   LIBCMTD:vsnprnc.obj
 0002:0011be80       __vsnprintf_s_l            005cce80 f   LIBCMTD:vsnprnc.obj
 0002:0011c300       __vsnprintf_s              005cd300 f   LIBCMTD:vsnprnc.obj
 0002:0011c330       __vsprintf_p               005cd330 f   LIBCMTD:vsnprnc.obj
 0002:0011c390       __vsprintf_p_l             005cd390 f   LIBCMTD:vsnprnc.obj
 0002:0011c3f0       __initp_heap_handler       005cd3f0 f   LIBCMTD:handler.obj
 0002:0011c410       ?_set_new_handler@@YAP6AHI@ZP6AHI@Z@Z 005cd410 f   LIBCMTD:handler.obj
 0002:0011c460       ?_set_new_handler@@YAP6AHI@ZH@Z 005cd460 f   LIBCMTD:handler.obj
 0002:0011c4b0       ?_query_new_handler@@YAP6AHI@ZXZ 005cd4b0 f   LIBCMTD:handler.obj
 0002:0011c4d0       __callnewh                 005cd4d0 f   LIBCMTD:handler.obj
 0002:0011c520       ___updatetmbcinfo          005cd520 f   LIBCMTD:mbctype.obj
 0002:0011c670       __setmbcp                  005cd670 f   LIBCMTD:mbctype.obj
 0002:0011cb00       __setmbcp_nolock           005cdb00 f   LIBCMTD:mbctype.obj
 0002:0011d4e0       __getmbcp                  005ce4e0 f   LIBCMTD:mbctype.obj
 0002:0011d570       ___initmbctable            005ce570 f   LIBCMTD:mbctype.obj
 0002:0011d5a0       ___addlocaleref            005ce5a0 f   LIBCMTD:localref.obj
 0002:0011d710       ___removelocaleref         005ce710 f   LIBCMTD:localref.obj
 0002:0011d890       ___freetlocinfo            005ce890 f   LIBCMTD:localref.obj
 0002:0011dc30       __updatetlocinfoEx_nolock  005cec30 f   LIBCMTD:localref.obj
 0002:0011dcd0       ___updatetlocinfo          005cecd0 f   LIBCMTD:localref.obj
 0002:0011ddd0       _abort                     005cedd0 f   LIBCMTD:abort.obj
 0002:0011de50       __set_abort_behavior       005cee50 f   LIBCMTD:abort.obj
 0002:0011de90       __FF_MSGBANNER             005cee90 f   LIBCMTD:crt0msg.obj
 0002:0011def0       __GET_RTERRMSG             005ceef0 f   LIBCMTD:crt0msg.obj
 0002:0011df50       __NMSG_WRITE               005cef50 f   LIBCMTD:crt0msg.obj
 0002:0011e350       ___getlocaleinfo           005cf350 f   LIBCMTD:inithelp.obj
 0002:0011e6e0       __initp_misc_purevirt      005cf6e0 f   LIBCMTD:inithelp.obj
 0002:0011e700       __input_l                  005cf700 f   LIBCMTD:input.obj
 0002:00120590       __INTRN_LOCALE_CONV        005d1590 f i LIBCMTD:input.obj
 0002:00120700       __input_s_l                005d1700 f   LIBCMTD:inputs.obj
 0002:00122b70       __VEC_memzero              005d3b70 f   LIBCMTD:p4_memset.obj
 0002:00122c60       ___sse2_available_init     005d3c60 f   LIBCMTD:cpu_disp.obj
 0002:00122c80       __VEC_memcpy               005d3c80 f   LIBCMTD:p4_memcpy.obj
 0002:00122dd0       __CrtDefaultAllocHook      005d3dd0 f   LIBCMTD:dbghook.obj
 0002:00122de0       __crt_debugger_hook        005d3de0 f   LIBCMTD:dbghook.obj
 0002:00122e00       __CrtDbgBreak              005d3e00 f   LIBCMTD:dbgrptt.obj
 0002:00122e10       __CrtSetReportMode         005d3e10 f   LIBCMTD:dbgrptt.obj
 0002:00122fa0       __CrtSetReportFile         005d3fa0 f   LIBCMTD:dbgrptt.obj
 0002:001230d0       __CrtSetReportHook         005d40d0 f   LIBCMTD:dbgrptt.obj
 0002:00123100       __CrtGetReportHook         005d4100 f   LIBCMTD:dbgrptt.obj
 0002:00123110       __VCrtDbgReportA           005d4110 f   LIBCMTD:dbgrptt.obj
 0002:00123b40       __VCrtDbgReportW           005d4b40 f   LIBCMTD:dbgrptt.obj
 0002:001246c0       __initp_misc_winsig        005d56c0 f   LIBCMTD:winsig.obj
 0002:00124700       _signal                    005d5700 f   LIBCMTD:winsig.obj
 0002:00124cb0       _raise                     005d5cb0 f   LIBCMTD:winsig.obj
 0002:00125100       ___get_sigabrt             005d6100 f   LIBCMTD:winsig.obj
 0002:00125120       ___fpecode                 005d6120 f   LIBCMTD:winsig.obj
 0002:00125140       ___pxcptinfoptrs           005d6140 f   LIBCMTD:winsig.obj
 0002:00125160       ___crtMessageBoxW          005d6160 f   LIBCMTD:crtmboxw.obj
 0002:00125410       __swprintf                 005d6410 f   LIBCMTD:swprintf.obj
 0002:00125690       ___swprintf_l              005d6690 f   LIBCMTD:swprintf.obj
 0002:001256d0       _swprintf_s                005d66d0 f   LIBCMTD:swprintf.obj
 0002:00125710       __snwprintf_s              005d6710 f   LIBCMTD:swprintf.obj
 0002:00125750       __swprintf_p               005d6750 f   LIBCMTD:swprintf.obj
 0002:00125790       __swprintf_s_l             005d6790 f   LIBCMTD:swprintf.obj
 0002:001257d0       __snwprintf_s_l            005d67d0 f   LIBCMTD:swprintf.obj
 0002:00125810       __swprintf_p_l             005d6810 f   LIBCMTD:swprintf.obj
 0002:00125850       __scwprintf                005d6850 f   LIBCMTD:swprintf.obj
 0002:00125880       __scwprintf_p              005d6880 f   LIBCMTD:swprintf.obj
 0002:001258b0       __scwprintf_l              005d68b0 f   LIBCMTD:swprintf.obj
 0002:001258e0       __scwprintf_p_l            005d68e0 f   LIBCMTD:swprintf.obj
 0002:00125910       _memcpy_s                  005d6910 f   LIBCMTD:memcpy_s.obj
 0002:00125b00       _wcscpy_s                  005d6b00 f   LIBCMTD:wcscpy_s.obj
 0002:00125ea0       __itow_s                   005d6ea0 f   LIBCMTD:xtows.obj
 0002:00126370       __ltow_s                   005d7370 f   LIBCMTD:xtows.obj
 0002:001263c0       __ultow_s                  005d73c0 f   LIBCMTD:xtows.obj
 0002:001263f0       __i64tow_s                 005d73f0 f   LIBCMTD:xtows.obj
 0002:00126910       __ui64tow_s                005d7910 f   LIBCMTD:xtows.obj
 0002:00126940       _wcsncat_s                 005d7940 f   LIBCMTD:wcsncat_s.obj
 0002:00126f20       _wcsncpy_s                 005d7f20 f   LIBCMTD:wcsncpy_s.obj
 0002:00127430       _wcscat_s                  005d8430 f   LIBCMTD:wcscat_s.obj
 0002:00127910       _fwprintf                  005d8910 f   LIBCMTD:fwprintf.obj
 0002:00127af0       __fwprintf_l               005d8af0 f   LIBCMTD:fwprintf.obj
 0002:00127b30       __fwprintf_s_l             005d8b30 f   LIBCMTD:fwprintf.obj
 0002:00127b70       _fwprintf_s                005d8b70 f   LIBCMTD:fwprintf.obj
 0002:00127ba0       __fwprintf_p_l             005d8ba0 f   LIBCMTD:fwprintf.obj
 0002:00127be0       __fwprintf_p               005d8be0 f   LIBCMTD:fwprintf.obj
 0002:00127c10       __set_error_mode           005d8c10 f   LIBCMTD:errmode.obj
 0002:00127d00       ___set_app_type            005d8d00 f   LIBCMTD:errmode.obj
 0002:00127d20       __vswprintf_helper         005d8d20 f   LIBCMTD:vswprnc.obj
 0002:00128010       __vswprintf_c              005d9010 f   LIBCMTD:vswprnc.obj
 0002:00128070       __vswprintf_c_l            005d9070 f   LIBCMTD:vswprnc.obj
 0002:001280d0       __vswprintf_s_l            005d90d0 f   LIBCMTD:vswprnc.obj
 0002:001283d0       _vswprintf_s               005d93d0 f   LIBCMTD:vswprnc.obj
 0002:00128400       __vsnwprintf_s_l           005d9400 f   LIBCMTD:vswprnc.obj
 0002:001288a0       __vsnwprintf_s             005d98a0 f   LIBCMTD:vswprnc.obj
 0002:001288d0       __vswprintf_p              005d98d0 f   LIBCMTD:vswprnc.obj
 0002:00128930       __vswprintf_p_l            005d9930 f   LIBCMTD:vswprnc.obj
 0002:00128990       ___crtMessageBoxA          005d9990 f   LIBCMTD:crtmbox.obj
 0002:00128c40       ___ascii_strnicmp          005d9c40 f   LIBCMTD:_strnicm.obj
 0002:00128cc0       __setdefaultprecision      005d9cc0 f   LIBCMTD:fp8.obj
 0002:00128d10       __forcdecpt                005d9d10 f   LIBCMTD:cvt.obj
 0002:00128d30       __forcdecpt_l              005d9d30 f   LIBCMTD:cvt.obj
 0002:00128e20       __cropzeros                005d9e20 f   LIBCMTD:cvt.obj
 0002:00128e40       __cropzeros_l              005d9e40 f   LIBCMTD:cvt.obj
 0002:00128f90       __positive                 005d9f90 f   LIBCMTD:cvt.obj
 0002:00128fd0       __fassign_l                005d9fd0 f   LIBCMTD:cvt.obj
 0002:00129040       __fassign                  005da040 f   LIBCMTD:cvt.obj
 0002:00129070       __cftoe_l                  005da070 f   LIBCMTD:cvt.obj
 0002:00129710       __cftoe                    005da710 f   LIBCMTD:cvt.obj
 0002:00129740       __cftoa_l                  005da740 f   LIBCMTD:cvt.obj
 0002:0012a110       __cftoa                    005db110 f   LIBCMTD:cvt.obj
 0002:0012a140       __cftof_l                  005db140 f   LIBCMTD:cvt.obj
 0002:0012a640       __cftof                    005db640 f   LIBCMTD:cvt.obj
 0002:0012a670       __cftog_l                  005db670 f   LIBCMTD:cvt.obj
 0002:0012a930       __cftog                    005db930 f   LIBCMTD:cvt.obj
 0002:0012a960       __cfltcvt_l                005db960 f   LIBCMTD:cvt.obj
 0002:0012aa50       __cfltcvt                  005dba50 f   LIBCMTD:cvt.obj
 0002:0012aad0       __initp_misc_cfltcvt_tab   005dbad0 f   LIBCMTD:cmiscdat.obj
 0002:0012ab20       __get_daylight             005dbb20 f   LIBCMTD:timeset.obj
 0002:0012abc0       __get_dstbias              005dbbc0 f   LIBCMTD:timeset.obj
 0002:0012ac60       __get_timezone             005dbc60 f   LIBCMTD:timeset.obj
 0002:0012ad00       __get_tzname               005dbd00 f   LIBCMTD:timeset.obj
 0002:0012af50       ___daylight                005dbf50 f   LIBCMTD:timeset.obj
 0002:0012af60       ___dstbias                 005dbf60 f   LIBCMTD:timeset.obj
 0002:0012af70       ___timezone                005dbf70 f   LIBCMTD:timeset.obj
 0002:0012af80       ___tzname                  005dbf80 f   LIBCMTD:timeset.obj
 0002:0012af90       _strtol                    005dbf90 f   LIBCMTD:strtol.obj
 0002:0012b610       __strtol_l                 005dc610 f   LIBCMTD:strtol.obj
 0002:0012b640       _strtoul                   005dc640 f   LIBCMTD:strtol.obj
 0002:0012b6a0       __strtoul_l                005dc6a0 f   LIBCMTD:strtol.obj
 0002:0012b6d0       __strtoi64                 005dc6d0 f   LIBCMTD:strtoq.obj
 0002:0012bda0       __strtoi64_l               005dcda0 f   LIBCMTD:strtoq.obj
 0002:0012bdd0       __strtoui64                005dcdd0 f   LIBCMTD:strtoq.obj
 0002:0012be30       __strtoui64_l              005dce30 f   LIBCMTD:strtoq.obj
 0002:0012be60       __commit                   005dce60 f   LIBCMTD:commit.obj
 0002:0012c100       __stbuf                    005dd100 f   LIBCMTD:_sftbuf.obj
 0002:0012c2b0       __ftbuf                    005dd2b0 f   LIBCMTD:_sftbuf.obj
 0002:0012c360       _vprintf_helper            005dd360 f   LIBCMTD:vprintf.obj
 0002:0012c4c0       __vprintf_l                005dd4c0 f   LIBCMTD:vprintf.obj
 0002:0012c4f0       __vprintf_s_l              005dd4f0 f   LIBCMTD:vprintf.obj
 0002:0012c520       __vprintf_p_l              005dd520 f   LIBCMTD:vprintf.obj
 0002:0012c550       _vprintf                   005dd550 f   LIBCMTD:vprintf.obj
 0002:0012c580       _vprintf_s                 005dd580 f   LIBCMTD:vprintf.obj
 0002:0012c5b0       __vprintf_p                005dd5b0 f   LIBCMTD:vprintf.obj
 0002:0012c5e0       __getstream                005dd5e0 f   LIBCMTD:stream.obj
 0002:0012c8e0       __ioinit                   005dd8e0 f   LIBCMTD:ioinit.obj
 0002:0012ce00       __ioterm                   005dde00 f   LIBCMTD:ioinit.obj
 0002:0012ced0       __freebuf                  005dded0 f   LIBCMTD:_freebuf.obj
 0002:0012cf80       __fcloseall                005ddf80 f   LIBCMTD:closeall.obj
 0002:0012d100       ___crtLCMapStringA         005de100 f   LIBCMTD:a_map.obj
 0002:0012d510       __isleadbyte_l             005de510 f i LIBCMTD:_wctype.obj
 0002:0012d570       _isleadbyte                005de570 f i LIBCMTD:_wctype.obj
 0002:0012d590       __iswalpha_l               005de590 f i LIBCMTD:_wctype.obj
 0002:0012d5b0       _iswalpha                  005de5b0 f i LIBCMTD:_wctype.obj
 0002:0012d5d0       __iswupper_l               005de5d0 f i LIBCMTD:_wctype.obj
 0002:0012d5f0       _iswupper                  005de5f0 f i LIBCMTD:_wctype.obj
 0002:0012d610       __iswlower_l               005de610 f i LIBCMTD:_wctype.obj
 0002:0012d630       _iswlower                  005de630 f i LIBCMTD:_wctype.obj
 0002:0012d650       __iswdigit_l               005de650 f i LIBCMTD:_wctype.obj
 0002:0012d670       _iswdigit                  005de670 f i LIBCMTD:_wctype.obj
 0002:0012d690       __iswxdigit_l              005de690 f i LIBCMTD:_wctype.obj
 0002:0012d6b0       _iswxdigit                 005de6b0 f i LIBCMTD:_wctype.obj
 0002:0012d6d0       __iswspace_l               005de6d0 f i LIBCMTD:_wctype.obj
 0002:0012d6f0       _iswspace                  005de6f0 f i LIBCMTD:_wctype.obj
 0002:0012d710       __iswpunct_l               005de710 f i LIBCMTD:_wctype.obj
 0002:0012d730       _iswpunct                  005de730 f i LIBCMTD:_wctype.obj
 0002:0012d750       __iswalnum_l               005de750 f i LIBCMTD:_wctype.obj
 0002:0012d770       _iswalnum                  005de770 f i LIBCMTD:_wctype.obj
 0002:0012d790       __iswprint_l               005de790 f i LIBCMTD:_wctype.obj
 0002:0012d7b0       _iswprint                  005de7b0 f i LIBCMTD:_wctype.obj
 0002:0012d7d0       __iswgraph_l               005de7d0 f i LIBCMTD:_wctype.obj
 0002:0012d7f0       _iswgraph                  005de7f0 f i LIBCMTD:_wctype.obj
 0002:0012d810       __iswcntrl_l               005de810 f i LIBCMTD:_wctype.obj
 0002:0012d830       _iswcntrl                  005de830 f i LIBCMTD:_wctype.obj
 0002:0012d850       _iswascii                  005de850 f i LIBCMTD:_wctype.obj
 0002:0012d870       __iswcsym_l                005de870 f i LIBCMTD:_wctype.obj
 0002:0012d8c0       ___iswcsym                 005de8c0 f i LIBCMTD:_wctype.obj
 0002:0012d910       __iswcsymf_l               005de910 f i LIBCMTD:_wctype.obj
 0002:0012d960       ___iswcsymf                005de960 f i LIBCMTD:_wctype.obj
 0002:0012d9b0       __chvalidator              005de9b0 f   LIBCMTD:isctype.obj
 0002:0012da10       __chvalidator_l            005dea10 f   LIBCMTD:isctype.obj
 0002:0012daf0       __isctype_l                005deaf0 f   LIBCMTD:isctype.obj
 0002:0012dc50       __isctype                  005dec50 f   LIBCMTD:isctype.obj
 0002:0012dca0       _strnlen                   005deca0 f   LIBCMTD:strlen_s.obj
 0002:0012dcf0       __mbsnbicoll_l             005decf0 f   LIBCMTD:mbsnbico.obj
 0002:0012dfc0       __mbsnbicoll               005defc0 f   LIBCMTD:mbsnbico.obj
 0002:0012dff0       ___wtomb_environ           005deff0 f   LIBCMTD:wtombenv.obj
 0002:0012e120       ___dtoxmode                005df120 f   LIBCMTD:stat.obj
 0002:0012e2c0       __stat32                   005df2c0 f   LIBCMTD:stat.obj
 0002:0012ecf0       ___loctotime64_t           005dfcf0 f   LIBCMTD:dtoxtm64.obj
 0002:0012f150       __getdrive                 005e0150 f   LIBCMTD:drive.obj
 0002:0012f330       __chdrive                  005e0330 f   LIBCMTD:drive.obj
 0002:0012f4d0       __mbctolower_l             005e04d0 f   LIBCMTD:mbtolwr.obj
 0002:0012f670       __mbctolower               005e0670 f   LIBCMTD:mbtolwr.obj
 0002:0012f690       __mbspbrk_l                005e0690 f   LIBCMTD:mbspbrk.obj
 0002:0012f950       __mbspbrk                  005e0950 f   LIBCMTD:mbspbrk.obj
 0002:0012f970       __RTC_Initialize           005e0970 f   LIBCMTD:_initsect_.obj
 0002:0012f9a0       __RTC_Terminate            005e09a0 f   LIBCMTD:_initsect_.obj
 0002:0012f9d0       __ValidateImageBase        005e09d0 f   LIBCMTD:pesect.obj
 0002:0012fa50       __FindPESection            005e0a50 f   LIBCMTD:pesect.obj
 0002:0012faf0       __IsNonwritableInCurrentImage 005e0af0 f   LIBCMTD:pesect.obj
 0002:0012fc50       __initp_misc_rand_s        005e0c50 f   LIBCMTD:rand_s.obj
 0002:0012fc70       _rand_s                    005e0c70 f   LIBCMTD:rand_s.obj
 0002:0012ff10       _vfprintf_helper           005e0f10 f   LIBCMTD:vfprintf.obj
 0002:00130250       __vfprintf_l               005e1250 f   LIBCMTD:vfprintf.obj
 0002:00130280       __vfprintf_s_l             005e1280 f   LIBCMTD:vfprintf.obj
 0002:001302b0       __vfprintf_p_l             005e12b0 f   LIBCMTD:vfprintf.obj
 0002:001302e0       _vfprintf                  005e12e0 f   LIBCMTD:vfprintf.obj
 0002:00130310       _vfprintf_s                005e1310 f   LIBCMTD:vfprintf.obj
 0002:00130340       __vfprintf_p               005e1340 f   LIBCMTD:vfprintf.obj
 0002:00130370       ?__CxxUnhandledExceptionFilter@@YGJPAU_EXCEPTION_POINTERS@@@Z 005e1370 f   LIBCMTD:unhandld.obj
 0002:001303f0       ___CxxSetUnhandledExceptionFilter 005e13f0 f   LIBCMTD:unhandld.obj
 0002:00130410       ___security_init_cookie    005e1410 f   LIBCMTD:gs_support.obj
 0002:00130530       ___CppXcptFilter           005e1530 f   LIBCMTD:winxfltr.obj
 0002:00130560       __XcptFilter               005e1560 f   LIBCMTD:winxfltr.obj
 0002:00130850       __wincmdln                 005e1850 f   LIBCMTD:wincmdln.obj
 0002:00130950       __setenvp                  005e1950 f   LIBCMTD:stdenvp.obj
 0002:00130b60       __setargv                  005e1b60 f   LIBCMTD:stdargv.obj
 0002:00130cc0       __set_pgmptr               005e1cc0 f i LIBCMTD:stdargv.obj
 0002:00131120       ___crtGetEnvironmentStringsA 005e2120 f   LIBCMTD:a_env.obj
 0002:00131260       __heap_init                005e2260 f   LIBCMTD:heapinit.obj
 0002:001312b0       __heap_term                005e22b0 f   LIBCMTD:heapinit.obj
 0002:001312e0       __get_heap_handle          005e22e0 f   LIBCMTD:heapinit.obj
 0002:00131320       ?_RTC_Failure@@YAXPAXH@Z   005e2320 f   LIBCMTD:_error_.obj
 0002:001317b0       ?_RTC_StackFailure@@YAXPAXPBD@Z 005e27b0 f   LIBCMTD:_error_.obj
 0002:001318f0       ?_RTC_AllocaFailure@@YAXPAXPAU_RTC_ALLOCA_NODE@@H@Z 005e28f0 f   LIBCMTD:_error_.obj
 0002:00131b00       __RTC_UninitUse            005e2b00 f   LIBCMTD:_error_.obj
 0002:00131c30       __RTC_NumErrors            005e2c30 f   LIBCMTD:_userapi_.obj
 0002:00131c40       __RTC_GetErrDesc           005e2c40 f   LIBCMTD:_userapi_.obj
 0002:00131c60       __RTC_SetErrorType         005e2c60 f   LIBCMTD:_userapi_.obj
 0002:00131c90       __RTC_SetErrorFunc         005e2c90 f   LIBCMTD:_userapi_.obj
 0002:00131cc0       __RTC_SetErrorFuncW        005e2cc0 f   LIBCMTD:_userapi_.obj
 0002:00131cf0       ?_RTC_GetErrorFunc@@YAP6AHHPBDH00ZZPBX@Z 005e2cf0 f   LIBCMTD:_userapi_.obj
 0002:00131d00       ?_RTC_GetErrorFuncW@@YAP6AHHPB_WH00ZZPBX@Z 005e2d00 f   LIBCMTD:_userapi_.obj
 0002:00131d10       __chkesp                   005e2d10 f   LIBCMTD:chkesp.obj
 0002:00131d60       __CRT_RTC_INIT             005e2d60 f   LIBCMTD:chkesp.obj
 0002:00131d70       __CRT_RTC_INITW            005e2d70 f   LIBCMTD:chkesp.obj
 0002:00131d80       ___sys_nerr                005e2d80 f   LIBCMTD:syserr.obj
 0002:00131d90       ___sys_errlist             005e2d90 f   LIBCMTD:syserr.obj
 0002:00131da0       ___pwctype_func            005e2da0 f   LIBCMTD:ctype.obj
 0002:00131db0       ___pctype_func             005e2db0 f   LIBCMTD:ctype.obj
 0002:00131e10       ___init_time               005e2e10 f   LIBCMTD:inittime.obj
 0002:00132e80       ___free_lc_time            005e3e80 f   LIBCMTD:inittime.obj
 0002:00133690       ___init_numeric            005e4690 f   LIBCMTD:initnum.obj
 0002:00133b30       ___free_lconv_num          005e4b30 f   LIBCMTD:initnum.obj
 0002:00133c10       ___init_monetary           005e4c10 f   LIBCMTD:initmon.obj
 0002:00134370       ___free_lconv_mon          005e5370 f   LIBCMTD:initmon.obj
 0002:00134580       ___init_collate            005e5580 f   LIBCMTD:initcoll.obj
 0002:00134590       _localeconv                005e5590 f   LIBCMTD:lconv.obj
 0002:001345f0       _strcspn                   005e55f0 f   LIBCMTD:strcspn.obj
 0002:00134650       _strpbrk                   005e5650 f   LIBCMTD:strpbrk.obj
 0002:001346a0       ___crtGetStringTypeA       005e56a0 f   LIBCMTD:a_str.obj
 0002:00134860       ___get_qualified_locale    005e5860 f   LIBCMTD:getqloc.obj
 0002:00135a30       __global_unwind2           005e6a30 f   LIBCMTD:exsup.obj
 0002:00135a95       __local_unwind2            005e6a95 f   LIBCMTD:exsup.obj
 0002:00135b19       __abnormal_termination     005e6b19 f   LIBCMTD:exsup.obj
 0002:00135b3c       __NLG_Notify1              005e6b3c f   LIBCMTD:exsup.obj
 0002:00135b45       __NLG_Notify               005e6b45 f   LIBCMTD:exsup.obj
 0002:00135b5c       __NLG_Dispatch             005e6b5c     LIBCMTD:exsup.obj
 0002:00135b5c       __NLG_Dispatch2            005e6b5c     LIBCMTD:exsup.obj
 0002:00135b64       __NLG_Call                 005e6b64 f   LIBCMTD:exsup.obj
 0002:00135b66       __NLG_Return2              005e6b66     LIBCMTD:exsup.obj
 0002:00135bc0       __putwch                   005e6bc0 f   LIBCMTD:putwch.obj
 0002:00135c70       __putwch_nolock            005e6c70 f   LIBCMTD:putwch.obj
 0002:00135ce0       __mbtowc_l                 005e6ce0 f   LIBCMTD:mbtowc.obj
 0002:00135f80       _mbtowc                    005e6f80 f   LIBCMTD:mbtowc.obj
 0002:00135fb0       __lseeki64                 005e6fb0 f   LIBCMTD:lseeki64.obj
 0002:00136290       __lseeki64_nolock          005e7290 f   LIBCMTD:lseeki64.obj
 0002:001363c0       ___crtwsetenv              005e73c0 f   LIBCMTD:wsetenv.obj
 0002:00136c00       ___crtsetenv               005e7c00 f   LIBCMTD:setenv.obj
 0002:00137420       __chsize_s                 005e8420 f   LIBCMTD:chsize.obj
 0002:00137760       __chsize_nolock            005e8760 f   LIBCMTD:chsize.obj
 0002:00137aa0       __chsize                   005e8aa0 f   LIBCMTD:chsize.obj
 0002:00137ad0       __openfile                 005e8ad0 f   LIBCMTD:_open.obj
 0002:00138480       __local_unwind4            005e9480 f   LIBCMTD:exsup4.obj
 0002:00138556       __seh_longjmp_unwind4@4    005e9556 f   LIBCMTD:exsup4.obj
 0002:00138572       @_EH4_CallFilterFunc@8     005e9572 f   LIBCMTD:exsup4.obj
 0002:00138589       @_EH4_TransferToHandler@8  005e9589 f   LIBCMTD:exsup4.obj
 0002:001385a2       @_EH4_GlobalUnwind2@8      005e95a2 f   LIBCMTD:exsup4.obj
 0002:001385bb       @_EH4_LocalUnwind@16       005e95bb f   LIBCMTD:exsup4.obj
 0002:00138630       __rt_probe_read4@4         005e9630 f   LIBCMTD:sehsupp.obj
 0002:001386f0       __gmtime32_s               005e96f0 f   LIBCMTD:gmtime.obj
 0002:00138a50       ___getgmtimebuf            005e9a50 f   LIBCMTD:gmtime.obj
 0002:00138af0       __gmtime32                 005e9af0 f   LIBCMTD:gmtime.obj
 0002:00138b40       __ismbbkalnum_l            005e9b40 f   LIBCMTD:ismbbyte.obj
 0002:00138b70       __ismbbkalnum              005e9b70 f   LIBCMTD:ismbbyte.obj
 0002:00138b90       __ismbbkprint_l            005e9b90 f   LIBCMTD:ismbbyte.obj
 0002:00138bc0       __ismbbkprint              005e9bc0 f   LIBCMTD:ismbbyte.obj
 0002:00138be0       __ismbbkpunct_l            005e9be0 f   LIBCMTD:ismbbyte.obj
 0002:00138c10       __ismbbkpunct              005e9c10 f   LIBCMTD:ismbbyte.obj
 0002:00138c30       __ismbbalnum_l             005e9c30 f   LIBCMTD:ismbbyte.obj
 0002:00138c60       __ismbbalnum               005e9c60 f   LIBCMTD:ismbbyte.obj
 0002:00138c90       __ismbbalpha_l             005e9c90 f   LIBCMTD:ismbbyte.obj
 0002:00138cc0       __ismbbalpha               005e9cc0 f   LIBCMTD:ismbbyte.obj
 0002:00138cf0       __ismbbgraph_l             005e9cf0 f   LIBCMTD:ismbbyte.obj
 0002:00138d20       __ismbbgraph               005e9d20 f   LIBCMTD:ismbbyte.obj
 0002:00138d50       __ismbbprint_l             005e9d50 f   LIBCMTD:ismbbyte.obj
 0002:00138d80       __ismbbprint               005e9d80 f   LIBCMTD:ismbbyte.obj
 0002:00138db0       __ismbbpunct_l             005e9db0 f   LIBCMTD:ismbbyte.obj
 0002:00138de0       __ismbbpunct               005e9de0 f   LIBCMTD:ismbbyte.obj
 0002:00138e00       __ismbblead_l              005e9e00 f   LIBCMTD:ismbbyte.obj
 0002:00138e30       __ismbblead                005e9e30 f   LIBCMTD:ismbbyte.obj
 0002:00138e50       __ismbbtrail_l             005e9e50 f   LIBCMTD:ismbbyte.obj
 0002:00138e80       __ismbbtrail               005e9e80 f   LIBCMTD:ismbbyte.obj
 0002:00138ea0       __ismbbkana_l              005e9ea0 f   LIBCMTD:ismbbyte.obj
 0002:00138f30       __ismbbkana                005e9f30 f   LIBCMTD:ismbbyte.obj
 0002:00139050       __filbuf                   005ea050 f   LIBCMTD:_filbuf.obj
 0002:00139330       __mbctoupper_l             005ea330 f   LIBCMTD:mbtoupr.obj
 0002:001394d0       __mbctoupper               005ea4d0 f   LIBCMTD:mbtoupr.obj
 0002:001394f0       ___unDName                 005ea4f0 f   LIBCMTD:undname.obj
 0002:00139600       ?Constructor@_HeapManager@@QAEXP6APAXI@ZP6AXPAX@Z@Z 005ea600 f i LIBCMTD:undname.obj
 0002:00139650       ?Destructor@_HeapManager@@QAEXXZ 005ea650 f i LIBCMTD:undname.obj
 0002:001396b0       ___unDNameEx               005ea6b0 f   LIBCMTD:undname.obj
 0002:001397c0       ??0UnDecorator@@QAE@PADPBDHP6APADJ@ZK@Z 005ea7c0 f i LIBCMTD:undname.obj
 0002:00139880       ??BUnDecorator@@QAEPADXZ   005ea880 f i LIBCMTD:undname.obj
 0002:00139b40       ?dbGetString@DName@@QBEPADXZ 005eab40 f   LIBCMTD:undname.obj
 0002:00139b70       ?getDecoratedName@UnDecorator@@CA?AVDName@@XZ 005eab70 f   LIBCMTD:undname.obj
 0002:00139f50       ?getSymbolName@UnDecorator@@CA?AVDName@@XZ 005eaf50 f i LIBCMTD:undname.obj
 0002:00139fe0       ?getZName@UnDecorator@@CA?AVDName@@_N0@Z 005eafe0 f   LIBCMTD:undname.obj
 0002:0013a330       ?getOperatorName@UnDecorator@@CA?AVDName@@_NPA_N@Z 005eb330 f i LIBCMTD:undname.obj
 0002:0013aef0       ?getStringEncoding@UnDecorator@@CA?AVDName@@PADH@Z 005ebef0 f   LIBCMTD:undname.obj
 0002:0013b030       ?getScope@UnDecorator@@CA?AVDName@@XZ 005ec030 f   LIBCMTD:undname.obj
 0002:0013b500       ?getSignedDimension@UnDecorator@@CA?AVDName@@XZ 005ec500 f   LIBCMTD:undname.obj
 0002:0013b5a0       ?getDimension@UnDecorator@@CA?AVDName@@_N@Z 005ec5a0 f   LIBCMTD:undname.obj
 0002:0013b900       ?getNumberOfDimensions@UnDecorator@@CAHXZ 005ec900 f   LIBCMTD:undname.obj
 0002:0013ba40       ?getTemplateName@UnDecorator@@CA?AVDName@@_N@Z 005eca40 f   LIBCMTD:undname.obj
 0002:0013bc70       ?getTemplateArgumentList@UnDecorator@@CA?AVDName@@XZ 005ecc70 f   LIBCMTD:undname.obj
 0002:0013bf90       ?getTemplateConstant@UnDecorator@@CA?AVDName@@XZ 005ecf90 f   LIBCMTD:undname.obj
 0002:0013c540       ?composeDeclaration@UnDecorator@@CA?AVDName@@ABV2@@Z 005ed540 f i LIBCMTD:undname.obj
 0002:0013e0b0       ?getTypeEncoding@UnDecorator@@CAHXZ 005ef0b0 f i LIBCMTD:undname.obj
 0002:0013ed80       ?getBasedType@UnDecorator@@CA?AVDName@@XZ 005efd80 f   LIBCMTD:undname.obj
 0002:0013ee70       ?getScopedName@UnDecorator@@CA?AVDName@@XZ 005efe70 f   LIBCMTD:undname.obj
 0002:0013efd0       ?getCallingConvention@UnDecorator@@CA?AVDName@@XZ 005effd0 f   LIBCMTD:undname.obj
 0002:0013f1a0       ?getReturnType@UnDecorator@@CA?AVDName@@PAV2@@Z 005f01a0 f   LIBCMTD:undname.obj
 0002:0013f200       ?getDataType@UnDecorator@@CA?AVDName@@PAV2@@Z 005f0200 f   LIBCMTD:undname.obj
 0002:0013f360       ?getPrimaryDataType@UnDecorator@@CA?AVDName@@ABV2@@Z 005f0360 f   LIBCMTD:undname.obj
 0002:0013f7e0       ?getArgumentTypes@UnDecorator@@CA?AVDName@@XZ 005f07e0 f   LIBCMTD:undname.obj
 0002:0013f990       ?getArgumentList@UnDecorator@@CA?AVDName@@XZ 005f0990 f   LIBCMTD:undname.obj
 0002:0013fb30       ?getThrowTypes@UnDecorator@@CA?AVDName@@XZ 005f0b30 f   LIBCMTD:undname.obj
 0002:0013fc10       ?getBasicDataType@UnDecorator@@CA?AVDName@@ABV2@@Z 005f0c10 f   LIBCMTD:undname.obj
 0002:00140340       ?getECSUDataType@UnDecorator@@CA?AVDName@@XZ 005f1340 f   LIBCMTD:undname.obj
 0002:00140590       ?getECSUName@UnDecorator@@CA?AVDName@@XZ 005f1590 f i LIBCMTD:undname.obj
 0002:001405b0       ?getEnumType@UnDecorator@@CA?AVDName@@XZ 005f15b0 f i LIBCMTD:undname.obj
 0002:00140750       ?getFunctionIndirectType@UnDecorator@@CA?AVDName@@ABV2@@Z 005f1750 f   LIBCMTD:undname.obj
 0002:00140ca0       ?getPtrRefType@UnDecorator@@CA?AVDName@@ABV2@0PBD@Z 005f1ca0 f   LIBCMTD:undname.obj
 0002:00140e60       ?getExtendedDataIndirectType@UnDecorator@@CA?AVDName@@AAPBDAA_NH@Z 005f1e60 f   LIBCMTD:undname.obj
 0002:00141110       ?getDataIndirectType@UnDecorator@@CA?AVDName@@ABV2@PBD0H@Z 005f2110 f   LIBCMTD:undname.obj
 0002:001419d0       ?getPtrRefDataType@UnDecorator@@CA?AVDName@@ABV2@H@Z 005f29d0 f i LIBCMTD:undname.obj
 0002:00141b60       ?getArrayType@UnDecorator@@CA?AVDName@@ABV2@@Z 005f2b60 f i LIBCMTD:undname.obj
 0002:00141e20       ?getLexicalFrame@UnDecorator@@CA?AVDName@@XZ 005f2e20 f i LIBCMTD:undname.obj
 0002:00141e70       ?getThisType@UnDecorator@@CA?AVDName@@XZ 005f2e70 f i LIBCMTD:undname.obj
 0002:00141ec0       ?getPointerType@UnDecorator@@CA?AVDName@@ABV2@0@Z 005f2ec0 f i LIBCMTD:undname.obj
 0002:00141f00       ?getPointerTypeArray@UnDecorator@@CA?AVDName@@ABV2@0@Z 005f2f00 f i LIBCMTD:undname.obj
 0002:00141f40       ?getReferenceType@UnDecorator@@CA?AVDName@@ABV2@0PBD@Z 005f2f40 f i LIBCMTD:undname.obj
 0002:00141f70       ?getDisplacement@UnDecorator@@CA?AVDName@@XZ 005f2f70 f i LIBCMTD:undname.obj
 0002:00141f90       ?getCallIndex@UnDecorator@@CA?AVDName@@XZ 005f2f90 f i LIBCMTD:undname.obj
 0002:00141fb0       ?getGuardNumber@UnDecorator@@CA?AVDName@@XZ 005f2fb0 f i LIBCMTD:undname.obj
 0002:00141fd0       ?getVbTableType@UnDecorator@@CA?AVDName@@ABV2@@Z 005f2fd0 f i LIBCMTD:undname.obj
 0002:00141ff0       ?getVCallThunkType@UnDecorator@@CA?AVDName@@XZ 005f2ff0 f i LIBCMTD:undname.obj
 0002:00142070       ?getVfTableType@UnDecorator@@CA?AVDName@@ABV2@@Z 005f3070 f i LIBCMTD:undname.obj
 0002:001422a0       ?getStorageConvention@UnDecorator@@CA?AVDName@@XZ 005f32a0 f i LIBCMTD:undname.obj
 0002:001422c0       ?getDataIndirectType@UnDecorator@@CA?AVDName@@XZ 005f32c0 f i LIBCMTD:undname.obj
 0002:00142310       ?getVdispMapType@UnDecorator@@CA?AVDName@@ABV2@@Z 005f3310 f i LIBCMTD:undname.obj
 0002:001423a0       ?getExternalDataType@UnDecorator@@CA?AVDName@@ABV2@@Z 005f33a0 f i LIBCMTD:undname.obj
 0002:00142460       ?doMSKeywords@UnDecorator@@SAHXZ 005f3460 f i LIBCMTD:undname.obj
 0002:00142480       ?doPtr64@UnDecorator@@SAHXZ 005f3480 f i LIBCMTD:undname.obj
 0002:001424a0       ?doFunctionReturns@UnDecorator@@SAHXZ 005f34a0 f i LIBCMTD:undname.obj
 0002:001424c0       ?doAllocationModel@UnDecorator@@SAHXZ 005f34c0 f i LIBCMTD:undname.obj
 0002:001424e0       ?doAllocationLanguage@UnDecorator@@SAHXZ 005f34e0 f i LIBCMTD:undname.obj
 0002:00142500       ?doThisTypes@UnDecorator@@SAHXZ 005f3500 f i LIBCMTD:undname.obj
 0002:00142520       ?doAccessSpecifiers@UnDecorator@@SAHXZ 005f3520 f i LIBCMTD:undname.obj
 0002:00142540       ?doThrowTypes@UnDecorator@@SAHXZ 005f3540 f i LIBCMTD:undname.obj
 0002:00142560       ?doMemberTypes@UnDecorator@@SAHXZ 005f3560 f i LIBCMTD:undname.obj
 0002:00142580       ?doNameOnly@UnDecorator@@SAHXZ 005f3580 f i LIBCMTD:undname.obj
 0002:001425a0       ?doTypeOnly@UnDecorator@@SAHXZ 005f35a0 f i LIBCMTD:undname.obj
 0002:001425c0       ?haveTemplateParameters@UnDecorator@@SAHXZ 005f35c0 f i LIBCMTD:undname.obj
 0002:001425e0       ?doEcsu@UnDecorator@@SAHXZ 005f35e0 f i LIBCMTD:undname.obj
 0002:00142600       ?doEllipsis@UnDecorator@@SAHXZ 005f3600 f i LIBCMTD:undname.obj
 0002:00142620       ?UScore@UnDecorator@@SAPBDW4Tokens@@@Z 005f3620 f   LIBCMTD:undname.obj
 0002:00142660       ?doUnderScore@UnDecorator@@SAHXZ 005f3660 f i LIBCMTD:undname.obj
 0002:00142680       ??2@YAPAXIAAV_HeapManager@@H@Z 005f3680 f i LIBCMTD:undname.obj
 0002:001426a0       ?getMemory@_HeapManager@@QAEPAXIH@Z 005f36a0 f   LIBCMTD:undname.obj
 0002:001427f0       ??0Block@_HeapManager@@QAE@XZ 005f37f0 f i LIBCMTD:undname.obj
 0002:00142810       ??H@YA?AVDName@@DABV0@@Z   005f3810 f i LIBCMTD:undname.obj
 0002:00142850       ??H@YA?AVDName@@W4DNameStatus@@ABV0@@Z 005f3850 f i LIBCMTD:undname.obj
 0002:00142890       ??H@YA?AVDName@@PBDABV0@@Z 005f3890 f i LIBCMTD:undname.obj
 0002:001428d0       ??0DName@@QAE@XZ           005f38d0 f i LIBCMTD:undname.obj
 0002:001429c0       ??0DName@@QAE@D@Z          005f39c0 f   LIBCMTD:undname.obj
 0002:00142ad0       ??0DName@@QAE@ABV0@@Z      005f3ad0 f i LIBCMTD:undname.obj
 0002:00142b00       ??0DName@@QAE@PAV0@@Z      005f3b00 f   LIBCMTD:undname.obj
 0002:00142c80       ??0DName@@QAE@PBD@Z        005f3c80 f   LIBCMTD:undname.obj
 0002:00142db0       ??0DName@@QAE@AAPBDD@Z     005f3db0 f   LIBCMTD:undname.obj
 0002:00143120       ?doNoIdentCharCheck@UnDecorator@@SAHXZ 005f4120 f i LIBCMTD:undname.obj
 0002:00143140       ??0DName@@QAE@_K@Z         005f4140 f   LIBCMTD:undname.obj
 0002:001432d0       ??0DName@@QAE@_J@Z         005f42d0 f   LIBCMTD:undname.obj
 0002:001434b0       ??0DName@@QAE@W4DNameStatus@@@Z 005f44b0 f   LIBCMTD:undname.obj
 0002:00143610       ?isValid@DName@@QBEHXZ     005f4610 f i LIBCMTD:undname.obj
 0002:00143640       ?isEmpty@DName@@QBEHXZ     005f4640 f i LIBCMTD:undname.obj
 0002:00143660       ?status@DName@@QBE?AW4DNameStatus@@XZ 005f4660 f i LIBCMTD:undname.obj
 0002:00143680       ?setPtrRef@DName@@QAEAAV1@XZ 005f4680 f i LIBCMTD:undname.obj
 0002:001436b0       ?isPtrRef@DName@@QBEHXZ    005f46b0 f i LIBCMTD:undname.obj
 0002:001436d0       ?isUDC@DName@@QBEHXZ       005f46d0 f i LIBCMTD:undname.obj
 0002:00143720       ?setIsUDC@DName@@QAEXXZ    005f4720 f i LIBCMTD:undname.obj
 0002:00143760       ?isUDTThunk@DName@@QBEHXZ  005f4760 f i LIBCMTD:undname.obj
 0002:001437b0       ?setIsArray@DName@@QAEXXZ  005f47b0 f i LIBCMTD:undname.obj
 0002:001437e0       ?isArray@DName@@QBEHXZ     005f47e0 f i LIBCMTD:undname.obj
 0002:00143800       ?isNoTE@DName@@QBEHXZ      005f4800 f i LIBCMTD:undname.obj
 0002:00143820       ?setIsNoTE@DName@@QAEXXZ   005f4820 f i LIBCMTD:undname.obj
 0002:00143850       ?isPinPtr@DName@@QBEHXZ    005f4850 f i LIBCMTD:undname.obj
 0002:00143870       ?setIsPinPtr@DName@@QAEXXZ 005f4870 f i LIBCMTD:undname.obj
 0002:001438a0       ?isComArray@DName@@QBEHXZ  005f48a0 f i LIBCMTD:undname.obj
 0002:001438c0       ?setIsComArray@DName@@QAEXXZ 005f48c0 f i LIBCMTD:undname.obj
 0002:001438f0       ?isVCallThunk@DName@@QBEHXZ 005f48f0 f i LIBCMTD:undname.obj
 0002:00143910       ?setIsVCallThunk@DName@@QAEXXZ 005f4910 f i LIBCMTD:undname.obj
 0002:00143940       ?length@DName@@QBEHXZ      005f4940 f i LIBCMTD:undname.obj
 0002:00143980       ?getLastChar@DName@@QBEDXZ 005f4980 f i LIBCMTD:undname.obj
 0002:001439c0       ?getString@DName@@QBEPADPADH@Z 005f49c0 f i LIBCMTD:undname.obj
 0002:00143a70       ?getString@DName@@QBEPADPAD0@Z 005f4a70 f i LIBCMTD:undname.obj
 0002:00143ac0       ??HDName@@QBE?AV0@D@Z      005f4ac0 f   LIBCMTD:undname.obj
 0002:00143b10       ??HDName@@QBE?AV0@PBD@Z    005f4b10 f   LIBCMTD:undname.obj
 0002:00143b60       ??HDName@@QBE?AV0@ABV0@@Z  005f4b60 f   LIBCMTD:undname.obj
 0002:00143bb0       ??HDName@@QBE?AV0@PAV0@@Z  005f4bb0 f   LIBCMTD:undname.obj
 0002:00143c00       ??HDName@@QBE?AV0@W4DNameStatus@@@Z 005f4c00 f   LIBCMTD:undname.obj
 0002:00143c50       ?append@DName@@AAEXPAVDNameNode@@@Z 005f4c50 f   LIBCMTD:undname.obj
 0002:00143d00       ??YDName@@QAEAAV0@D@Z      005f4d00 f   LIBCMTD:undname.obj
 0002:00143db0       ??YDName@@QAEAAV0@PBD@Z    005f4db0 f   LIBCMTD:undname.obj
 0002:00143e70       ??YDName@@QAEAAV0@ABV0@@Z  005f4e70 f   LIBCMTD:undname.obj
 0002:00143ef0       ??YDName@@QAEAAV0@PAV0@@Z  005f4ef0 f   LIBCMTD:undname.obj
 0002:00143fd0       ??YDName@@QAEAAV0@W4DNameStatus@@@Z 005f4fd0 f   LIBCMTD:undname.obj
 0002:00144050       ??_5DName@@QAEAAV0@ABV0@@Z 005f5050 f   LIBCMTD:undname.obj
 0002:001440c0       ??4DName@@QAEAAV0@D@Z      005f50c0 f i LIBCMTD:undname.obj
 0002:001441d0       ??4DName@@QAEAAV0@PBD@Z    005f51d0 f   LIBCMTD:undname.obj
 0002:001442e0       ??4DName@@QAEAAV0@ABV0@@Z  005f52e0 f   LIBCMTD:undname.obj
 0002:00144310       ??4DName@@QAEAAV0@PAV0@@Z  005f5310 f   LIBCMTD:undname.obj
 0002:00144490       ??4DName@@QAEAAV0@W4DNameStatus@@@Z 005f5490 f   LIBCMTD:undname.obj
 0002:001445d0       ?doPchar@DName@@AAEXPBDH@Z 005f55d0 f   LIBCMTD:undname.obj
 0002:00144760       ?isFull@Replicator@@QBEHXZ 005f5760 f i LIBCMTD:undname.obj
 0002:00144780       ??0Replicator@@QAE@XZ      005f5780 f i LIBCMTD:undname.obj
 0002:001447a0       ??YReplicator@@QAEAAV0@ABVDName@@@Z 005f57a0 f   LIBCMTD:undname.obj
 0002:00144850       ??AReplicator@@QBE?AVDName@@H@Z 005f5850 f   LIBCMTD:undname.obj
 0002:001448d0       ??0DNameNode@@IAE@XZ       005f58d0 f   LIBCMTD:undname.obj
 0002:001448f0       ??0charNode@@QAE@D@Z       005f58f0 f   LIBCMTD:undname.obj
 0002:00144930       ?length@charNode@@UBEHXZ   005f5930 f i LIBCMTD:undname.obj
 0002:00144950       ?getLastChar@charNode@@UBEDXZ 005f5950 f i LIBCMTD:undname.obj
 0002:00144970       ?getString@charNode@@UBEPADPAD0@Z 005f5970 f i LIBCMTD:undname.obj
 0002:001449b0       ??0pcharNode@@QAE@PBDH@Z   005f59b0 f   LIBCMTD:undname.obj
 0002:00144a70       ?length@pcharNode@@UBEHXZ  005f5a70 f i LIBCMTD:undname.obj
 0002:00144a90       ?getLastChar@pcharNode@@UBEDXZ 005f5a90 f i LIBCMTD:undname.obj
 0002:00144ae0       ?getString@pcharNode@@UBEPADPAD0@Z 005f5ae0 f i LIBCMTD:undname.obj
 0002:00144b20       ?getStringHelper@@YAPADPAD00H@Z 005f5b20 f i LIBCMTD:undname.obj
 0002:00144b70       ??0pDNameNode@@QAE@PAVDName@@@Z 005f5b70 f   LIBCMTD:undname.obj
 0002:00144bf0       ?length@pDNameNode@@UBEHXZ 005f5bf0 f i LIBCMTD:undname.obj
 0002:00144c30       ?getLastChar@pDNameNode@@UBEDXZ 005f5c30 f i LIBCMTD:undname.obj
 0002:00144c70       ?getString@pDNameNode@@UBEPADPAD0@Z 005f5c70 f i LIBCMTD:undname.obj
 0002:00144cc0       ??0DNameStatusNode@@AAE@W4DNameStatus@@@Z 005f5cc0 f   LIBCMTD:undname.obj
 0002:00144d20       ?length@DNameStatusNode@@UBEHXZ 005f5d20 f i LIBCMTD:undname.obj
 0002:00144d40       ?getLastChar@DNameStatusNode@@UBEDXZ 005f5d40 f i LIBCMTD:undname.obj
 0002:00144d70       ?getString@DNameStatusNode@@UBEPADPAD0@Z 005f5d70 f i LIBCMTD:undname.obj
 0002:00144dc0       ?make@DNameStatusNode@@SAPAV1@W4DNameStatus@@@Z 005f5dc0 f i LIBCMTD:undname.obj
 0002:00144ea0       ??0pairNode@@QAE@PAVDNameNode@@0@Z 005f5ea0 f   LIBCMTD:undname.obj
 0002:00144ef0       ?length@pairNode@@UBEHXZ   005f5ef0 f i LIBCMTD:undname.obj
 0002:00144f50       ?getLastChar@pairNode@@UBEDXZ 005f5f50 f i LIBCMTD:undname.obj
 0002:00144fb0       ?getString@pairNode@@UBEPADPAD0@Z 005f5fb0 f i LIBCMTD:undname.obj
 0002:00145130       __malloc_base              005f6130 f   LIBCMTD:malloc.obj
 0002:001451e0       __heap_alloc_base          005f61e0 f i LIBCMTD:malloc.obj
 0002:00145250       __free_base                005f6250 f   LIBCMTD:free.obj
 0002:001452c0       __expand_base              005f62c0 f   LIBCMTD:expand.obj
 0002:00145470       __realloc_base             005f6470 f   LIBCMTD:realloc.obj
 0002:001455b0       __heapchk                  005f65b0 f   LIBCMTD:heapchk.obj
 0002:001455f0       __heapset                  005f65f0 f   LIBCMTD:heapchk.obj
 0002:00145600       ?_ValidateRead@@YAHPBXI@Z  005f6600 f   LIBCMTD:validate.obj
 0002:00145630       ?_ValidateWrite@@YAHPAXI@Z 005f6630 f   LIBCMTD:validate.obj
 0002:00145660       ?_ValidateExecute@@YAHP6GHXZ@Z 005f6660 f   LIBCMTD:validate.obj
 0002:00145690       __getbuf                   005f6690 f   LIBCMTD:_getbuf.obj
 0002:00145790       __wctomb_s_l               005f6790 f   LIBCMTD:wctomb.obj
 0002:00145b50       _wctomb_s                  005f6b50 f   LIBCMTD:wctomb.obj
 0002:00145b80       __wctomb_l                 005f6b80 f   LIBCMTD:wctomb.obj
 0002:00145c20       _wctomb                    005f6c20 f   LIBCMTD:wctomb.obj
 0002:00145c80       __validate_param_reuseA    005f6c80 f   LIBCMTD:outputp.obj
 0002:00145f90       __output_p_l               005f6f90 f   LIBCMTD:outputp.obj
 0002:0014aa90       _get_crtdouble_arg         005fba90 f i LIBCMTD:outputp.obj
 0002:0014aac0       __output_s_l               005fbac0 f   LIBCMTD:outputs.obj
 0002:0014c5f0       ___crtGetLocaleInfoA       005fd5f0 f   LIBCMTD:a_loc.obj
 0002:0014c7a0       _ungetc                    005fd7a0 f   LIBCMTD:ungetc.obj
 0002:0014c8d0       __ungetc_nolock            005fd8d0 f   LIBCMTD:ungetc.obj
 0002:0014cb80       __mbstowcs_l_helper        005fdb80 f   LIBCMTD:mbstowcs.obj
 0002:0014cfb0       __mbstowcs_l               005fdfb0 f   LIBCMTD:mbstowcs.obj
 0002:0014cfe0       _mbstowcs                  005fdfe0 f   LIBCMTD:mbstowcs.obj
 0002:0014d040       __mbstowcs_s_l             005fe040 f   LIBCMTD:mbstowcs.obj
 0002:0014d4a0       _mbstowcs_s                005fe4a0 f   LIBCMTD:mbstowcs.obj
 0002:0014d4d0       __itoa_s                   005fe4d0 f   LIBCMTD:xtoas.obj
 0002:0014d980       __ltoa_s                   005fe980 f   LIBCMTD:xtoas.obj
 0002:0014d9d0       __ultoa_s                  005fe9d0 f   LIBCMTD:xtoas.obj
 0002:0014da00       __i64toa_s                 005fea00 f   LIBCMTD:xtoas.obj
 0002:0014df00       __ui64toa_s                005fef00 f   LIBCMTD:xtoas.obj
 0002:0014df30       __wcstombs_l_helper        005fef30 f   LIBCMTD:wcstombs.obj
 0002:0014e5d0       __wcstombs_l               005ff5d0 f   LIBCMTD:wcstombs.obj
 0002:0014e600       _wcstombs                  005ff600 f   LIBCMTD:wcstombs.obj
 0002:0014e630       __wcstombs_s_l             005ff630 f   LIBCMTD:wcstombs.obj
 0002:0014ea20       _wcstombs_s                005ffa20 f   LIBCMTD:wcstombs.obj
 0002:0014ea50       __woutput_l                005ffa50 f   LIBCMTD:woutput.obj
 0002:001500e0       __vswprintf_l              006010e0 f   LIBCMTD:vswprint.obj
 0002:00150350       __vswprintf                00601350 f   LIBCMTD:vswprint.obj
 0002:00150380       ___vswprintf_l             00601380 f   LIBCMTD:vswprint.obj
 0002:001503b0       __vscwprintf_helper        006013b0 f   LIBCMTD:vswprint.obj
 0002:001504c0       __vscwprintf               006014c0 f   LIBCMTD:vswprint.obj
 0002:001504f0       __vscwprintf_l             006014f0 f   LIBCMTD:vswprint.obj
 0002:00150520       __vscwprintf_p             00601520 f   LIBCMTD:vswprint.obj
 0002:00150550       __vscwprintf_p_l           00601550 f   LIBCMTD:vswprint.obj
 0002:00150580       _vfwprintf_helper          00601580 f   LIBCMTD:vfwprint.obj
 0002:00150760       __vfwprintf_l              00601760 f   LIBCMTD:vfwprint.obj
 0002:00150790       __vfwprintf_s_l            00601790 f   LIBCMTD:vfwprint.obj
 0002:001507c0       __vfwprintf_p_l            006017c0 f   LIBCMTD:vfwprint.obj
 0002:001507f0       _vfwprintf                 006017f0 f   LIBCMTD:vfwprint.obj
 0002:00150820       _vfwprintf_s               00601820 f   LIBCMTD:vfwprint.obj
 0002:00150850       __vfwprintf_p              00601850 f   LIBCMTD:vfwprint.obj
 0002:00150880       __woutput_s_l              00601880 f   LIBCMTD:woutputs.obj
 0002:001520b0       __validate_param_reuseW    006030b0 f   LIBCMTD:woutputp.obj
 0002:001523c0       __woutput_p_l              006033c0 f   LIBCMTD:woutputp.obj
 0002:00156940       __controlfp_s              00607940 f   LIBCMTD:_contrlfp_.obj
 0002:00156a60       __atodbl_l                 00607a60 f   LIBCMTD:atodbl.obj
 0002:00156bb0       __atodbl                   00607bb0 f   LIBCMTD:atodbl.obj
 0002:00156bd0       __atoldbl_l                00607bd0 f   LIBCMTD:atodbl.obj
 0002:00156d20       __atoldbl                  00607d20 f   LIBCMTD:atodbl.obj
 0002:00156d40       __atoflt_l                 00607d40 f   LIBCMTD:atodbl.obj
 0002:00156e90       __atoflt                   00607e90 f   LIBCMTD:atodbl.obj
 0002:00156eb0       __fptostr                  00607eb0 f   LIBCMTD:_fptostr.obj
 0002:00157200       __fltout2                  00608200 f   LIBCMTD:_cfout_.obj
 0002:001572e0       ___dtold                   006082e0 f   LIBCMTD:_cfout_.obj
 0002:00157490       __set_output_format        00608490 f   LIBCMTD:outputformat.obj
 0002:00157530       __get_output_format        00608530 f   LIBCMTD:outputformat.obj
 0002:00157540       __fptrap                   00608540 f   LIBCMTD:crt0fp.obj
 0002:00157560       __iswctype_l               00608560 f   LIBCMTD:iswctype.obj
 0002:00157580       _iswctype                  00608580 f   LIBCMTD:iswctype.obj
 0002:00157600       _is_wctype                 00608600 f   LIBCMTD:iswctype.obj
 0002:00157620       ___crtCompareStringA       00608620 f   LIBCMTD:a_cmp.obj
 0002:00157b60       __strnicoll_l              00608b60 f   LIBCMTD:strnicol.obj
 0002:00157e40       __strnicoll                00608e40 f   LIBCMTD:strnicol.obj
 0002:00157e90       __mbsicmp_l                00608e90 f   LIBCMTD:mbsicmp.obj
 0002:00158370       __mbsicmp                  00609370 f   LIBCMTD:mbsicmp.obj
 0002:00158390       __fstat32                  00609390 f   LIBCMTD:fstat.obj
 0002:00158b50       ___loctotime32_t           00609b50 f   LIBCMTD:dtoxtime.obj
 0002:00158f20       ?_RTC_GetSrcLine@@YAHPAEPA_WKPAH1K@Z 00609f20 f   LIBCMTD:_pdblkup_.obj
 0002:00159700       ___initconout              0060a700 f   LIBCMTD:initcon.obj
 0002:00159730       ___termconout              0060a730 f   LIBCMTD:initcon.obj
 0002:00159760       ___mbtow_environ           0060a760 f   LIBCMTD:mbtowenv.obj
 0002:00159890       __wsetenvp                 0060a890 f   LIBCMTD:wstdenvp.obj
 0002:00159a90       ___crtGetEnvironmentStringsW 0060aa90 f   LIBCMTD:w_env.obj
 0002:00159b70       _wcsnlen                   0060ab70 f   LIBCMTD:wcslen_s.obj
 0002:00159bc0       _wcschr                    0060abc0 f   LIBCMTD:wcschr.obj
 0002:00159c10       __wcsnicoll_l              0060ac10 f   LIBCMTD:wcsnicol.obj
 0002:00159f40       __wcsnicoll                0060af40 f   LIBCMTD:wcsnicol.obj
 0002:0015a1e0       __mbsnbicmp_l              0060b1e0 f   LIBCMTD:mbsnbicm.obj
 0002:0015a7b0       __mbsnbicmp                0060b7b0 f   LIBCMTD:mbsnbicm.obj
 0002:0015a7e0       __mbsnbcmp_l               0060b7e0 f   LIBCMTD:mbsnbcmp.obj
 0002:0015ab80       __mbsnbcmp                 0060bb80 f   LIBCMTD:mbsnbcmp.obj
 0002:0015abb0       _fputwc                    0060bbb0 f   LIBCMTD:fputwc.obj
 0002:0015acf0       __fputwc_nolock            0060bcf0 f   LIBCMTD:fputwc.obj
 0002:0015b0a0       _putwc                     0060c0a0 f   LIBCMTD:fputwc.obj
 0002:0015b0c0       _wcstol                    0060c0c0 f   LIBCMTD:wcstol.obj
 0002:0015b580       __wcstol_l                 0060c580 f   LIBCMTD:wcstol.obj
 0002:0015b5b0       _wcstoul                   0060c5b0 f   LIBCMTD:wcstol.obj
 0002:0015b5e0       __wcstoul_l                0060c5e0 f   LIBCMTD:wcstol.obj
 0002:0015b610       __statusfp2                0060c610 f   LIBCMTD:_ieee87_.obj
 0002:0015b660       __statusfp                 0060c660 f   LIBCMTD:_ieee87_.obj
 0002:0015b6c0       __clearfp                  0060c6c0 f   LIBCMTD:_ieee87_.obj
 0002:0015b720       ___control87_2             0060c720 f   LIBCMTD:_ieee87_.obj
 0002:0015b7f0       __controlfp                0060c7f0 f   LIBCMTD:_ieee87_.obj
 0002:0015b820       __control87                0060c820 f i LIBCMTD:_ieee87_.obj
 0002:0015b900       __set_controlfp            0060c900 f   LIBCMTD:_ieee87_.obj
 0002:0015b9b0       __fpreset                  0060c9b0 f   LIBCMTD:_ieee87_.obj
 0002:0015c350       __ld12tod                  0060d350 f   LIBCMTD:_intrncvt_.obj
 0002:0015c380       __ld12cvt                  0060d380 f i LIBCMTD:_intrncvt_.obj
 0002:0015c680       __RoundMan                 0060d680 f i LIBCMTD:_intrncvt_.obj
 0002:0015c790       __ZeroTail                 0060d790 f i LIBCMTD:_intrncvt_.obj
 0002:0015c840       __IncMan                   0060d840 f i LIBCMTD:_intrncvt_.obj
 0002:0015c920       ___addl                    0060d920 f i LIBCMTD:_intrncvt_.obj
 0002:0015c970       __CopyMan                  0060d970 f i LIBCMTD:_intrncvt_.obj
 0002:0015c9e0       __FillZeroMan              0060d9e0 f i LIBCMTD:_intrncvt_.obj
 0002:0015ca20       __IsZeroMan                0060da20 f i LIBCMTD:_intrncvt_.obj
 0002:0015ca70       __ShrMan                   0060da70 f i LIBCMTD:_intrncvt_.obj
 0002:0015cba0       __ld12tof                  0060dba0 f   LIBCMTD:_intrncvt_.obj
 0002:0015cbd0       __ld12told                 0060dbd0 f   LIBCMTD:_intrncvt_.obj
 0002:0015ccd0       ___strgtold12_l            0060dcd0 f   LIBCMTD:_strgtold_.obj
 0002:0015da30       ___multtenpow12            0060ea30 f i LIBCMTD:_strgtold_.obj
 0002:0015db40       ___ld12mul                 0060eb40 f i LIBCMTD:_strgtold_.obj
 0002:0015e040       ___shl_12                  0060f040 f i LIBCMTD:_strgtold_.obj
 0002:0015e0c0       ___shr_12                  0060f0c0 f i LIBCMTD:_strgtold_.obj
 0002:0015e140       ___STRINGTOLD_L            0060f140 f   LIBCMTD:_strgtold_.obj
 0002:0015e1d0       _$I10_OUTPUT               0060f1d0 f   LIBCMTD:_x10fout_.obj
 0002:0015e8e0       ___add_12                  0060f8e0 f i LIBCMTD:_x10fout_.obj
 0002:0015e9c0       __wmakepath_s              0060f9c0 f   LIBCMTD:wmakepath_s.obj
 0002:0015ee60       __wsplitpath_s             0060fe60 f   LIBCMTD:wsplitpath_s.obj
 0002:0015f610       ___crtCompareStringW       00610610 f   LIBCMTD:w_cmp.obj
 0002:0015f6d0       __flswbuf                  006106d0 f   LIBCMTD:_flswbuf.obj
 0002:0015fa60       __wchartodigit             00610a60 f   LIBCMTD:wchtodig.obj
 0002:0015fe50       __statfp                   00610e50 f   LIBCMTD:_fpctrl_.obj
 0002:0015fe70       __clrfp                    00610e70 f   LIBCMTD:_fpctrl_.obj
 0002:0015fe90       __ctrlfp                   00610e90 f   LIBCMTD:_fpctrl_.obj
 0002:0015fed0       __set_statfp               00610ed0 f   LIBCMTD:_fpctrl_.obj
 0002:0015ff50       ___get_fpsr_sse2           00610f50 f   LIBCMTD:_fpctrl_.obj
 0002:0015ff80       ___set_fpsr_sse2           00610f80 f   LIBCMTD:_fpctrl_.obj
 0002:00160090       ___fclrf_sse2              00611090 f   LIBCMTD:_fpctrl_.obj
 0002:001600c0       ___statfp_sse2             006110c0 f   LIBCMTD:_fpctrl_.obj
 0002:00160100       ___clrfp_sse2              00611100 f   LIBCMTD:_fpctrl_.obj
 0002:00160150       ___ctrlfp_sse2             00611150 f   LIBCMTD:_fpctrl_.obj
 0002:001601c0       ___set_statfp_sse2         006111c0 f   LIBCMTD:_fpctrl_.obj
 0002:00160200       ___mtold12                 00611200 f   LIBCMTD:_mantold_.obj
 0002:001603a6       _ImmAssociateContext@8     006113a6 f   imm32:IMM32.dll
 0002:001603ac       _QueryPerformanceFrequency@4 006113ac f   kernel32:KERNEL32.dll
 0002:001603b2       _QueryPerformanceCounter@4 006113b2 f   kernel32:KERNEL32.dll
 0002:001603b8       _GetVersion@0              006113b8 f   kernel32:KERNEL32.dll
 0002:001603be       _SetFileAttributesA@8      006113be f   kernel32:KERNEL32.dll
 0002:001603c4       _LocalFileTimeToFileTime@8 006113c4 f   kernel32:KERNEL32.dll
 0002:001603ca       _DosDateTimeToFileTime@12  006113ca f   kernel32:KERNEL32.dll
 0002:001603d0       _GetLocalTime@4            006113d0 f   kernel32:KERNEL32.dll
 0002:001603d6       _GetVolumeInformationA@32  006113d6 f   kernel32:KERNEL32.dll
 0002:001603dc       _GetFullPathNameA@16       006113dc f   kernel32:KERNEL32.dll
 0002:001603e2       _SetVolumeLabelA@8         006113e2 f   kernel32:KERNEL32.dll
 0002:001603e8       _GetLocaleInfoA@16         006113e8 f   kernel32:KERNEL32.dll
 0002:001603ee       _lstrcpynA@12              006113ee f   kernel32:KERNEL32.dll
 0002:001603f4       _LeaveCriticalSection@4    006113f4 f   kernel32:KERNEL32.dll
 0002:001603fa       _EnterCriticalSection@4    006113fa f   kernel32:KERNEL32.dll
 0002:00160400       _InitializeCriticalSection@4 00611400 f   kernel32:KERNEL32.dll
 0002:00160406       _ReleaseMutex@4            00611406 f   kernel32:KERNEL32.dll
 0002:0016040c       _InterlockedExchange@8     0061140c f   kernel32:KERNEL32.dll
 0002:00160412       _CreateMutexA@12           00611412 f   kernel32:KERNEL32.dll
 0002:00160418       _HeapFree@12               00611418 f   kernel32:KERNEL32.dll
 0002:0016041e       _HeapAlloc@12              0061141e f   kernel32:KERNEL32.dll
 0002:00160424       _GetProcessHeap@0          00611424 f   kernel32:KERNEL32.dll
 0002:0016042a       _GetCurrentProcess@0       0061142a f   kernel32:KERNEL32.dll
 0002:00160430       _lstrcatA@8                00611430 f   kernel32:KERNEL32.dll
 0002:00160436       _FatalExit@4               00611436 f   kernel32:KERNEL32.dll
 0002:0016043c       _GetFileType@4             0061143c f   kernel32:KERNEL32.dll
 0002:00160442       _DeleteCriticalSection@4   00611442 f   kernel32:KERNEL32.dll
 0002:00160448       _ReleaseSemaphore@12       00611448 f   kernel32:KERNEL32.dll
 0002:0016044e       _CreateSemaphoreA@16       0061144e f   kernel32:KERNEL32.dll
 0002:00160454       _SetThreadPriority@8       00611454 f   kernel32:KERNEL32.dll
 0002:0016045a       _TlsSetValue@8             0061145a f   kernel32:KERNEL32.dll
 0002:00160460       _GetCurrentThreadId@0      00611460 f   kernel32:KERNEL32.dll
 0002:00160466       _DuplicateHandle@28        00611466 f   kernel32:KERNEL32.dll
 0002:0016046c       _GetCurrentThread@0        0061146c f   kernel32:KERNEL32.dll
 0002:00160472       _TlsAlloc@0                00611472 f   kernel32:KERNEL32.dll
 0002:00160478       _TlsGetValue@4             00611478 f   kernel32:KERNEL32.dll
 0002:0016047e       _GetSystemTime@4           0061147e f   kernel32:KERNEL32.dll
 0002:00160484       _InterlockedIncrement@4    00611484 f   kernel32:KERNEL32.dll
 0002:0016048a       _InterlockedDecrement@4    0061148a f   kernel32:KERNEL32.dll
 0002:00160490       _RtlUnwind@16              00611490 f   kernel32:KERNEL32.dll
 0002:00160496       _RaiseException@16         00611496 f   kernel32:KERNEL32.dll
 0002:0016049c       _DecodePointer@4           0061149c f   kernel32:KERNEL32.dll
 0002:001604a2       _EncodePointer@4           006114a2 f   kernel32:KERNEL32.dll
 0002:001604a8       _GetSystemTimeAsFileTime@4 006114a8 f   kernel32:KERNEL32.dll
 0002:001604ae       _TerminateProcess@8        006114ae f   kernel32:KERNEL32.dll
 0002:001604b4       _UnhandledExceptionFilter@4 006114b4 f   kernel32:KERNEL32.dll
 0002:001604ba       _SetUnhandledExceptionFilter@4 006114ba f   kernel32:KERNEL32.dll
 0002:001604c0       _IsDebuggerPresent@0       006114c0 f   kernel32:KERNEL32.dll
 0002:001604c6       _GetModuleFileNameW@12     006114c6 f   kernel32:KERNEL32.dll
 0002:001604cc       _WriteConsoleW@20          006114cc f   kernel32:KERNEL32.dll
 0002:001604d2       _GetTimeZoneInformation@4  006114d2 f   kernel32:KERNEL32.dll
 0002:001604d8       _InitializeCriticalSectionAndSpinCount@8 006114d8 f   kernel32:KERNEL32.dll
 0002:001604de       _SetStdHandle@8            006114de f   kernel32:KERNEL32.dll
 0002:001604e4       _FindFirstFileExA@24       006114e4 f   kernel32:KERNEL32.dll
 0002:001604ea       _GetModuleHandleW@4        006114ea f   kernel32:KERNEL32.dll
 0002:001604f0       _ExitProcess@4             006114f0 f   kernel32:KERNEL32.dll
 0002:001604f6       _GetCommandLineA@0         006114f6 f   kernel32:KERNEL32.dll
 0002:001604fc       _HeapSetInformation@16     006114fc f   kernel32:KERNEL32.dll
 0002:00160502       _GetStartupInfoW@4         00611502 f   kernel32:KERNEL32.dll
 0002:00160508       _GetConsoleCP@0            00611508 f   kernel32:KERNEL32.dll
 0002:0016050e       _GetConsoleMode@8          0061150e f   kernel32:KERNEL32.dll
 0002:00160514       _GetCPInfo@8               00611514 f   kernel32:KERNEL32.dll
 0002:0016051a       _SetEnvironmentVariableA@8 0061151a f   kernel32:KERNEL32.dll
 0002:00160520       _GetCurrentDirectoryA@8    00611520 f   kernel32:KERNEL32.dll
 0002:00160526       _SetCurrentDirectoryA@4    00611526 f   kernel32:KERNEL32.dll
 0002:0016052c       _GetDriveTypeW@4           0061152c f   kernel32:KERNEL32.dll
 0002:00160532       _GetFileInformationByHandle@8 00611532 f   kernel32:KERNEL32.dll
 0002:00160538       _PeekNamedPipe@24          00611538 f   kernel32:KERNEL32.dll
 0002:0016053e       _ExitThread@4              0061153e f   kernel32:KERNEL32.dll
 0002:00160544       _FatalAppExitA@8           00611544 f   kernel32:KERNEL32.dll
 0002:0016054a       _HeapValidate@12           0061154a f   kernel32:KERNEL32.dll
 0002:00160550       _IsBadReadPtr@8            00611550 f   kernel32:KERNEL32.dll
 0002:00160556       _TlsFree@4                 00611556 f   kernel32:KERNEL32.dll
 0002:0016055c       _SetLastError@4            0061155c f   kernel32:KERNEL32.dll
 0002:00160562       _GetACP@0                  00611562 f   kernel32:KERNEL32.dll
 0002:00160568       _GetOEMCP@0                00611568 f   kernel32:KERNEL32.dll
 0002:0016056e       _IsValidCodePage@4         0061156e f   kernel32:KERNEL32.dll
 0002:00160574       _GetLocaleInfoW@16         00611574 f   kernel32:KERNEL32.dll
 0002:0016057a       _IsProcessorFeaturePresent@4 0061157a f   kernel32:KERNEL32.dll
 0002:00160580       _OutputDebugStringW@4      00611580 f   kernel32:KERNEL32.dll
 0002:00160586       _SetConsoleCtrlHandler@8   00611586 f   kernel32:KERNEL32.dll
 0002:0016058c       _LoadLibraryW@4            0061158c f   kernel32:KERNEL32.dll
 0002:00160592       _SetHandleCount@4          00611592 f   kernel32:KERNEL32.dll
 0002:00160598       _LCMapStringW@24           00611598 f   kernel32:KERNEL32.dll
 0002:0016059e       _GetCurrentDirectoryW@8    0061159e f   kernel32:KERNEL32.dll
 0002:001605a4       _SetCurrentDirectoryW@4    006115a4 f   kernel32:KERNEL32.dll
 0002:001605aa       _GetCurrentProcessId@0     006115aa f   kernel32:KERNEL32.dll
 0002:001605b0       _FreeEnvironmentStringsW@4 006115b0 f   kernel32:KERNEL32.dll
 0002:001605b6       _GetEnvironmentStringsW@0  006115b6 f   kernel32:KERNEL32.dll
 0002:001605bc       _HeapCreate@12             006115bc f   kernel32:KERNEL32.dll
 0002:001605c2       _HeapDestroy@4             006115c2 f   kernel32:KERNEL32.dll
 0002:001605c8       _GetStringTypeW@16         006115c8 f   kernel32:KERNEL32.dll
 0002:001605ce       _IsValidLocale@8           006115ce f   kernel32:KERNEL32.dll
 0002:001605d4       _EnumSystemLocalesA@8      006115d4 f   kernel32:KERNEL32.dll
 0002:001605da       _GetUserDefaultLCID@0      006115da f   kernel32:KERNEL32.dll
 0002:001605e0       _SetEnvironmentVariableW@8 006115e0 f   kernel32:KERNEL32.dll
 0002:001605e6       _HeapReAlloc@16            006115e6 f   kernel32:KERNEL32.dll
 0002:001605ec       _HeapSize@12               006115ec f   kernel32:KERNEL32.dll
 0002:001605f2       _HeapQueryInformation@20   006115f2 f   kernel32:KERNEL32.dll
 0002:001605f8       _CompareStringW@24         006115f8 f   kernel32:KERNEL32.dll
 0002:001605fe       _VirtualQuery@12           006115fe f   kernel32:KERNEL32.dll
 0002:00160604       _CreateFileW@28            00611604 f   kernel32:KERNEL32.dll
 0002:0016060a       _OemToCharA@8              0061160a f   user32:USER32.dll
 0002:00160610       _CharToOemA@8              00611610 f   user32:USER32.dll
 0002:00160616       _wvsprintfA@12             00611616 f   user32:USER32.dll
 0002:0016061c       _GetSecurityDescriptorGroup@12 0061161c f   advapi32:ADVAPI32.dll
 0002:00160622       _IsValidSid@4              00611622 f   advapi32:ADVAPI32.dll
 0002:00160628       _GetSecurityDescriptorOwner@12 00611628 f   advapi32:ADVAPI32.dll
 0002:0016062e       _GetSecurityDescriptorSacl@16 0061162e f   advapi32:ADVAPI32.dll
 0002:00160634       _IsValidAcl@4              00611634 f   advapi32:ADVAPI32.dll
 0002:0016063a       _GetSecurityDescriptorDacl@16 0061163a f   advapi32:ADVAPI32.dll
 0002:00160640       _IsValidSecurityDescriptor@4 00611640 f   advapi32:ADVAPI32.dll
 0002:00160646       _SetKernelObjectSecurity@12 00611646 f   advapi32:ADVAPI32.dll
 0002:0016064c       _GetKernelObjectSecurity@20 0061164c f   advapi32:ADVAPI32.dll
 0002:00160652       _GetSecurityDescriptorControl@12 00611652 f   advapi32:ADVAPI32.dll
 0002:00160658       _AdjustTokenPrivileges@24  00611658 f   advapi32:ADVAPI32.dll
 0002:0016065e       _LookupPrivilegeValueA@12  0061165e f   advapi32:ADVAPI32.dll
 0002:00160664       _OpenProcessToken@12       00611664 f   advapi32:ADVAPI32.dll
 0002:0016066a       _GetSecurityDescriptorLength@4 0061166a f   advapi32:ADVAPI32.dll
 0002:00160670       __mktemp_s                 00611670 f   LIBCMTD:mktemp.obj
 0002:00160cc0       __mktemp                   00611cc0 f   LIBCMTD:mktemp.obj
 0002:00160cc0       _mktemp                    00611cc0 f   LIBCMTD:mktemp.obj
 0002:00160d90       __rmdir                    00611d90 f   LIBCMTD:rmdir.obj
 0002:00160d90       _rmdir                     00611d90 f   LIBCMTD:rmdir.obj
 0002:00160df0       __ismbstrail_l             00611df0 f   LIBCMTD:ismbstr.obj
 0002:00160ff0       __ismbstrail               00611ff0 f   LIBCMTD:ismbstr.obj
 0002:00161010       _RemoveDirectoryA@4        00612010 f   kernel32:KERNEL32.dll
 0003:00000000       ___xc_a                    00624000     LIBCMTD:crt0init.obj
 0003:000003dc       ___xc_z                    006243dc     LIBCMTD:crt0init.obj
 0003:000004e0       ___xi_a                    006244e0     LIBCMTD:crt0init.obj
 0003:000007fc       ___xi_z                    006247fc     LIBCMTD:crt0init.obj
 0003:00000900       ___xp_a                    00624900     LIBCMTD:crt0init.obj
 0003:00000c14       ___xp_z                    00624c14     LIBCMTD:crt0init.obj
 0003:00000d18       ___xt_a                    00624d18     LIBCMTD:crt0init.obj
 0003:00000e1c       ___xt_z                    00624e1c     LIBCMTD:crt0init.obj
 0003:00000f3c       ?has_denorm@_Num_base@std@@2W4float_denorm_style@2@B 00624f3c     AboutBox.obj
 0003:00000f40       ?has_denorm_loss@_Num_base@std@@2_NB 00624f40     AboutBox.obj
 0003:00000f41       ?has_infinity@_Num_base@std@@2_NB 00624f41     AboutBox.obj
 0003:00000f42       ?has_quiet_NaN@_Num_base@std@@2_NB 00624f42     AboutBox.obj
 0003:00000f43       ?has_signaling_NaN@_Num_base@std@@2_NB 00624f43     AboutBox.obj
 0003:00000f44       ?is_bounded@_Num_base@std@@2_NB 00624f44     AboutBox.obj
 0003:00000f45       ?is_exact@_Num_base@std@@2_NB 00624f45     AboutBox.obj
 0003:00000f46       ?is_iec559@_Num_base@std@@2_NB 00624f46     AboutBox.obj
 0003:00000f47       ?is_integer@_Num_base@std@@2_NB 00624f47     AboutBox.obj
 0003:00000f48       ?is_modulo@_Num_base@std@@2_NB 00624f48     AboutBox.obj
 0003:00000f49       ?is_signed@_Num_base@std@@2_NB 00624f49     AboutBox.obj
 0003:00000f4a       ?is_specialized@_Num_base@std@@2_NB 00624f4a     AboutBox.obj
 0003:00000f4b       ?tinyness_before@_Num_base@std@@2_NB 00624f4b     AboutBox.obj
 0003:00000f4c       ?traps@_Num_base@std@@2_NB 00624f4c     AboutBox.obj
 0003:00000f50       ?round_style@_Num_base@std@@2W4float_round_style@2@B 00624f50     AboutBox.obj
 0003:00000f54       ?digits@_Num_base@std@@2HB 00624f54     AboutBox.obj
 0003:00000f58       ?digits10@_Num_base@std@@2HB 00624f58     AboutBox.obj
 0003:00000f5c       ?max_digits10@_Num_base@std@@2HB 00624f5c     AboutBox.obj
 0003:00000f60       ?max_exponent@_Num_base@std@@2HB 00624f60     AboutBox.obj
 0003:00000f64       ?max_exponent10@_Num_base@std@@2HB 00624f64     AboutBox.obj
 0003:00000f68       ?min_exponent@_Num_base@std@@2HB 00624f68     AboutBox.obj
 0003:00000f6c       ?min_exponent10@_Num_base@std@@2HB 00624f6c     AboutBox.obj
 0003:00000f70       ?radix@_Num_base@std@@2HB  00624f70     AboutBox.obj
 0003:00000f74       ?is_bounded@_Num_int_base@std@@2_NB 00624f74     AboutBox.obj
 0003:00000f75       ?is_exact@_Num_int_base@std@@2_NB 00624f75     AboutBox.obj
 0003:00000f76       ?is_integer@_Num_int_base@std@@2_NB 00624f76     AboutBox.obj
 0003:00000f77       ?is_modulo@_Num_int_base@std@@2_NB 00624f77     AboutBox.obj
 0003:00000f78       ?is_specialized@_Num_int_base@std@@2_NB 00624f78     AboutBox.obj
 0003:00000f7c       ?radix@_Num_int_base@std@@2HB 00624f7c     AboutBox.obj
 0003:00000f80       ?has_denorm@_Num_float_base@std@@2W4float_denorm_style@2@B 00624f80     AboutBox.obj
 0003:00000f84       ?has_denorm_loss@_Num_float_base@std@@2_NB 00624f84     AboutBox.obj
 0003:00000f85       ?has_infinity@_Num_float_base@std@@2_NB 00624f85     AboutBox.obj
 0003:00000f86       ?has_quiet_NaN@_Num_float_base@std@@2_NB 00624f86     AboutBox.obj
 0003:00000f87       ?has_signaling_NaN@_Num_float_base@std@@2_NB 00624f87     AboutBox.obj
 0003:00000f88       ?is_bounded@_Num_float_base@std@@2_NB 00624f88     AboutBox.obj
 0003:00000f89       ?is_exact@_Num_float_base@std@@2_NB 00624f89     AboutBox.obj
 0003:00000f8a       ?is_iec559@_Num_float_base@std@@2_NB 00624f8a     AboutBox.obj
 0003:00000f8b       ?is_integer@_Num_float_base@std@@2_NB 00624f8b     AboutBox.obj
 0003:00000f8c       ?is_modulo@_Num_float_base@std@@2_NB 00624f8c     AboutBox.obj
 0003:00000f8d       ?is_signed@_Num_float_base@std@@2_NB 00624f8d     AboutBox.obj
 0003:00000f8e       ?is_specialized@_Num_float_base@std@@2_NB 00624f8e     AboutBox.obj
 0003:00000f8f       ?tinyness_before@_Num_float_base@std@@2_NB 00624f8f     AboutBox.obj
 0003:00000f90       ?traps@_Num_float_base@std@@2_NB 00624f90     AboutBox.obj
 0003:00000f94       ?round_style@_Num_float_base@std@@2W4float_round_style@2@B 00624f94     AboutBox.obj
 0003:00000f98       ?radix@_Num_float_base@std@@2HB 00624f98     AboutBox.obj
 0003:00000f9c       ?is_signed@?$numeric_limits@D@std@@2_NB 00624f9c     AboutBox.obj
 0003:00000fa0       ?digits@?$numeric_limits@D@std@@2HB 00624fa0     AboutBox.obj
 0003:00000fa4       ?digits10@?$numeric_limits@D@std@@2HB 00624fa4     AboutBox.obj
 0003:00000fa8       ?max_digits10@?$numeric_limits@D@std@@2HB 00624fa8     AboutBox.obj
 0003:00000fac       ?is_signed@?$numeric_limits@_W@std@@2_NB 00624fac     AboutBox.obj
 0003:00000fb0       ?digits@?$numeric_limits@_W@std@@2HB 00624fb0     AboutBox.obj
 0003:00000fb4       ?digits10@?$numeric_limits@_W@std@@2HB 00624fb4     AboutBox.obj
 0003:00000fb8       ?max_digits10@?$numeric_limits@_W@std@@2HB 00624fb8     AboutBox.obj
 0003:00000fbc       ?is_modulo@?$numeric_limits@_N@std@@2_NB 00624fbc     AboutBox.obj
 0003:00000fbd       ?is_signed@?$numeric_limits@_N@std@@2_NB 00624fbd     AboutBox.obj
 0003:00000fc0       ?digits@?$numeric_limits@_N@std@@2HB 00624fc0     AboutBox.obj
 0003:00000fc4       ?digits10@?$numeric_limits@_N@std@@2HB 00624fc4     AboutBox.obj
 0003:00000fc8       ?max_digits10@?$numeric_limits@_N@std@@2HB 00624fc8     AboutBox.obj
 0003:00000fcc       ?is_signed@?$numeric_limits@C@std@@2_NB 00624fcc     AboutBox.obj
 0003:00000fd0       ?digits@?$numeric_limits@C@std@@2HB 00624fd0     AboutBox.obj
 0003:00000fd4       ?digits10@?$numeric_limits@C@std@@2HB 00624fd4     AboutBox.obj
 0003:00000fd8       ?max_digits10@?$numeric_limits@C@std@@2HB 00624fd8     AboutBox.obj
 0003:00000fdc       ?is_signed@?$numeric_limits@E@std@@2_NB 00624fdc     AboutBox.obj
 0003:00000fe0       ?digits@?$numeric_limits@E@std@@2HB 00624fe0     AboutBox.obj
 0003:00000fe4       ?digits10@?$numeric_limits@E@std@@2HB 00624fe4     AboutBox.obj
 0003:00000fe8       ?max_digits10@?$numeric_limits@E@std@@2HB 00624fe8     AboutBox.obj
 0003:00000fec       ?is_signed@?$numeric_limits@F@std@@2_NB 00624fec     AboutBox.obj
 0003:00000ff0       ?digits@?$numeric_limits@F@std@@2HB 00624ff0     AboutBox.obj
 0003:00000ff4       ?digits10@?$numeric_limits@F@std@@2HB 00624ff4     AboutBox.obj
 0003:00000ff8       ?max_digits10@?$numeric_limits@F@std@@2HB 00624ff8     AboutBox.obj
 0003:00000ffc       ?is_signed@?$numeric_limits@G@std@@2_NB 00624ffc     AboutBox.obj
 0003:00001000       ?digits@?$numeric_limits@G@std@@2HB 00625000     AboutBox.obj
 0003:00001004       ?digits10@?$numeric_limits@G@std@@2HB 00625004     AboutBox.obj
 0003:00001008       ?max_digits10@?$numeric_limits@G@std@@2HB 00625008     AboutBox.obj
 0003:0000100c       ?is_signed@?$numeric_limits@H@std@@2_NB 0062500c     AboutBox.obj
 0003:00001010       ?digits@?$numeric_limits@H@std@@2HB 00625010     AboutBox.obj
 0003:00001014       ?digits10@?$numeric_limits@H@std@@2HB 00625014     AboutBox.obj
 0003:00001018       ?max_digits10@?$numeric_limits@H@std@@2HB 00625018     AboutBox.obj
 0003:0000101c       ?is_signed@?$numeric_limits@I@std@@2_NB 0062501c     AboutBox.obj
 0003:00001020       ?digits@?$numeric_limits@I@std@@2HB 00625020     AboutBox.obj
 0003:00001024       ?digits10@?$numeric_limits@I@std@@2HB 00625024     AboutBox.obj
 0003:00001028       ?max_digits10@?$numeric_limits@I@std@@2HB 00625028     AboutBox.obj
 0003:0000102c       ?is_signed@?$numeric_limits@J@std@@2_NB 0062502c     AboutBox.obj
 0003:00001030       ?digits@?$numeric_limits@J@std@@2HB 00625030     AboutBox.obj
 0003:00001034       ?digits10@?$numeric_limits@J@std@@2HB 00625034     AboutBox.obj
 0003:00001038       ?max_digits10@?$numeric_limits@J@std@@2HB 00625038     AboutBox.obj
 0003:0000103c       ?is_signed@?$numeric_limits@K@std@@2_NB 0062503c     AboutBox.obj
 0003:00001040       ?digits@?$numeric_limits@K@std@@2HB 00625040     AboutBox.obj
 0003:00001044       ?digits10@?$numeric_limits@K@std@@2HB 00625044     AboutBox.obj
 0003:00001048       ?max_digits10@?$numeric_limits@K@std@@2HB 00625048     AboutBox.obj
 0003:0000104c       ?is_signed@?$numeric_limits@_J@std@@2_NB 0062504c     AboutBox.obj
 0003:00001050       ?digits@?$numeric_limits@_J@std@@2HB 00625050     AboutBox.obj
 0003:00001054       ?digits10@?$numeric_limits@_J@std@@2HB 00625054     AboutBox.obj
 0003:00001058       ?max_digits10@?$numeric_limits@_J@std@@2HB 00625058     AboutBox.obj
 0003:0000105c       ?is_signed@?$numeric_limits@_K@std@@2_NB 0062505c     AboutBox.obj
 0003:00001060       ?digits@?$numeric_limits@_K@std@@2HB 00625060     AboutBox.obj
 0003:00001064       ?digits10@?$numeric_limits@_K@std@@2HB 00625064     AboutBox.obj
 0003:00001068       ?max_digits10@?$numeric_limits@_K@std@@2HB 00625068     AboutBox.obj
 0003:0000106c       ?digits@?$numeric_limits@M@std@@2HB 0062506c     AboutBox.obj
 0003:00001070       ?digits10@?$numeric_limits@M@std@@2HB 00625070     AboutBox.obj
 0003:00001074       ?max_digits10@?$numeric_limits@M@std@@2HB 00625074     AboutBox.obj
 0003:00001078       ?max_exponent@?$numeric_limits@M@std@@2HB 00625078     AboutBox.obj
 0003:0000107c       ?max_exponent10@?$numeric_limits@M@std@@2HB 0062507c     AboutBox.obj
 0003:00001080       ?min_exponent@?$numeric_limits@M@std@@2HB 00625080     AboutBox.obj
 0003:00001084       ?min_exponent10@?$numeric_limits@M@std@@2HB 00625084     AboutBox.obj
 0003:00001088       ?digits@?$numeric_limits@N@std@@2HB 00625088     AboutBox.obj
 0003:0000108c       ?digits10@?$numeric_limits@N@std@@2HB 0062508c     AboutBox.obj
 0003:00001090       ?max_digits10@?$numeric_limits@N@std@@2HB 00625090     AboutBox.obj
 0003:00001094       ?max_exponent@?$numeric_limits@N@std@@2HB 00625094     AboutBox.obj
 0003:00001098       ?max_exponent10@?$numeric_limits@N@std@@2HB 00625098     AboutBox.obj
 0003:0000109c       ?min_exponent@?$numeric_limits@N@std@@2HB 0062509c     AboutBox.obj
 0003:000010a0       ?min_exponent10@?$numeric_limits@N@std@@2HB 006250a0     AboutBox.obj
 0003:000010a4       ?digits@?$numeric_limits@O@std@@2HB 006250a4     AboutBox.obj
 0003:000010a8       ?digits10@?$numeric_limits@O@std@@2HB 006250a8     AboutBox.obj
 0003:000010ac       ?max_digits10@?$numeric_limits@O@std@@2HB 006250ac     AboutBox.obj
 0003:000010b0       ?max_exponent@?$numeric_limits@O@std@@2HB 006250b0     AboutBox.obj
 0003:000010b4       ?max_exponent10@?$numeric_limits@O@std@@2HB 006250b4     AboutBox.obj
 0003:000010b8       ?min_exponent@?$numeric_limits@O@std@@2HB 006250b8     AboutBox.obj
 0003:000010bc       ?min_exponent10@?$numeric_limits@O@std@@2HB 006250bc     AboutBox.obj
 0003:000010c0       ?value@?$integral_constant@_N$0A@@tr1@std@@2_NB 006250c0     AboutBox.obj
 0003:000010c1       ?value@?$integral_constant@_N$00@tr1@std@@2_NB 006250c1     AboutBox.obj
 0003:000010c4       ?value@?$integral_constant@I$0A@@tr1@std@@2IB 006250c4     AboutBox.obj
 0003:000010c8       ?_Rank@?$_Arithmetic_traits@_N@std@@2HB 006250c8     AboutBox.obj
 0003:000010cc       ?_Rank@?$_Arithmetic_traits@D@std@@2HB 006250cc     AboutBox.obj
 0003:000010d0       ?_Rank@?$_Arithmetic_traits@C@std@@2HB 006250d0     AboutBox.obj
 0003:000010d4       ?_Rank@?$_Arithmetic_traits@E@std@@2HB 006250d4     AboutBox.obj
 0003:000010d8       ?_Rank@?$_Arithmetic_traits@F@std@@2HB 006250d8     AboutBox.obj
 0003:000010dc       ?_Rank@?$_Arithmetic_traits@G@std@@2HB 006250dc     AboutBox.obj
 0003:000010e0       ?_Rank@?$_Arithmetic_traits@H@std@@2HB 006250e0     AboutBox.obj
 0003:000010e4       ?_Rank@?$_Arithmetic_traits@I@std@@2HB 006250e4     AboutBox.obj
 0003:000010e8       ?_Rank@?$_Arithmetic_traits@J@std@@2HB 006250e8     AboutBox.obj
 0003:000010ec       ?_Rank@?$_Arithmetic_traits@K@std@@2HB 006250ec     AboutBox.obj
 0003:000010f0       ?_Rank@?$_Arithmetic_traits@_J@std@@2HB 006250f0     AboutBox.obj
 0003:000010f4       ?_Rank@?$_Arithmetic_traits@_K@std@@2HB 006250f4     AboutBox.obj
 0003:000010f8       ?_Rank@?$_Arithmetic_traits@M@std@@2HB 006250f8     AboutBox.obj
 0003:000010fc       ?_Rank@?$_Arithmetic_traits@N@std@@2HB 006250fc     AboutBox.obj
 0003:00001100       ?_Rank@?$_Arithmetic_traits@O@std@@2HB 00625100     AboutBox.obj
 0003:00001104       ?collate@?$_Locbase@H@std@@2HB 00625104     AboutBox.obj
 0003:00001108       ?ctype@?$_Locbase@H@std@@2HB 00625108     AboutBox.obj
 0003:0000110c       ?monetary@?$_Locbase@H@std@@2HB 0062510c     AboutBox.obj
 0003:00001110       ?numeric@?$_Locbase@H@std@@2HB 00625110     AboutBox.obj
 0003:00001114       ?time@?$_Locbase@H@std@@2HB 00625114     AboutBox.obj
 0003:00001118       ?messages@?$_Locbase@H@std@@2HB 00625118     AboutBox.obj
 0003:0000111c       ?all@?$_Locbase@H@std@@2HB 0062511c     AboutBox.obj
 0003:00001120       ?none@?$_Locbase@H@std@@2HB 00625120     AboutBox.obj
 0003:00001124       ?table_size@?$ctype@D@std@@2IB 00625124     AboutBox.obj
 0003:00001128       ?skipws@?$_Iosb@H@std@@2W4_Fmtflags@12@B 00625128     AboutBox.obj
 0003:0000112c       ?unitbuf@?$_Iosb@H@std@@2W4_Fmtflags@12@B 0062512c     AboutBox.obj
 0003:00001130       ?uppercase@?$_Iosb@H@std@@2W4_Fmtflags@12@B 00625130     AboutBox.obj
 0003:00001134       ?showbase@?$_Iosb@H@std@@2W4_Fmtflags@12@B 00625134     AboutBox.obj
 0003:00001138       ?showpoint@?$_Iosb@H@std@@2W4_Fmtflags@12@B 00625138     AboutBox.obj
 0003:0000113c       ?showpos@?$_Iosb@H@std@@2W4_Fmtflags@12@B 0062513c     AboutBox.obj
 0003:00001140       ?left@?$_Iosb@H@std@@2W4_Fmtflags@12@B 00625140     AboutBox.obj
 0003:00001144       ?right@?$_Iosb@H@std@@2W4_Fmtflags@12@B 00625144     AboutBox.obj
 0003:00001148       ?internal@?$_Iosb@H@std@@2W4_Fmtflags@12@B 00625148     AboutBox.obj
 0003:0000114c       ?dec@?$_Iosb@H@std@@2W4_Fmtflags@12@B 0062514c     AboutBox.obj
 0003:00001150       ?oct@?$_Iosb@H@std@@2W4_Fmtflags@12@B 00625150     AboutBox.obj
 0003:00001154       ?hex@?$_Iosb@H@std@@2W4_Fmtflags@12@B 00625154     AboutBox.obj
 0003:00001158       ?scientific@?$_Iosb@H@std@@2W4_Fmtflags@12@B 00625158     AboutBox.obj
 0003:0000115c       ?fixed@?$_Iosb@H@std@@2W4_Fmtflags@12@B 0062515c     AboutBox.obj
 0003:00001160       ?hexfloat@?$_Iosb@H@std@@2W4_Fmtflags@12@B 00625160     AboutBox.obj
 0003:00001164       ?boolalpha@?$_Iosb@H@std@@2W4_Fmtflags@12@B 00625164     AboutBox.obj
 0003:00001168       ?_Stdio@?$_Iosb@H@std@@2W4_Fmtflags@12@B 00625168     AboutBox.obj
 0003:0000116c       ?adjustfield@?$_Iosb@H@std@@2W4_Fmtflags@12@B 0062516c     AboutBox.obj
 0003:00001170       ?basefield@?$_Iosb@H@std@@2W4_Fmtflags@12@B 00625170     AboutBox.obj
 0003:00001174       ?floatfield@?$_Iosb@H@std@@2W4_Fmtflags@12@B 00625174     AboutBox.obj
 0003:00001178       ?goodbit@?$_Iosb@H@std@@2W4_Iostate@12@B 00625178     AboutBox.obj
 0003:0000117c       ?eofbit@?$_Iosb@H@std@@2W4_Iostate@12@B 0062517c     AboutBox.obj
 0003:00001180       ?failbit@?$_Iosb@H@std@@2W4_Iostate@12@B 00625180     AboutBox.obj
 0003:00001184       ?badbit@?$_Iosb@H@std@@2W4_Iostate@12@B 00625184     AboutBox.obj
 0003:00001188       ?_Hardfail@?$_Iosb@H@std@@2W4_Iostate@12@B 00625188     AboutBox.obj
 0003:0000118c       ?in@?$_Iosb@H@std@@2W4_Openmode@12@B 0062518c     AboutBox.obj
 0003:00001190       ?out@?$_Iosb@H@std@@2W4_Openmode@12@B 00625190     AboutBox.obj
 0003:00001194       ?ate@?$_Iosb@H@std@@2W4_Openmode@12@B 00625194     AboutBox.obj
 0003:00001198       ?app@?$_Iosb@H@std@@2W4_Openmode@12@B 00625198     AboutBox.obj
 0003:0000119c       ?trunc@?$_Iosb@H@std@@2W4_Openmode@12@B 0062519c     AboutBox.obj
 0003:000011a0       ?_Nocreate@?$_Iosb@H@std@@2W4_Openmode@12@B 006251a0     AboutBox.obj
 0003:000011a4       ?_Noreplace@?$_Iosb@H@std@@2W4_Openmode@12@B 006251a4     AboutBox.obj
 0003:000011a8       ?binary@?$_Iosb@H@std@@2W4_Openmode@12@B 006251a8     AboutBox.obj
 0003:000011ac       ?beg@?$_Iosb@H@std@@2W4_Seekdir@12@B 006251ac     AboutBox.obj
 0003:000011b0       ?cur@?$_Iosb@H@std@@2W4_Seekdir@12@B 006251b0     AboutBox.obj
 0003:000011b4       ?end@?$_Iosb@H@std@@2W4_Seekdir@12@B 006251b4     AboutBox.obj
 0003:000011bc       ??_7AccelKeys@@6B@         006251bc     AccelKeys.obj
 0003:000011c8       ??_7AuthDialog@@6B@        006251c8     AuthDialog.obj
 0003:00004014       ??_7ClientConnection@@6B@  00628014     ClientConnection.obj
 0003:00004028       ??_7WarningException@@6B@  00628028     ClientConnection.obj
 0003:00004038       ??_7Exception@@6B@         00628038     ClientConnection.obj
 0003:00004048       ??_7QuietException@@6B@    00628048     ClientConnection.obj
 0003:00004054       ??_C@_1DC@POOIKBAO@?$AAI?$AAT?$AAE?$AAR?$AAA?$AAT?$AAO?$AAR?$AA?5?$AAL?$AAI?$AAS?$AAT?$AA?5?$AAC?$AAO?$AAR?$AAR?$AAU?$AAP?$AAT?$AAE?$AAD?$AA?$CB?$AA?$AA@ 00628054     ClientConnection.obj
 0003:00004090       ??_C@_1JA@HPGAGILB@?$AAC?$AA?3?$AA?2?$AAP?$AAr?$AAo?$AAg?$AAr?$AAa?$AAm?$AA?5?$AAF?$AAi?$AAl?$AAe?$AAs?$AA?5?$AA?$CI?$AAx?$AA8?$AA6?$AA?$CJ?$AA?2?$AAM?$AAi?$AAc?$AAr?$AAo?$AAs?$AAo?$AAf?$AAt@ 00628090     ClientConnection.obj
 0003:00004140       ??_7ErrorException@@6B@    00628140     ClientConnection.obj
 0003:0000414c       ??_C@_0DD@FBPPEKPN@Buffer?5cleared?0?5sync?5should?5be?5b@ 0062814c     ClientConnection.obj
 0003:00004190       ??_7EndOfStream@rdr@@6B@   00628190     ClientConnection.obj
 0003:0000419c       ??_7Exception@rdr@@6B@     0062819c     ClientConnection.obj
 0003:000041a4       ??_C@_0BF@FLNOJOAA@fake?5L?5Ctrl?5pressed?6?$AA@ 006281a4     ClientConnection.obj
 0003:000041c0       ??_C@_0BE@CONBNGBF@fake?5L?5Alt?5pressed?6?$AA@ 006281c0     ClientConnection.obj
 0003:000041d8       ??_C@_0BF@JNHLFGDF@fake?5R?5Ctrl?5pressed?6?$AA@ 006281d8     ClientConnection.obj
 0003:000041f4       ??_C@_0BE@IHMAFBCP@fake?5R?5Alt?5pressed?6?$AA@ 006281f4     ClientConnection.obj
 0003:0000420c       ??_C@_0BD@MEDIHBIH@fake?5R?5Alt?5raised?6?$AA@ 0062820c     ClientConnection.obj
 0003:00004224       ??_C@_0BE@KFOLBGJD@fake?5R?5Ctrl?5raised?6?$AA@ 00628224     ClientConnection.obj
 0003:0000423c       ??_C@_0BD@GJBBBIGL@fake?5L?5Alt?5raised?6?$AA@ 0062823c     ClientConnection.obj
 0003:00004254       ??_C@_0BE@MPKJBKJ@fake?5L?5Ctrl?5raised?6?$AA@ 00628254     ClientConnection.obj
 0003:0000426c       ??_C@_0CP@OMDKALDH@Failed?5to?5create?5timer?5for?5emula@ 0062826c     ClientConnection.obj
 0003:000042a4       ?npos@?$basic_string@DU?$char_traits@D@std@@V?$allocator@D@2@@std@@2IB 006282a4     ClientConnection.obj
 0003:000042a8       ??_C@_1IO@KLJMFODF@?$AAC?$AA?3?$AA?2?$AAP?$AAr?$AAo?$AAg?$AAr?$AAa?$AAm?$AA?5?$AAF?$AAi?$AAl?$AAe?$AAs?$AA?5?$AA?$CI?$AAx?$AA8?$AA6?$AA?$CJ?$AA?2?$AAM?$AAi?$AAc?$AAr?$AAo?$AAs?$AAo?$AAf?$AAt@ 006282a8     ClientConnection.obj
 0003:00004354       ??_C@_1BO@MEPPHOO@?$AA?$CC?$AAo?$AAu?$AAt?$AA?5?$AAo?$AAf?$AA?5?$AAr?$AAa?$AAn?$AAg?$AAe?$AA?$CC?$AA?$AA@ 00628354     ClientConnection.obj
 0003:00004378       ??_C@_1OK@LBLNAMJL@?$AAs?$AAt?$AAd?$AA?3?$AA?3?$AA_?$AAV?$AAe?$AAc?$AAt?$AAo?$AAr?$AA_?$AAc?$AAo?$AAn?$AAs?$AAt?$AA_?$AAi?$AAt?$AAe?$AAr?$AAa?$AAt?$AAo?$AAr?$AA?$DM?$AAc?$AAl?$AAa?$AAs@ 00628378     ClientConnection.obj
 0003:00004490       ??_C@_1FG@IBPIFFN@?$AA?$CC?$AAS?$AAt?$AAa?$AAn?$AAd?$AAa?$AAr?$AAd?$AA?5?$AAC?$AA?$CL?$AA?$CL?$AA?5?$AAL?$AAi?$AAb?$AAr?$AAa?$AAr?$AAi?$AAe?$AAs?$AA?5?$AAO?$AAu?$AAt?$AA?5?$AAo?$AAf?$AA?5?$AAR@ 00628490     ClientConnection.obj
 0003:000044f8       ??_C@_0CE@OFMIGAMM@Standard?5C?$CL?$CL?5Libraries?5Out?5of?5Ra@ 006284f8     ClientConnection.obj
 0003:00004528       ??_C@_1EG@FOHJJHAC@?$AAv?$AAe?$AAc?$AAt?$AAo?$AAr?$AA?5?$AAi?$AAt?$AAe?$AAr?$AAa?$AAt?$AAo?$AAr?$AA?5?$AAn?$AAo?$AAt?$AA?5?$AAd?$AAe?$AAr?$AAe?$AAf?$AAe?$AAr?$AAe?$AAn?$AAc?$AAa?$AAb@ 00628528     ClientConnection.obj
 0003:00004580       ??_C@_1IM@BMIEAPLA@?$AAC?$AA?3?$AA?2?$AAP?$AAr?$AAo?$AAg?$AAr?$AAa?$AAm?$AA?5?$AAF?$AAi?$AAl?$AAe?$AAs?$AA?5?$AA?$CI?$AAx?$AA8?$AA6?$AA?$CJ?$AA?2?$AAM?$AAi?$AAc?$AAr?$AAo?$AAs?$AAo?$AAf?$AAt@ 00628580     ClientConnection.obj
 0003:00004628       ??_C@_0BI@CFPLBAOH@invalid?5string?5position?$AA@ 00628628     ClientConnection.obj
 0003:00004644       ??_C@_0BD@OLBABOEK@vector?$DMT?$DO?5too?5long?$AA@ 00628644     ClientConnection.obj
 0003:0000465c       ??_C@_1CG@JNLFBNGN@?$AA?$CC?$AAi?$AAn?$AAv?$AAa?$AAl?$AAi?$AAd?$AA?5?$AAa?$AAr?$AAg?$AAu?$AAm?$AAe?$AAn?$AAt?$AA?$CC?$AA?$AA@ 0062865c     ClientConnection.obj
 0003:00004690       ??_C@_1OE@HHGPIFCB@?$AAs?$AAt?$AAd?$AA?3?$AA?3?$AA_?$AAV?$AAe?$AAc?$AAt?$AAo?$AAr?$AA_?$AAc?$AAo?$AAn?$AAs?$AAt?$AA_?$AAi?$AAt?$AAe?$AAr?$AAa?$AAt?$AAo?$AAr?$AA?$DM?$AAc?$AAl?$AAa?$AAs@ 00628690     ClientConnection.obj
 0003:000047a8       ??_C@_1FO@GJIHNDLM@?$AA?$CC?$AAS?$AAt?$AAa?$AAn?$AAd?$AAa?$AAr?$AAd?$AA?5?$AAC?$AA?$CL?$AA?$CL?$AA?5?$AAL?$AAi?$AAb?$AAr?$AAa?$AAr?$AAi?$AAe?$AAs?$AA?5?$AAI?$AAn?$AAv?$AAa?$AAl?$AAi?$AAd?$AA?5@ 006287a8     ClientConnection.obj
 0003:00004818       ??_C@_0CI@FNPHFCCM@Standard?5C?$CL?$CL?5Libraries?5Invalid?5A@ 00628818     ClientConnection.obj
 0003:00004848       ??_C@_1DM@HINDPMBP@?$AAv?$AAe?$AAc?$AAt?$AAo?$AAr?$AA?5?$AAi?$AAt?$AAe?$AAr?$AAa?$AAt?$AAo?$AAr?$AAs?$AA?5?$AAi?$AAn?$AAc?$AAo?$AAm?$AAp?$AAa?$AAt?$AAi?$AAb?$AAl?$AAe?$AA?$AA@ 00628848     ClientConnection.obj
 0003:00004890       ??_C@_1OM@CHGMFFNN@?$AAs?$AAt?$AAd?$AA?3?$AA?3?$AA_?$AAV?$AAe?$AAc?$AAt?$AAo?$AAr?$AA_?$AAc?$AAo?$AAn?$AAs?$AAt?$AA_?$AAi?$AAt?$AAe?$AAr?$AAa?$AAt?$AAo?$AAr?$AA?$DM?$AAc?$AAl?$AAa?$AAs@ 00628890     ClientConnection.obj
 0003:000049b0       ??_C@_1EE@EJDKCLKB@?$AAv?$AAe?$AAc?$AAt?$AAo?$AAr?$AA?5?$AAi?$AAt?$AAe?$AAr?$AAa?$AAt?$AAo?$AAr?$AA?5?$AAn?$AAo?$AAt?$AA?5?$AAi?$AAn?$AAc?$AAr?$AAe?$AAm?$AAe?$AAn?$AAt?$AAa?$AAb?$AAl@ 006289b0     ClientConnection.obj
 0003:00004a08       ??_C@_1OE@NCLMACME@?$AAs?$AAt?$AAd?$AA?3?$AA?3?$AA_?$AAV?$AAe?$AAc?$AAt?$AAo?$AAr?$AA_?$AAc?$AAo?$AAn?$AAs?$AAt?$AA_?$AAi?$AAt?$AAe?$AAr?$AAa?$AAt?$AAo?$AAr?$AA?$DM?$AAc?$AAl?$AAa?$AAs@ 00628a08     ClientConnection.obj
 0003:00004b1c       ??_C@_0BA@JFNIOLAK@string?5too?5long?$AA@ 00628b1c     ClientConnection.obj
 0003:00004b30       ??_C@_1EK@PPDBPCAN@?$AAm?$AAa?$AAp?$AA?1?$AAs?$AAe?$AAt?$AA?5?$AAe?$AAr?$AAa?$AAs?$AAe?$AA?5?$AAi?$AAt?$AAe?$AAr?$AAa?$AAt?$AAo?$AAr?$AA?5?$AAo?$AAu?$AAt?$AAs?$AAi?$AAd?$AAe?$AA?5?$AAr@ 00628b30     ClientConnection.obj
 0003:00004b88       ??_C@_1IK@PNHEEABE@?$AAC?$AA?3?$AA?2?$AAP?$AAr?$AAo?$AAg?$AAr?$AAa?$AAm?$AA?5?$AAF?$AAi?$AAl?$AAe?$AAs?$AA?5?$AA?$CI?$AAx?$AA8?$AA6?$AA?$CJ?$AA?2?$AAM?$AAi?$AAc?$AAr?$AAo?$AAs?$AAo?$AAf?$AAt@ 00628b88     ClientConnection.obj
 0003:00004c30       ??_C@_1BKC@HLHBDGDM@?$AAs?$AAt?$AAd?$AA?3?$AA?3?$AA_?$AAT?$AAr?$AAe?$AAe?$AA_?$AAc?$AAo?$AAn?$AAs?$AAt?$AA_?$AAi?$AAt?$AAe?$AAr?$AAa?$AAt?$AAo?$AAr?$AA?$DM?$AAc?$AAl?$AAa?$AAs?$AAs?$AA?5@ 00628c30     ClientConnection.obj
 0003:00004e28       ??_C@_1DO@CFEEPGGJ@?$AAm?$AAa?$AAp?$AA?1?$AAs?$AAe?$AAt?$AA?5?$AAi?$AAt?$AAe?$AAr?$AAa?$AAt?$AAo?$AAr?$AAs?$AA?5?$AAi?$AAn?$AAc?$AAo?$AAm?$AAp?$AAa?$AAt?$AAi?$AAb?$AAl?$AAe?$AA?$AA@ 00628e28     ClientConnection.obj
 0003:00004e78       ??_C@_1BKO@HJBKJLDH@?$AAs?$AAt?$AAd?$AA?3?$AA?3?$AA_?$AAT?$AAr?$AAe?$AAe?$AA_?$AAc?$AAo?$AAn?$AAs?$AAt?$AA_?$AAi?$AAt?$AAe?$AAr?$AAa?$AAt?$AAo?$AAr?$AA?$DM?$AAc?$AAl?$AAa?$AAs?$AAs?$AA?5@ 00628e78     ClientConnection.obj
 0003:00005080       ??_C@_1BKC@NLIMNPPJ@?$AAs?$AAt?$AAd?$AA?3?$AA?3?$AA_?$AAT?$AAr?$AAe?$AAe?$AA_?$AAc?$AAo?$AAn?$AAs?$AAt?$AA_?$AAi?$AAt?$AAe?$AAr?$AAa?$AAt?$AAo?$AAr?$AA?$DM?$AAc?$AAl?$AAa?$AAs?$AAs?$AA?5@ 00629080     ClientConnection.obj
 0003:00005278       ??_C@_1EG@EHJFMBHJ@?$AAm?$AAa?$AAp?$AA?1?$AAs?$AAe?$AAt?$AA?5?$AAi?$AAt?$AAe?$AAr?$AAa?$AAt?$AAo?$AAr?$AA?5?$AAn?$AAo?$AAt?$AA?5?$AAi?$AAn?$AAc?$AAr?$AAe?$AAm?$AAe?$AAn?$AAt?$AAa?$AAb@ 00629278     ClientConnection.obj
 0003:000052d0       ??_C@_1BKO@NJOHHCPC@?$AAs?$AAt?$AAd?$AA?3?$AA?3?$AA_?$AAT?$AAr?$AAe?$AAe?$AA_?$AAc?$AAo?$AAn?$AAs?$AAt?$AA_?$AAi?$AAt?$AAe?$AAr?$AAa?$AAt?$AAo?$AAr?$AA?$DM?$AAc?$AAl?$AAa?$AAs?$AAs?$AA?5@ 006292d0     ClientConnection.obj
 0003:000054d8       ??_C@_1JC@KDKPAKAP@?$AAC?$AA?3?$AA?2?$AAP?$AAr?$AAo?$AAg?$AAr?$AAa?$AAm?$AA?5?$AAF?$AAi?$AAl?$AAe?$AAs?$AA?5?$AA?$CI?$AAx?$AA8?$AA6?$AA?$CJ?$AA?2?$AAM?$AAi?$AAc?$AAr?$AAo?$AAs?$AAo?$AAf?$AAt@ 006294d8     ClientConnection.obj
 0003:00005588       ??_C@_1CK@EOPGIILJ@?$AAi?$AAn?$AAv?$AAa?$AAl?$AAi?$AAd?$AA?5?$AAn?$AAu?$AAl?$AAl?$AA?5?$AAp?$AAo?$AAi?$AAn?$AAt?$AAe?$AAr?$AA?$AA@ 00629588     ClientConnection.obj
 0003:000055c0       ??_7bad_alloc@std@@6B@     006295c0     ClientConnection.obj
 0003:000055cc       ??_C@_1CO@DGLIKNHI@?$AAi?$AAn?$AAv?$AAa?$AAl?$AAi?$AAd?$AA?5?$AAi?$AAt?$AAe?$AAr?$AAa?$AAt?$AAo?$AAr?$AA?5?$AAr?$AAa?$AAn?$AAg?$AAe?$AA?$AA@ 006295cc     ClientConnection.obj
 0003:00005608       ??_C@_1IM@GCFPIDLL@?$AAC?$AA?3?$AA?2?$AAP?$AAr?$AAo?$AAg?$AAr?$AAa?$AAm?$AA?5?$AAF?$AAi?$AAl?$AAe?$AAs?$AA?5?$AA?$CI?$AAx?$AA8?$AA6?$AA?$CJ?$AA?2?$AAM?$AAi?$AAc?$AAr?$AAo?$AAs?$AAo?$AAf?$AAt@ 00629608     ClientConnection.obj
 0003:0000629c       ?formatUnicodeText@ClipboardSettings@@2IB 0062a29c     Clipboard.obj
 0003:000062c0       ?formatDIB@ClipboardSettings@@2IB 0062a2c0     Clipboard.obj
 0003:000062c4       ?defaultLimitText@ClipboardSettings@@2HB 0062a2c4     Clipboard.obj
 0003:000062c8       ?defaultLimitRTF@ClipboardSettings@@2HB 0062a2c8     Clipboard.obj
 0003:000062cc       ?defaultLimitHTML@ClipboardSettings@@2HB 0062a2cc     Clipboard.obj
 0003:000062d0       ?defaultLimitDIB@ClipboardSettings@@2HB 0062a2d0     Clipboard.obj
 0003:000062d4       ?defaultLimit@ClipboardSettings@@2HB 0062a2d4     Clipboard.obj
 0003:000062e8       ??_7MemInStream@rdr@@6B@   0062a2e8     Clipboard.obj
 0003:00006300       ??_7InStream@rdr@@6B@      0062a300     Clipboard.obj
 0003:00006314       ??_C@_07KPPHNOFD@overrun?$AA@ 0062a314     Clipboard.obj
 0003:00006320       ??_C@_0BB@HABGOPEN@rdr?3?3EndOfStream?$AA@ 0062a320     Clipboard.obj
 0003:00006334       ??_C@_02LMMGGCAJ@?3?5?$AA@ 0062a334     Clipboard.obj
 0003:0000633c       ??_7MemOutStream@rdr@@6B@  0062a33c     Clipboard.obj
 0003:00006358       ??_7OutStream@rdr@@6B@     0062a358     Clipboard.obj
 0003:00006370       ?npos@?$basic_string@_WU?$char_traits@_W@std@@V?$allocator@_W@2@@std@@2IB 0062a370     Clipboard.obj
 0003:00006378       ??_C@_1MK@BODNBKIO@?$AAs?$AAt?$AAd?$AA?3?$AA?3?$AA_?$AAS?$AAt?$AAr?$AAi?$AAn?$AAg?$AA_?$AAc?$AAo?$AAn?$AAs?$AAt?$AA_?$AAi?$AAt?$AAe?$AAr?$AAa?$AAt?$AAo?$AAr?$AA?$DM?$AAc?$AAh?$AAa?$AAr@ 0062a378     Clipboard.obj
 0003:0000646c       ??_C@_1DM@KDEKGMPF@?$AAs?$AAt?$AAr?$AAi?$AAn?$AAg?$AA?5?$AAi?$AAt?$AAe?$AAr?$AAa?$AAt?$AAo?$AAr?$AAs?$AA?5?$AAi?$AAn?$AAc?$AAo?$AAm?$AAp?$AAa?$AAt?$AAi?$AAb?$AAl?$AAe?$AA?$AA@ 0062a46c     Clipboard.obj
 0003:000064b8       ??_C@_1OC@JOGMCBHH@?$AAs?$AAt?$AAd?$AA?3?$AA?3?$AA_?$AAS?$AAt?$AAr?$AAi?$AAn?$AAg?$AA_?$AAc?$AAo?$AAn?$AAs?$AAt?$AA_?$AAi?$AAt?$AAe?$AAr?$AAa?$AAt?$AAo?$AAr?$AA?$DM?$AAw?$AAc?$AAh?$AAa@ 0062a4b8     Clipboard.obj
 0003:000065c8       ??_C@_1EG@CNCHLAOB@?$AAs?$AAt?$AAr?$AAi?$AAn?$AAg?$AA?5?$AAi?$AAt?$AAe?$AAr?$AAa?$AAt?$AAo?$AAr?$AA?5?$AAn?$AAo?$AAt?$AA?5?$AAd?$AAe?$AAr?$AAe?$AAf?$AAe?$AAr?$AAe?$AAn?$AAc?$AAa?$AAb@ 0062a5c8     Clipboard.obj
 0003:00006620       ??_C@_1OE@JAHIJKJJ@?$AAs?$AAt?$AAd?$AA?3?$AA?3?$AA_?$AAS?$AAt?$AAr?$AAi?$AAn?$AAg?$AA_?$AAc?$AAo?$AAn?$AAs?$AAt?$AA_?$AAi?$AAt?$AAe?$AAr?$AAa?$AAt?$AAo?$AAr?$AA?$DM?$AAw?$AAc?$AAh?$AAa@ 0062a620     Clipboard.obj
 0003:00006738       ??_C@_1EE@HAKOGNPH@?$AAs?$AAt?$AAr?$AAi?$AAn?$AAg?$AA?5?$AAi?$AAt?$AAe?$AAr?$AAa?$AAt?$AAo?$AAr?$AA?5?$AAn?$AAo?$AAt?$AA?5?$AAi?$AAn?$AAc?$AAr?$AAe?$AAm?$AAe?$AAn?$AAt?$AAa?$AAb?$AAl@ 0062a738     Clipboard.obj
 0003:00006790       ??_C@_1NM@GOPLEKCA@?$AAs?$AAt?$AAd?$AA?3?$AA?3?$AA_?$AAS?$AAt?$AAr?$AAi?$AAn?$AAg?$AA_?$AAc?$AAo?$AAn?$AAs?$AAt?$AA_?$AAi?$AAt?$AAe?$AAr?$AAa?$AAt?$AAo?$AAr?$AA?$DM?$AAw?$AAc?$AAh?$AAa@ 0062a790     Clipboard.obj
 0003:000069ec       ??_7Daemon@@6B@            0062a9ec     Daemon.obj
 0003:00006a64       ??_7Except@@6B@            0062aa64     dh.obj
 0003:00006bb8       ??_7CDSMPlugin@@6B@        0062abb8     DSMPlugin.obj
 0003:00006c94       ??_7ViewerDirectxClass@@6B@ 0062ac94     directxviewer.obj
 0003:000078a0       ??_7FileTransfer@@6B@      0062b8a0     FileTransfer.obj
 0003:000078a8       __real@408f400000000000    0062b8a8     FileTransfer.obj
 0003:000078b8       __real@4090000000000000    0062b8b8     FileTransfer.obj
 0003:000078c8       ??_C@_1EG@BPNHNPIG@?$AAl?$AAi?$AAs?$AAt?$AA?5?$AAi?$AAn?$AAs?$AAe?$AAr?$AAt?$AA?5?$AAi?$AAt?$AAe?$AAr?$AAa?$AAt?$AAo?$AAr?$AA?5?$AAo?$AAu?$AAt?$AAs?$AAi?$AAd?$AAe?$AA?5?$AAr?$AAa?$AAn@ 0062b8c8     FileTransfer.obj
 0003:00007920       ??_C@_1II@CHCJCGAK@?$AAC?$AA?3?$AA?2?$AAP?$AAr?$AAo?$AAg?$AAr?$AAa?$AAm?$AA?5?$AAF?$AAi?$AAl?$AAe?$AAs?$AA?5?$AA?$CI?$AAx?$AA8?$AA6?$AA?$CJ?$AA?2?$AAM?$AAi?$AAc?$AAr?$AAo?$AAs?$AAo?$AAf?$AAt@ 0062b920     FileTransfer.obj
 0003:000079c8       ??_C@_1LK@MIACFMIJ@?$AAs?$AAt?$AAd?$AA?3?$AA?3?$AA_?$AAL?$AAi?$AAs?$AAt?$AA_?$AAc?$AAo?$AAn?$AAs?$AAt?$AA_?$AAi?$AAt?$AAe?$AAr?$AAa?$AAt?$AAo?$AAr?$AA?$DM?$AAc?$AAl?$AAa?$AAs?$AAs?$AA?5@ 0062b9c8     FileTransfer.obj
 0003:00007aa8       ??_C@_1EC@HILJLMMC@?$AAl?$AAi?$AAs?$AAt?$AA?5?$AAi?$AAt?$AAe?$AAr?$AAa?$AAt?$AAo?$AAr?$AA?5?$AAn?$AAo?$AAt?$AA?5?$AAd?$AAe?$AAr?$AAe?$AAf?$AAe?$AAr?$AAe?$AAn?$AAc?$AAa?$AAb?$AAl?$AAe@ 0062baa8     FileTransfer.obj
 0003:00007af8       ??_C@_1LM@JEAOOEIA@?$AAs?$AAt?$AAd?$AA?3?$AA?3?$AA_?$AAL?$AAi?$AAs?$AAt?$AA_?$AAc?$AAo?$AAn?$AAs?$AAt?$AA_?$AAi?$AAt?$AAe?$AAr?$AAa?$AAt?$AAo?$AAr?$AA?$DM?$AAc?$AAl?$AAa?$AAs?$AAs?$AA?5@ 0062baf8     FileTransfer.obj
 0003:00007bdc       ??_C@_1DI@MDELDGPI@?$AAl?$AAi?$AAs?$AAt?$AA?5?$AAi?$AAt?$AAe?$AAr?$AAa?$AAt?$AAo?$AAr?$AAs?$AA?5?$AAi?$AAn?$AAc?$AAo?$AAm?$AAp?$AAa?$AAt?$AAi?$AAb?$AAl?$AAe?$AA?$AA@ 0062bbdc     FileTransfer.obj
 0003:00007c20       ??_C@_1NA@ICLOEHKI@?$AAs?$AAt?$AAd?$AA?3?$AA?3?$AA_?$AAS?$AAt?$AAr?$AAi?$AAn?$AAg?$AA_?$AAc?$AAo?$AAn?$AAs?$AAt?$AA_?$AAi?$AAt?$AAe?$AAr?$AAa?$AAt?$AAo?$AAr?$AA?$DM?$AAc?$AAh?$AAa?$AAr@ 0062bc20     FileTransfer.obj
 0003:00007d20       ??_C@_1CBG@FBCJOBH@?$AAs?$AAt?$AAd?$AA?3?$AA?3?$AA_?$AAV?$AAe?$AAc?$AAt?$AAo?$AAr?$AA_?$AAc?$AAo?$AAn?$AAs?$AAt?$AA_?$AAi?$AAt?$AAe?$AAr?$AAa?$AAt?$AAo?$AAr?$AA?$DM?$AAc?$AAl?$AAa?$AAs@ 0062bd20     FileTransfer.obj
 0003:00007fa0       ??_C@_0BB@MOGOBHAF@list?$DMT?$DO?5too?5long?$AA@ 0062bfa0     FileTransfer.obj
 0003:00007fb8       ??_C@_1LM@DEPDANEF@?$AAs?$AAt?$AAd?$AA?3?$AA?3?$AA_?$AAL?$AAi?$AAs?$AAt?$AA_?$AAc?$AAo?$AAn?$AAs?$AAt?$AA_?$AAi?$AAt?$AAe?$AAr?$AAa?$AAt?$AAo?$AAr?$AA?$DM?$AAc?$AAl?$AAa?$AAs?$AAs?$AA?5@ 0062bfb8     FileTransfer.obj
 0003:000080a0       ??_C@_1EA@DOGAGKDH@?$AAl?$AAi?$AAs?$AAt?$AA?5?$AAi?$AAt?$AAe?$AAr?$AAa?$AAt?$AAo?$AAr?$AA?5?$AAn?$AAo?$AAt?$AA?5?$AAi?$AAn?$AAc?$AAr?$AAe?$AAm?$AAe?$AAn?$AAt?$AAa?$AAb?$AAl?$AAe?$AA?$AA@ 0062c0a0     FileTransfer.obj
 0003:000080f0       ??_C@_1CBE@LACBANFF@?$AAs?$AAt?$AAd?$AA?3?$AA?3?$AA_?$AAV?$AAe?$AAc?$AAt?$AAo?$AAr?$AA_?$AAc?$AAo?$AAn?$AAs?$AAt?$AA_?$AAi?$AAt?$AAe?$AAr?$AAa?$AAt?$AAo?$AAr?$AA?$DM?$AAc?$AAl?$AAa?$AAs@ 0062c0f0     FileTransfer.obj
 0003:00008370       ??_C@_1CAO@LEMIFKFJ@?$AAs?$AAt?$AAd?$AA?3?$AA?3?$AA_?$AAV?$AAe?$AAc?$AAt?$AAo?$AAr?$AA_?$AAc?$AAo?$AAn?$AAs?$AAt?$AA_?$AAi?$AAt?$AAe?$AAr?$AAa?$AAt?$AAo?$AAr?$AA?$DM?$AAc?$AAl?$AAa?$AAs@ 0062c370     FileTransfer.obj
 0003:00008714       ??_7CTitleBar@@6B@         0062c714     FullScreenTitleBar.obj
 0003:0000a344       ??_C@_0L@GPMAHOEN@Right?5Alt?5?$AA@ 0062e344     KeyMap.obj
 0003:0000a354       ??_C@_09FFBHDBBC@Left?5Alt?5?$AA@ 0062e354     KeyMap.obj
 0003:0000a360       ??_C@_0M@NMDFIPMB@Right?5Ctrl?5?$AA@ 0062e360     KeyMap.obj
 0003:0000a370       ??_C@_0L@CHNLBEOL@Left?5Ctrl?5?$AA@ 0062e370     KeyMap.obj
 0003:0000a380       ??_C@_0CG@MIFGIGMN@?5?5Fake?5release?5?$CFs?$CI?$CFsVirtKey?50x?$CF0@ 0062e380     KeyMap.obj
 0003:0000a3ad       ??_C@_00CNPNBAHC@?$AA@     0062e3ad     KeyMap.obj
 0003:0000a3b0       ??_C@_09BJLKDKJA@extended?5?$AA@ 0062e3b0     KeyMap.obj
 0003:0000a3bc       ??_C@_0CB@DKENIJGF@Fake?5press?5?$CFs?$CI?$CFsVirtKey?50x?$CF02x?$CJ?6@ 0062e3bc     KeyMap.obj
 0003:0000a3e8       ??_C@_1BKA@NIEAOH@?$AAs?$AAt?$AAd?$AA?3?$AA?3?$AA_?$AAT?$AAr?$AAe?$AAe?$AA_?$AAc?$AAo?$AAn?$AAs?$AAt?$AA_?$AAi?$AAt?$AAe?$AAr?$AAa?$AAt?$AAo?$AAr?$AA?$DM?$AAc?$AAl?$AAa?$AAs?$AAs?$AA?5@ 0062e3e8     KeyMap.obj
 0003:0000a5e0       ??_C@_1EI@FHEHNNNM@?$AAm?$AAa?$AAp?$AA?1?$AAs?$AAe?$AAt?$AA?5?$AAi?$AAt?$AAe?$AAr?$AAa?$AAt?$AAo?$AAr?$AA?5?$AAn?$AAo?$AAt?$AA?5?$AAd?$AAe?$AAr?$AAe?$AAf?$AAe?$AAr?$AAe?$AAn?$AAc?$AAa@ 0062e5e0     KeyMap.obj
 0003:0000a638       ??_C@_1BKM@IIGMJMKC@?$AAs?$AAt?$AAd?$AA?3?$AA?3?$AA_?$AAT?$AAr?$AAe?$AAe?$AA_?$AAc?$AAo?$AAn?$AAs?$AAt?$AA_?$AAi?$AAt?$AAe?$AAr?$AAa?$AAt?$AAo?$AAr?$AA?$DM?$AAc?$AAl?$AAa?$AAs?$AAs?$AA?5@ 0062e638     KeyMap.obj
 0003:0000a83c       ??_C@_1CE@IGJMOCCK@?$AAi?$AAn?$AAv?$AAa?$AAl?$AAi?$AAd?$AA?5?$AAo?$AAp?$AAe?$AAr?$AAa?$AAt?$AAo?$AAr?$AA?$DM?$AA?$AA@ 0062e83c     KeyMap.obj
 0003:0000a868       ??_C@_1EM@MHOKKPFH@?$AAm?$AAa?$AAp?$AA?1?$AAs?$AAe?$AAt?$AA?5?$AAi?$AAn?$AAs?$AAe?$AAr?$AAt?$AA?5?$AAi?$AAt?$AAe?$AAr?$AAa?$AAt?$AAo?$AAr?$AA?5?$AAo?$AAu?$AAt?$AAs?$AAi?$AAd?$AAe?$AA?5@ 0062e868     KeyMap.obj
 0003:0000a8c4       ??_C@_0BE@JONHPENG@map?1set?$DMT?$DO?5too?5long?$AA@ 0062e8c4     KeyMap.obj
 0003:0000a8e0       ??_C@_1BKC@CILOGDDI@?$AAs?$AAt?$AAd?$AA?3?$AA?3?$AA_?$AAT?$AAr?$AAe?$AAe?$AA_?$AAc?$AAo?$AAn?$AAs?$AAt?$AA_?$AAi?$AAt?$AAe?$AAr?$AAa?$AAt?$AAo?$AAr?$AA?$DM?$AAc?$AAl?$AAa?$AAs?$AAs?$AA?5@ 0062e8e0     KeyMap.obj
 0003:0000aad8       ??_C@_1EG@OKCGOALM@?$AAm?$AAa?$AAp?$AA?1?$AAs?$AAe?$AAt?$AA?5?$AAi?$AAt?$AAe?$AAr?$AAa?$AAt?$AAo?$AAr?$AA?5?$AAn?$AAo?$AAt?$AA?5?$AAd?$AAe?$AAc?$AAr?$AAe?$AAm?$AAe?$AAn?$AAt?$AAa?$AAb@ 0062ead8     KeyMap.obj
 0003:0000ab30       ??_C@_1BKO@CKNFMODD@?$AAs?$AAt?$AAd?$AA?3?$AA?3?$AA_?$AAT?$AAr?$AAe?$AAe?$AA_?$AAc?$AAo?$AAn?$AAs?$AAt?$AA_?$AAi?$AAt?$AAe?$AAr?$AAa?$AAt?$AAo?$AAr?$AA?$DM?$AAc?$AAl?$AAa?$AAs?$AAs?$AA?5@ 0062eb30     KeyMap.obj
 0003:0000b060       ?ToDebug@Log@@2HB          0062f060     Log.obj
 0003:0000b064       ?ToFile@Log@@2HB           0062f064     Log.obj
 0003:0000b068       ?ToConsole@Log@@2HB        0062f068     Log.obj
 0003:0000b0ac       ??_7Log@@6B@               0062f0ac     Log.obj
 0003:0000b194       ??_7MRU@@6B@               0062f194     MRU.obj
 0003:0000b1ec       ??_7SessionDialog@@6B@     0062f1ec     SessionDialog.obj
 0003:0000b340       ??_7TextChat@@6B@          0062f340     TextChat.obj
 0003:0000c4b4       ??_7VNCOptions@@6B@        006304b4     VNCOptions.obj
 0003:0000c87c       ??_7VNCviewerApp@@6B@      0063087c     VNCviewerApp.obj
 0003:0000c98c       ??_7VNCviewerApp32@@6B@    0063098c     VNCviewerApp32.obj
 0003:0000c9a0       ??_7CZipUnZip32@@6B@       006309a0     ZipUnzip32.obj
 0003:0000d148       __real@3ff0000000000000    00631148     libjpeg-turbo-win:jdapimin.obj
 0003:0000d210       _jpeg_std_message_table    00631210     libjpeg-turbo-win:jerror.obj
 0003:0000d898       _jpeg_natural_order        00631898     libjpeg-turbo-win:jutils.obj
 0003:0000e5e8       __real@c004e7aea0000000    006325e8     libjpeg-turbo-win:jidctflt.obj
 0003:0000e5f0       __real@3ff1517a80000000    006325f0     libjpeg-turbo-win:jidctflt.obj
 0003:0000e5f8       __real@3ffd906bc0000000    006325f8     libjpeg-turbo-win:jidctflt.obj
 0003:0000e600       __real@3ff6a09e60000000    00632600     libjpeg-turbo-win:jidctflt.obj
 0003:0000e910       _jconst_rgb_ycc_convert_sse2 00632910     libjpeg-turbo-win:jccolss2.obj
 0003:0000e970       _jconst_ycc_rgb_convert_sse2 00632970     libjpeg-turbo-win:jdcolss2.obj
 0003:0000e9c0       _jconst_rgb_ycc_convert_mmx 006329c0     libjpeg-turbo-win:jccolmmx.obj
 0003:0000e9f0       _jconst_ycc_rgb_convert_mmx 006329f0     libjpeg-turbo-win:jdcolmmx.obj
 0003:0000ea20       _jconst_fancy_upsample_mmx 00632a20     libjpeg-turbo-win:jdsammmx.obj
 0003:0000ea50       _jconst_fancy_upsample_sse2 00632a50     libjpeg-turbo-win:jdsamss2.obj
 0003:0000eaa0       _jconst_merged_upsample_sse2 00632aa0     libjpeg-turbo-win:jdmerss2.obj
 0003:0000eaf0       _jconst_merged_upsample_mmx 00632af0     libjpeg-turbo-win:jdmermmx.obj
 0003:0000eb20       _jconst_fdct_islow_sse2    00632b20     libjpeg-turbo-win:jfss2int.obj
 0003:0000ebd0       _jconst_fdct_ifast_sse2    00632bd0     libjpeg-turbo-win:jfss2fst.obj
 0003:0000ec10       _jconst_fdct_float_sse     00632c10     libjpeg-turbo-win:jfsseflt.obj
 0003:0000ec50       _jconst_fdct_islow_mmx     00632c50     libjpeg-turbo-win:jfmmxint.obj
 0003:0000ecb0       _jconst_fdct_ifast_mmx     00632cb0     libjpeg-turbo-win:jfmmxfst.obj
 0003:0000ecd0       _jconst_fdct_float_3dnow   00632cd0     libjpeg-turbo-win:jf3dnflt.obj
 0003:0000ecf0       _jconst_idct_red_sse2      00632cf0     libjpeg-turbo-win:jiss2red.obj
 0003:0000edb0       _jconst_idct_red_mmx       00632db0     libjpeg-turbo-win:jimmxred.obj
 0003:0000ee10       _jconst_idct_islow_sse2    00632e10     libjpeg-turbo-win:jiss2int.obj
 0003:0000eec0       _jconst_idct_ifast_sse2    00632ec0     libjpeg-turbo-win:jiss2fst.obj
 0003:0000ef10       _jconst_idct_float_sse     00632f10     libjpeg-turbo-win:jisseflt.obj
 0003:0000ef70       _jconst_idct_float_sse2    00632f70     libjpeg-turbo-win:jiss2flt.obj
 0003:0000efd0       _jconst_idct_islow_mmx     00632fd0     libjpeg-turbo-win:jimmxint.obj
 0003:0000f030       _jconst_idct_ifast_mmx     00633030     libjpeg-turbo-win:jimmxfst.obj
 0003:0000f060       _jconst_idct_float_3dnow   00633060     libjpeg-turbo-win:ji3dnflt.obj
 0003:0000f090       ??_C@_0CB@FIOBDKFL@ZlibInStream?3?5inflateInit?5failed@ 00633090     rdr:ZlibInStream.obj
 0003:0000f0b8       ??_C@_0P@LAFNMDGF@rdr?3?3Exception?$AA@ 006330b8     rdr:ZlibInStream.obj
 0003:0000f0cc       ??_C@_05DFCKICEH@1?42?45?$AA@ 006330cc     rdr:ZlibInStream.obj
 0003:0000f0d8       ??_7ZlibInStream@rdr@@6B@  006330d8     rdr:ZlibInStream.obj
 0003:0000f0ec       ??_C@_0CL@ILOIFHLI@ZlibInStream?5overrun?3?5no?5underly@ 006330ec     rdr:ZlibInStream.obj
 0003:0000f120       ??_C@_0CM@MBCLANJG@ZlibInStream?5overrun?3?5max?5itemSi@ 00633120     rdr:ZlibInStream.obj
 0003:0000f154       ??_C@_0BN@BBDCOGPA@ZlibInStream?3?5inflate?5failed?$AA@ 00633154     rdr:ZlibInStream.obj
 0003:0000f17c       ??_7FdInStream@rdr@@6B@    0063317c     rdr:FdInStream.obj
 0003:0000f190       ??_C@_0CK@GGMCIOP@FdInStream?5overrun?3?5max?5itemSize@ 00633190     rdr:FdInStream.obj
 0003:0000f1c4       ??_C@_0BH@PADGDDNG@select?5returned?5EINTR?6?$AA@ 006331c4     rdr:FdInStream.obj
 0003:0000f1e0       ??_C@_0BF@HIEOHKLB@read?5returned?5EINTR?6?$AA@ 006331e0     rdr:FdInStream.obj
 0003:0000f1fc       ??_C@_06LGNCCACI@select?$AA@ 006331fc     rdr:FdInStream.obj
 0003:0000f204       ??_C@_04POLDLDMI@read?$AA@ 00633204     rdr:FdInStream.obj
 0003:0000f20c       ??_C@_01PKGAHCOL@?$CJ?$AA@ 0063320c     rdr:FdInStream.obj
 0003:0000f210       ??_C@_02DPKJAMEF@?$CFd?$AA@ 00633210     rdr:FdInStream.obj
 0003:0000f214       ??_C@_02GFKOMOKH@?5?$CI?$AA@ 00633214     rdr:FdInStream.obj
 0003:0000f218       ??_C@_0BH@DGPOIADI@rdr?3?3SystemException?3?5?$AA@ 00633218     rdr:FdInStream.obj
 0003:0000f238       ??_7SystemException@rdr@@6B@ 00633238     rdr:FdInStream.obj
 0003:0000f244       ??_7TimedOut@rdr@@6B@      00633244     rdr:FdInStream.obj
 0003:0000f24c       ??_C@_0O@HCIEMIJD@rdr?3?3TimedOut?$AA@ 0063324c     rdr:FdInStream.obj
 0003:0000f25c       ??_C@_0CC@OHBBCBML@ZlibOutStream?3?5deflateInit?5faile@ 0063325c     rdr:ZlibOutStream.obj
 0003:0000f288       ??_7ZlibOutStream@rdr@@6B@ 00633288     rdr:ZlibOutStream.obj
 0003:0000f2a0       ??_C@_0BO@GKFEGHBJ@ZlibOutStream?3?5deflate?5failed?$AA@ 006332a0     rdr:ZlibOutStream.obj
 0003:0000f2c4       ??_C@_0CO@LFBKFKEC@z?5out?5buf?5not?5full?0?5but?5in?5data?5@ 006332c4     rdr:ZlibOutStream.obj
 0003:0000f2fc       ??_C@_0CN@KABDFOKL@ZlibOutStream?5overrun?3?5max?5itemS@ 006332fc     rdr:ZlibOutStream.obj
 0003:0000f338       _mask_bits                 00633338     unz32lib:windll.obj
 0003:0000f37c       _VersionDate               0063337c     unz32lib:windll.obj
 0003:0000f390       _EndSigMsg                 00633390     unz32lib:windll.obj
 0003:0000f3e0       _CentSigMsg                006333e0     unz32lib:windll.obj
 0003:0000f428       _SeekMsg                   00633428     unz32lib:windll.obj
 0003:0000f464       _FilenameNotMatched        00633464     unz32lib:windll.obj
 0003:0000f488       _ExclFilenameNotMatched    00633488     unz32lib:windll.obj
 0003:0000f4b8       _ReportMsg                 006334b8     unz32lib:windll.obj
 0003:0000f548       _Zipnfo                    00633548     unz32lib:windll.obj
 0003:0000f550       _CompiledWith              00633550     unz32lib:windll.obj
 0003:00010030       _ydays                     00634030     unz32lib:fileio.obj
 0003:00010a0c       _TruncEAs                  00634a0c     unz32lib:extract.obj
 0003:00010a38       _TruncNTSD                 00634a38     unz32lib:extract.obj
 0003:00013b50       _deflate_copyright         00637b50     zlibstat:deflate.obj
 0003:00013c40       _z_errmsg                  00637c40     zlibstat:zutil.obj
 0003:00013c70       _inflate_copyright         00637c70     zlibstat:inftrees.obj
 0003:00014428       __dist_code                00638428     zlibstat:trees.obj
 0003:00014628       __length_code              00638628     zlibstat:trees.obj
 0003:00014a28       ??_7_internal_omni_thread_dummy@@6B@ 00638a28     omnithread:nt.obj
 0003:00014a3c       ??_7omni_thread@@6B@       00638a3c     omnithread:nt.obj
 0003:00014a50       ??_7invalid_argument@std@@6B@ 00638a50     libcpmtd:xthrow.obj
 0003:00014a60       ??_7logic_error@std@@6B@   00638a60     libcpmtd:xthrow.obj
 0003:00014a70       ??_7length_error@std@@6B@  00638a70     libcpmtd:xthrow.obj
 0003:00014a80       ??_7out_of_range@std@@6B@  00638a80     libcpmtd:xthrow.obj
 0003:00014a90       ??_7overflow_error@std@@6B@ 00638a90     libcpmtd:xthrow.obj
 0003:00014aa0       ??_7runtime_error@std@@6B@ 00638aa0     libcpmtd:xthrow.obj
 0003:00014ab0       ??_7type_info@@6B@         00638ab0     LIBCMTD:typinfo.obj
 0003:00014ab8       ??_C@_1GE@BDAODJCD@?$AAf?$AA?3?$AA?2?$AAd?$AAd?$AA?2?$AAv?$AAc?$AAt?$AAo?$AAo?$AAl?$AAs?$AA?2?$AAc?$AAr?$AAt?$AA_?$AAb?$AAl?$AAd?$AA?2?$AAs?$AAe?$AAl?$AAf?$AA_?$AAx?$AA8?$AA6?$AA?2?$AAc@ 00638ab8     LIBCMTD:dbgdel.obj
 0003:00014b30       ??_C@_1EO@LHDAJOCM@?$AA_?$AAB?$AAL?$AAO?$AAC?$AAK?$AA_?$AAT?$AAY?$AAP?$AAE?$AA_?$AAI?$AAS?$AA_?$AAV?$AAA?$AAL?$AAI?$AAD?$AA?$CI?$AAp?$AAH?$AAe?$AAa?$AAd?$AA?9?$AA?$DO?$AAn?$AAB?$AAl?$AAo@ 00638b30     LIBCMTD:dbgdel.obj
 0003:00014b90       ?ProcessDetach@NativeDll@<CrtImplementationDetails>@@0IB 00638b90     LIBCMTD:_trnsctrl_.obj
 0003:00014b94       ?ProcessAttach@NativeDll@<CrtImplementationDetails>@@0IB 00638b94     LIBCMTD:_trnsctrl_.obj
 0003:00014b98       ?ThreadAttach@NativeDll@<CrtImplementationDetails>@@0IB 00638b98     LIBCMTD:_trnsctrl_.obj
 0003:00014b9c       ?ThreadDetach@NativeDll@<CrtImplementationDetails>@@0IB 00638b9c     LIBCMTD:_trnsctrl_.obj
 0003:00014ba0       ?ProcessVerifier@NativeDll@<CrtImplementationDetails>@@0IB 00638ba0     LIBCMTD:_trnsctrl_.obj
 0003:00014ba4       ??_C@_1CC@OLIJCKA@?$AA?$CI?$AAs?$AAt?$AAr?$AAi?$AAn?$AAg?$AA?5?$AA?$CB?$AA?$DN?$AA?5?$AAN?$AAU?$AAL?$AAL?$AA?$CJ?$AA?$AA@ 00638ba4     LIBCMTD:sprintf.obj
 0003:00014bcc       ??_C@_1BA@KBJJGFFE@?$AAs?$AAp?$AAr?$AAi?$AAn?$AAt?$AAf?$AA?$AA@ 00638bcc     LIBCMTD:sprintf.obj
 0003:00014be0       ??_C@_1GC@BMNPEKNN@?$AAf?$AA?3?$AA?2?$AAd?$AAd?$AA?2?$AAv?$AAc?$AAt?$AAo?$AAo?$AAl?$AAs?$AA?2?$AAc?$AAr?$AAt?$AA_?$AAb?$AAl?$AAd?$AA?2?$AAs?$AAe?$AAl?$AAf?$AA_?$AAx?$AA8?$AA6?$AA?2?$AAc@ 00638be0     LIBCMTD:sprintf.obj
 0003:00014c58       ??_C@_1CC@MGIEJOME@?$AA?$CI?$AAf?$AAo?$AAr?$AAm?$AAa?$AAt?$AA?5?$AA?$CB?$AA?$DN?$AA?5?$AAN?$AAU?$AAL?$AAL?$AA?$CJ?$AA?$AA@ 00638c58     LIBCMTD:sprintf.obj
 0003:00014c80       ??_C@_0P@GHFPNOJB@bad?5allocation?$AA@ 00638c80     LIBCMTD:new.obj
 0003:00014c98       ??_C@_1EC@FABAOFFO@?$AA?$CI?$AAc?$AAo?$AAu?$AAn?$AAt?$AA?5?$AA?$DN?$AA?$DN?$AA?5?$AA0?$AA?$CJ?$AA?5?$AA?$HM?$AA?$HM?$AA?5?$AA?$CI?$AAs?$AAt?$AAr?$AAi?$AAn?$AAg?$AA?5?$AA?$CB?$AA?$DN?$AA?5?$AAN?$AAU?$AAL?$AAL?$AA?$CJ@ 00638c98     LIBCMTD:snprintf.obj
 0003:00014ce8       ??_C@_1BE@CHNFPLHD@?$AA_?$AAs?$AAn?$AAp?$AAr?$AAi?$AAn?$AAt?$AAf?$AA?$AA@ 00638ce8     LIBCMTD:snprintf.obj
 0003:00014d00       ??_C@_1BI@DCHLDCPP@?$AAs?$AAr?$AAc?$AA?5?$AA?$CB?$AA?$DN?$AA?5?$AAN?$AAU?$AAL?$AAL?$AA?$AA@ 00638d00     LIBCMTD:stricmp.obj
 0003:00014d1c       ??_C@_1BG@GLLONOEH@?$AA_?$AAs?$AAt?$AAr?$AAi?$AAc?$AAm?$AAp?$AA_?$AAl?$AA?$AA@ 00638d1c     LIBCMTD:stricmp.obj
 0003:00014d38       ??_C@_1GC@OILHAOLL@?$AAf?$AA?3?$AA?2?$AAd?$AAd?$AA?2?$AAv?$AAc?$AAt?$AAo?$AAo?$AAl?$AAs?$AA?2?$AAc?$AAr?$AAt?$AA_?$AAb?$AAl?$AAd?$AA?2?$AAs?$AAe?$AAl?$AAf?$AA_?$AAx?$AA8?$AA6?$AA?2?$AAc@ 00638d38     LIBCMTD:stricmp.obj
 0003:00014db0       ??_C@_1BI@GKKCBDMD@?$AAd?$AAs?$AAt?$AA?5?$AA?$CB?$AA?$DN?$AA?5?$AAN?$AAU?$AAL?$AAL?$AA?$AA@ 00638db0     LIBCMTD:stricmp.obj
 0003:00014dcc       ??_C@_1BC@JLGKKIIG@?$AA_?$AAs?$AAt?$AAr?$AAi?$AAc?$AAm?$AAp?$AA?$AA@ 00638dcc     LIBCMTD:stricmp.obj
 0003:00014e0c       ??_C@_1BC@KMGJCMNP@?$AAv?$AAs?$AAc?$AAa?$AAn?$AA_?$AAf?$AAn?$AA?$AA@ 00638e0c     LIBCMTD:sscanf.obj
 0003:00014e28       ??_C@_1GA@GDIHGGDN@?$AAf?$AA?3?$AA?2?$AAd?$AAd?$AA?2?$AAv?$AAc?$AAt?$AAo?$AAo?$AAl?$AAs?$AA?2?$AAc?$AAr?$AAt?$AA_?$AAb?$AAl?$AAd?$AA?2?$AAs?$AAe?$AAl?$AAf?$AA_?$AAx?$AA8?$AA6?$AA?2?$AAc@ 00638e28     LIBCMTD:sscanf.obj
 0003:00014e9c       ??_C@_17LGKOMLJ@?$AA?4?$AA?4?$AA?4?$AA?$AA@ 00638e9c     LIBCMTD:dbgrptw.obj
 0003:00014ea8       ??_C@_1CC@CGHMNGDG@?$AAA?$AAs?$AAs?$AAe?$AAr?$AAt?$AAi?$AAo?$AAn?$AA?5?$AAF?$AAa?$AAi?$AAl?$AAe?$AAd?$AA?$AA@ 00638ea8     LIBCMTD:dbgrptw.obj
 0003:00014ed0       ??_C@_1M@ILHOPKA@?$AAE?$AAr?$AAr?$AAo?$AAr?$AA?$AA@ 00638ed0     LIBCMTD:dbgrptw.obj
 0003:00014ee0       ??_C@_1BA@GLMCNLEM@?$AAW?$AAa?$AAr?$AAn?$AAi?$AAn?$AAg?$AA?$AA@ 00638ee0     LIBCMTD:dbgrptw.obj
 0003:00014f04       ??_C@_0DA@PCCBBBID@f?3?2dd?2vctools?2crt_bld?2self_x86?2c@ 00638f04     LIBCMTD:dbgrptw.obj
 0003:00014f40       ??_C@_1FI@PHIAFFHM@?$AA?$CI?$AA?$CC?$AAT?$AAh?$AAe?$AA?5?$AAh?$AAo?$AAo?$AAk?$AA?5?$AAf?$AAu?$AAn?$AAc?$AAt?$AAi?$AAo?$AAn?$AA?5?$AAi?$AAs?$AA?5?$AAn?$AAo?$AAt?$AA?5?$AAi?$AAn?$AA?5?$AAt?$AAh@ 00638f40     LIBCMTD:dbgrptw.obj
 0003:00014fac       ??_C@_1CG@JBJEFOCM@?$AAp?$AAf?$AAn?$AAN?$AAe?$AAw?$AAH?$AAo?$AAo?$AAk?$AA?5?$AA?$CB?$AA?$DN?$AA?5?$AAN?$AAU?$AAL?$AAL?$AA?$AA@ 00638fac     LIBCMTD:dbgrptw.obj
 0003:00014fdc       ??_C@_1CI@IIHEAKEI@?$AA_?$AAC?$AAr?$AAt?$AAS?$AAe?$AAt?$AAR?$AAe?$AAp?$AAo?$AAr?$AAt?$AAH?$AAo?$AAo?$AAk?$AAW?$AA2?$AA?$AA@ 00638fdc     LIBCMTD:dbgrptw.obj
 0003:00015010       ??_C@_1GA@IBJGKIFE@?$AAf?$AA?3?$AA?2?$AAd?$AAd?$AA?2?$AAv?$AAc?$AAt?$AAo?$AAo?$AAl?$AAs?$AA?2?$AAc?$AAr?$AAt?$AA_?$AAb?$AAl?$AAd?$AA?2?$AAs?$AAe?$AAl?$AAf?$AA_?$AAx?$AA8?$AA6?$AA?2?$AAc@ 00639010     LIBCMTD:dbgrptw.obj
 0003:00015088       ??_C@_1HI@OFEHGPPC@?$AAm?$AAo?$AAd?$AAe?$AA?5?$AA?$DN?$AA?$DN?$AA?5?$AA_?$AAC?$AAR?$AAT?$AA_?$AAR?$AAP?$AAT?$AAH?$AAO?$AAO?$AAK?$AA_?$AAI?$AAN?$AAS?$AAT?$AAA?$AAL?$AAL?$AA?5?$AA?$HM?$AA?$HM?$AA?5@ 00639088     LIBCMTD:dbgrptw.obj
 0003:00015118       ??_C@_1EG@PEOEAKBB@?$AAM?$AAi?$AAc?$AAr?$AAo?$AAs?$AAo?$AAf?$AAt?$AA?5?$AAV?$AAi?$AAs?$AAu?$AAa?$AAl?$AA?5?$AAC?$AA?$CL?$AA?$CL?$AA?5?$AAD?$AAe?$AAb?$AAu?$AAg?$AA?5?$AAL?$AAi?$AAb?$AAr?$AAa@ 00639118     LIBCMTD:dbgrptw.obj
 0003:00015170       ??_C@_1FG@BBOLDHGF@?$AA_?$AAC?$AAr?$AAt?$AAD?$AAb?$AAg?$AAR?$AAe?$AAp?$AAo?$AAr?$AAt?$AA?3?$AA?5?$AAS?$AAt?$AAr?$AAi?$AAn?$AAg?$AA?5?$AAt?$AAo?$AAo?$AA?5?$AAl?$AAo?$AAn?$AAg?$AA?5?$AAo@ 00639170     LIBCMTD:dbgrptw.obj
 0003:000151d8       ??_C@_1JI@EACPGHID@?$AAw?$AAc?$AAs?$AAc?$AAp?$AAy?$AA_?$AAs?$AA?$CI?$AAs?$AAz?$AAO?$AAu?$AAt?$AAM?$AAe?$AAs?$AAs?$AAa?$AAg?$AAe?$AA?0?$AA?5?$AA4?$AA0?$AA9?$AA6?$AA?0?$AA?5?$AAL?$AA?$CC?$AA_@ 006391d8     LIBCMTD:dbgrptw.obj
 0003:00015290       ??_C@_1BI@KALLJECN@?$AA?$CI?$AA?$CK?$AA_?$AAe?$AAr?$AAr?$AAn?$AAo?$AA?$CI?$AA?$CJ?$AA?$CJ?$AA?$AA@ 00639290     LIBCMTD:dbgrptw.obj
 0003:000152b0       ??_C@_1KK@MEFMPOLM@?$AAD?$AAe?$AAb?$AAu?$AAg?$AA?5?$AA?$CF?$AAs?$AA?$CB?$AA?6?$AA?6?$AAP?$AAr?$AAo?$AAg?$AAr?$AAa?$AAm?$AA?3?$AA?5?$AA?$CF?$AAs?$AA?$CF?$AAs?$AA?$CF?$AAs?$AA?$CF?$AAs?$AA?$CF?$AAs?$AA?$CF?$AAs@ 006392b0     LIBCMTD:dbgrptw.obj
 0003:0001537c       ??_C@_1BE@CGCJKGHI@?$AA?6?$AAM?$AAo?$AAd?$AAu?$AAl?$AAe?$AA?3?$AA?5?$AA?$AA@ 0063937c     LIBCMTD:dbgrptw.obj
 0003:00015394       ??_C@_1BA@LNHECFIM@?$AA?6?$AAF?$AAi?$AAl?$AAe?$AA?3?$AA?5?$AA?$AA@ 00639394     LIBCMTD:dbgrptw.obj
 0003:000153a8       ??_C@_1BA@GLLGCPCK@?$AA?6?$AAL?$AAi?$AAn?$AAe?$AA?3?$AA?5?$AA?$AA@ 006393a8     LIBCMTD:dbgrptw.obj
 0003:000153bc       ??_C@_15IABLJNFO@?$AA?6?$AA?6?$AA?$AA@ 006393bc     LIBCMTD:dbgrptw.obj
 0003:000153c4       ??_C@_1BK@PEDCIPMA@?$AAE?$AAx?$AAp?$AAr?$AAe?$AAs?$AAs?$AAi?$AAo?$AAn?$AA?3?$AA?5?$AA?$AA@ 006393c4     LIBCMTD:dbgrptw.obj
 0003:000153e4       ??_C@_11LOCGONAA@?$AA?$AA@ 006393e4     LIBCMTD:dbgrptw.obj
 0003:000153e8       ??_C@_1OG@PMPPFHAF@?$AA?6?$AA?6?$AAF?$AAo?$AAr?$AA?5?$AAi?$AAn?$AAf?$AAo?$AAr?$AAm?$AAa?$AAt?$AAi?$AAo?$AAn?$AA?5?$AAo?$AAn?$AA?5?$AAh?$AAo?$AAw?$AA?5?$AAy?$AAo?$AAu?$AAr?$AA?5?$AAp?$AAr@ 006393e8     LIBCMTD:dbgrptw.obj
 0003:00015500       ??_C@_1NO@LECLLHOL@?$AAm?$AAe?$AAm?$AAc?$AAp?$AAy?$AA_?$AAs?$AA?$CI?$AAs?$AAz?$AAS?$AAh?$AAo?$AAr?$AAt?$AAP?$AAr?$AAo?$AAg?$AAN?$AAa?$AAm?$AAe?$AA?0?$AA?5?$AAs?$AAi?$AAz?$AAe?$AAo?$AAf@ 00639500     LIBCMTD:dbgrptw.obj
 0003:0001560c       ??_C@_1CO@EAEJAADC@?$AA?$DM?$AAp?$AAr?$AAo?$AAg?$AAr?$AAa?$AAm?$AA?5?$AAn?$AAa?$AAm?$AAe?$AA?5?$AAu?$AAn?$AAk?$AAn?$AAo?$AAw?$AAn?$AA?$DO?$AA?$AA@ 0063960c     LIBCMTD:dbgrptw.obj
 0003:00015648       ??_C@_1GI@DEDNNLCI@?$AAw?$AAc?$AAs?$AAc?$AAp?$AAy?$AA_?$AAs?$AA?$CI?$AAs?$AAz?$AAE?$AAx?$AAe?$AAN?$AAa?$AAm?$AAe?$AA?0?$AA?5?$AA2?$AA6?$AA0?$AA?0?$AA?5?$AAL?$AA?$CC?$AA?$DM?$AAp?$AAr?$AAo?$AAg@ 00639648     LIBCMTD:dbgrptw.obj
 0003:000156c4       ??_C@_1CI@PGJIFDEK@?$AA_?$AA_?$AAc?$AAr?$AAt?$AAM?$AAe?$AAs?$AAs?$AAa?$AAg?$AAe?$AAW?$AAi?$AAn?$AAd?$AAo?$AAw?$AAW?$AA?$AA@ 006396c4     LIBCMTD:dbgrptw.obj
 0003:000156f8       ??_7exception@std@@6B@     006396f8     LIBCMTD:stdexcpt.obj
 0003:00015704       ??_C@_0BC@EOODALEL@Unknown?5exception?$AA@ 00639704     LIBCMTD:stdexcpt.obj
 0003:00015720       ??_7bad_cast@std@@6B@      00639720     LIBCMTD:stdexcpt.obj
 0003:00015730       ??_7bad_typeid@std@@6B@    00639730     LIBCMTD:stdexcpt.obj
 0003:00015740       ??_7__non_rtti_object@std@@6B@ 00639740     LIBCMTD:stdexcpt.obj
 0003:0001574c       ??_C@_13LBAGMAIH@?$AA?6?$AA?$AA@ 0063974c     LIBCMTD:wassert.obj
 0003:00015750       ??_C@_1EK@MBDPDCGA@?$AAM?$AAi?$AAc?$AAr?$AAo?$AAs?$AAo?$AAf?$AAt?$AA?5?$AAV?$AAi?$AAs?$AAu?$AAa?$AAl?$AA?5?$AAC?$AA?$CL?$AA?$CL?$AA?5?$AAR?$AAu?$AAn?$AAt?$AAi?$AAm?$AAe?$AA?5?$AAL?$AAi?$AAb@ 00639750     LIBCMTD:wassert.obj
 0003:000157a8       ??_C@_1HK@POCJMFGK@?$AA?$CI?$AAP?$AAr?$AAe?$AAs?$AAs?$AA?5?$AAR?$AAe?$AAt?$AAr?$AAy?$AA?5?$AAt?$AAo?$AA?5?$AAd?$AAe?$AAb?$AAu?$AAg?$AA?5?$AAt?$AAh?$AAe?$AA?5?$AAa?$AAp?$AAp?$AAl?$AAi?$AAc@ 006397a8     LIBCMTD:wassert.obj
 0003:00015840       ??_C@_1LO@HBAMOOPN@?$AAw?$AAc?$AAs?$AAc?$AAa?$AAt?$AA_?$AAs?$AA?$CI?$AAa?$AAs?$AAs?$AAe?$AAr?$AAt?$AAb?$AAu?$AAf?$AA?0?$AA?5?$AA?$CI?$AA6?$AA0?$AA?5?$AA?$CK?$AA?5?$AA9?$AA?$CJ?$AA?0?$AA?5?$AAL?$AA?$CC@ 00639840     LIBCMTD:wassert.obj
 0003:00015928       ??_C@_1FG@GMPCGFKH@?$AAw?$AAc?$AAs?$AAc?$AAa?$AAt?$AA_?$AAs?$AA?$CI?$AAa?$AAs?$AAs?$AAe?$AAr?$AAt?$AAb?$AAu?$AAf?$AA?0?$AA?5?$AA?$CI?$AA6?$AA0?$AA?5?$AA?$CK?$AA?5?$AA9?$AA?$CJ?$AA?0?$AA?5?$AAd?$AAb@ 00639928     LIBCMTD:wassert.obj
 0003:00015990       ??_C@_1OA@EGMLFBHJ@?$AAF?$AAo?$AAr?$AA?5?$AAi?$AAn?$AAf?$AAo?$AAr?$AAm?$AAa?$AAt?$AAi?$AAo?$AAn?$AA?5?$AAo?$AAn?$AA?5?$AAh?$AAo?$AAw?$AA?5?$AAy?$AAo?$AAu?$AAr?$AA?5?$AAp?$AAr?$AAo?$AAg@ 00639990     LIBCMTD:wassert.obj
 0003:00015aa0       ??_C@_1BCO@FMFFDPPF@?$AAw?$AAc?$AAs?$AAc?$AAa?$AAt?$AA_?$AAs?$AA?$CI?$AAa?$AAs?$AAs?$AAe?$AAr?$AAt?$AAb?$AAu?$AAf?$AA?0?$AA?5?$AA?$CI?$AA6?$AA0?$AA?5?$AA?$CK?$AA?5?$AA9?$AA?$CJ?$AA?0?$AA?5?$AAL?$AA?$CC@ 00639aa0     LIBCMTD:wassert.obj
 0003:00015c10       ??_C@_1EM@MBEKCGIC@?$AAw?$AAc?$AAs?$AAc?$AAa?$AAt?$AA_?$AAs?$AA?$CI?$AA?5?$AAa?$AAs?$AAs?$AAe?$AAr?$AAt?$AAb?$AAu?$AAf?$AA?0?$AA?5?$AA?$CI?$AA6?$AA0?$AA?5?$AA?$CK?$AA?5?$AA9?$AA?$CJ?$AA?0?$AA?5?$AAe@ 00639c10     LIBCMTD:wassert.obj
 0003:00015c70       ??_C@_1CHM@CEIMNDLH@?$AAw?$AAc?$AAs?$AAn?$AAc?$AAa?$AAt?$AA_?$AAs?$AA?$CI?$AA?5?$AAa?$AAs?$AAs?$AAe?$AAr?$AAt?$AAb?$AAu?$AAf?$AA?0?$AA?5?$AA?$CI?$AA6?$AA0?$AA?5?$AA?$CK?$AA?5?$AA9?$AA?$CJ?$AA?0?$AA?5@ 00639c70     LIBCMTD:wassert.obj
 0003:00015f70       ??_C@_1GC@HOBBPFHJ@?$AAw?$AAc?$AAs?$AAc?$AAa?$AAt?$AA_?$AAs?$AA?$CI?$AA?5?$AAa?$AAs?$AAs?$AAe?$AAr?$AAt?$AAb?$AAu?$AAf?$AA?0?$AA?5?$AA?$CI?$AA6?$AA0?$AA?5?$AA?$CK?$AA?5?$AA9?$AA?$CJ?$AA?0?$AA?5?$AAL@ 00639f70     LIBCMTD:wassert.obj
 0003:00015fe8       ??_C@_1KG@CFEIMPNH@?$AA_?$AAi?$AAt?$AAo?$AAw?$AA_?$AAs?$AA?$CI?$AA?5?$AAl?$AAi?$AAn?$AAe?$AAn?$AAo?$AA?0?$AA?5?$AAa?$AAs?$AAs?$AAe?$AAr?$AAt?$AAb?$AAu?$AAf?$AA?5?$AA?$CL?$AA?5?$AAw?$AAc?$AAs@ 00639fe8     LIBCMTD:wassert.obj
 0003:000160b0       ??_C@_1O@KCAFKHJE@?$AAL?$AAi?$AAn?$AAe?$AA?3?$AA?5?$AA?$AA@ 0063a0b0     LIBCMTD:wassert.obj
 0003:000160c0       ??_C@_1FG@NHDGJLMI@?$AAw?$AAc?$AAs?$AAc?$AAa?$AAt?$AA_?$AAs?$AA?$CI?$AA?5?$AAa?$AAs?$AAs?$AAe?$AAr?$AAt?$AAb?$AAu?$AAf?$AA?0?$AA?5?$AA?$CI?$AA6?$AA0?$AA?5?$AA?$CK?$AA?5?$AA9?$AA?$CJ?$AA?0?$AA?5?$AAL@ 0063a0c0     LIBCMTD:wassert.obj
 0003:00016128       ??_C@_1FE@IIFBBPFI@?$AAw?$AAc?$AAs?$AAc?$AAa?$AAt?$AA_?$AAs?$AA?$CI?$AA?5?$AAa?$AAs?$AAs?$AAe?$AAr?$AAt?$AAb?$AAu?$AAf?$AA?0?$AA?5?$AA?$CI?$AA6?$AA0?$AA?5?$AA?$CK?$AA?5?$AA9?$AA?$CJ?$AA?0?$AA?5?$AAf@ 0063a128     LIBCMTD:wassert.obj
 0003:00016190       ??_C@_1IC@CFFJBMAD@?$AAw?$AAc?$AAs?$AAc?$AAa?$AAt?$AA_?$AAs?$AA?$CI?$AA?5?$AAa?$AAs?$AAs?$AAe?$AAr?$AAt?$AAb?$AAu?$AAf?$AA?0?$AA?5?$AA?$CI?$AA6?$AA0?$AA?5?$AA?$CK?$AA?5?$AA9?$AA?$CJ?$AA?0?$AA?5?$AAp@ 0063a190     LIBCMTD:wassert.obj
 0003:00016230       ??_C@_1HG@OJJMBIKO@?$AAw?$AAc?$AAs?$AAn?$AAc?$AAa?$AAt?$AA_?$AAs?$AA?$CI?$AA?5?$AAa?$AAs?$AAs?$AAe?$AAr?$AAt?$AAb?$AAu?$AAf?$AA?0?$AA?5?$AA?$CI?$AA6?$AA0?$AA?5?$AA?$CK?$AA?5?$AA9?$AA?$CJ?$AA?0?$AA?5@ 0063a230     LIBCMTD:wassert.obj
 0003:000162c0       ??_C@_1GO@BIHLMMND@?$AAw?$AAc?$AAs?$AAn?$AAc?$AAa?$AAt?$AA_?$AAs?$AA?$CI?$AA?5?$AAa?$AAs?$AAs?$AAe?$AAr?$AAt?$AAb?$AAu?$AAf?$AA?0?$AA?5?$AA?$CI?$AA6?$AA0?$AA?5?$AA?$CK?$AA?5?$AA9?$AA?$CJ?$AA?0?$AA?5@ 0063a2c0     LIBCMTD:wassert.obj
 0003:00016348       ??_C@_1FO@IJLLDBEB@?$AAw?$AAc?$AAs?$AAc?$AAa?$AAt?$AA_?$AAs?$AA?$CI?$AA?5?$AAa?$AAs?$AAs?$AAe?$AAr?$AAt?$AAb?$AAu?$AAf?$AA?0?$AA?5?$AA?$CI?$AA6?$AA0?$AA?5?$AA?$CK?$AA?5?$AA9?$AA?$CJ?$AA?0?$AA?5?$AAp@ 0063a348     LIBCMTD:wassert.obj
 0003:000163b8       ??_C@_1FG@CLEECKIJ@?$AAw?$AAc?$AAs?$AAc?$AAa?$AAt?$AA_?$AAs?$AA?$CI?$AA?5?$AAa?$AAs?$AAs?$AAe?$AAr?$AAt?$AAb?$AAu?$AAf?$AA?0?$AA?5?$AA?$CI?$AA6?$AA0?$AA?5?$AA?$CK?$AA?5?$AA9?$AA?$CJ?$AA?0?$AA?5?$AAd@ 0063a3b8     LIBCMTD:wassert.obj
 0003:00016420       ??_C@_1GG@PMHOPJKA@?$AAw?$AAc?$AAs?$AAn?$AAc?$AAa?$AAt?$AA_?$AAs?$AA?$CI?$AA?5?$AAa?$AAs?$AAs?$AAe?$AAr?$AAt?$AAb?$AAu?$AAf?$AA?0?$AA?5?$AA?$CI?$AA6?$AA0?$AA?5?$AA?$CK?$AA?5?$AA9?$AA?$CJ?$AA?0?$AA?5@ 0063a420     LIBCMTD:wassert.obj
 0003:0001649c       ??_C@_1O@HEMHKNDC@?$AAF?$AAi?$AAl?$AAe?$AA?3?$AA?5?$AA?$AA@ 0063a49c     LIBCMTD:wassert.obj
 0003:000164b0       ??_C@_1FG@HIDBOJF@?$AAw?$AAc?$AAs?$AAc?$AAa?$AAt?$AA_?$AAs?$AA?$CI?$AA?5?$AAa?$AAs?$AAs?$AAe?$AAr?$AAt?$AAb?$AAu?$AAf?$AA?0?$AA?5?$AA?$CI?$AA6?$AA0?$AA?5?$AA?$CK?$AA?5?$AA9?$AA?$CJ?$AA?0?$AA?5?$AAL@ 0063a4b0     LIBCMTD:wassert.obj
 0003:00016518       ??_C@_1FC@FFKGGIKO@?$AAw?$AAc?$AAs?$AAc?$AAa?$AAt?$AA_?$AAs?$AA?$CI?$AA?5?$AAa?$AAs?$AAs?$AAe?$AAr?$AAt?$AAb?$AAu?$AAf?$AA?0?$AA?5?$AA?$CI?$AA6?$AA0?$AA?5?$AA?$CK?$AA?5?$AA9?$AA?$CJ?$AA?0?$AA?5?$AAn@ 0063a518     LIBCMTD:wassert.obj
 0003:00016580       ??_C@_1EK@BDNABPEK@?$AAw?$AAc?$AAs?$AAc?$AAa?$AAt?$AA_?$AAs?$AA?$CI?$AA?5?$AAa?$AAs?$AAs?$AAe?$AAr?$AAt?$AAb?$AAu?$AAf?$AA?0?$AA?5?$AA?$CI?$AA6?$AA0?$AA?5?$AA?$CK?$AA?5?$AA9?$AA?$CJ?$AA?0?$AA?5?$AAp@ 0063a580     LIBCMTD:wassert.obj
 0003:000165d8       ??_C@_1HK@JKBDGMGN@?$AAw?$AAc?$AAs?$AAn?$AAc?$AAp?$AAy?$AA_?$AAs?$AA?$CI?$AA?5?$AAp?$AAc?$AAh?$AA?0?$AA?5?$AA?$CI?$AA2?$AA6?$AA0?$AA?5?$AA?$CL?$AA?5?$AA1?$AA?$CJ?$AA?5?$AA?9?$AA?5?$AA?$CI?$AAp?$AAc?$AAh@ 0063a5d8     LIBCMTD:wassert.obj
 0003:00016670       ??_C@_1HA@EPFCONEE@?$AAw?$AAc?$AAs?$AAc?$AAp?$AAy?$AA_?$AAs?$AA?$CI?$AA?5?$AAp?$AAr?$AAo?$AAg?$AAn?$AAa?$AAm?$AAe?$AA?0?$AA?5?$AA2?$AA6?$AA0?$AA?5?$AA?$CL?$AA?5?$AA1?$AA?0?$AA?5?$AAL?$AA?$CC?$AA?$DM@ 0063a670     LIBCMTD:wassert.obj
 0003:000166f8       ??_C@_1BE@PHKBBGE@?$AAP?$AAr?$AAo?$AAg?$AAr?$AAa?$AAm?$AA?3?$AA?5?$AA?$AA@ 0063a6f8     LIBCMTD:wassert.obj
 0003:00016710       ??_C@_1FM@LKICECBD@?$AAw?$AAc?$AAs?$AAc?$AAa?$AAt?$AA_?$AAs?$AA?$CI?$AA?5?$AAa?$AAs?$AAs?$AAe?$AAr?$AAt?$AAb?$AAu?$AAf?$AA?0?$AA?5?$AA?$CI?$AA6?$AA0?$AA?5?$AA?$CK?$AA?5?$AA9?$AA?$CJ?$AA?0?$AA?5?$AAL@ 0063a710     LIBCMTD:wassert.obj
 0003:00016780       ??_C@_1FI@JIGMFG@?$AAw?$AAc?$AAs?$AAc?$AAa?$AAt?$AA_?$AAs?$AA?$CI?$AA?5?$AAa?$AAs?$AAs?$AAe?$AAr?$AAt?$AAb?$AAu?$AAf?$AA?0?$AA?5?$AA?$CI?$AA6?$AA0?$AA?5?$AA?$CK?$AA?5?$AA9?$AA?$CJ?$AA?0?$AA?5?$AAd@ 0063a780     LIBCMTD:wassert.obj
 0003:000167ec       ??_C@_1CE@OJBNHDMO@?$AAA?$AAs?$AAs?$AAe?$AAr?$AAt?$AAi?$AAo?$AAn?$AA?5?$AAf?$AAa?$AAi?$AAl?$AAe?$AAd?$AA?$CB?$AA?$AA@ 0063a7ec     LIBCMTD:wassert.obj
 0003:00016818       ??_C@_1GM@EFCJNBAA@?$AAw?$AAc?$AAs?$AAc?$AAp?$AAy?$AA_?$AAs?$AA?$CI?$AA?5?$AAa?$AAs?$AAs?$AAe?$AAr?$AAt?$AAb?$AAu?$AAf?$AA?0?$AA?5?$AA?$CI?$AA6?$AA0?$AA?5?$AA?$CK?$AA?5?$AA9?$AA?$CJ?$AA?0?$AA?5?$AAL@ 0063a818     LIBCMTD:wassert.obj
 0003:0001689c       ??_C@_1BC@LNOOMFNA@?$AA_?$AAw?$AAa?$AAs?$AAs?$AAe?$AAr?$AAt?$AA?$AA@ 0063a89c     LIBCMTD:wassert.obj
 0003:000168b8       ??_C@_1GA@COEIABIF@?$AAf?$AA?3?$AA?2?$AAd?$AAd?$AA?2?$AAv?$AAc?$AAt?$AAo?$AAo?$AAl?$AAs?$AA?2?$AAc?$AAr?$AAt?$AA_?$AAb?$AAl?$AAd?$AA?2?$AAs?$AAe?$AAl?$AAf?$AA_?$AAx?$AA8?$AA6?$AA?2?$AAc@ 0063a8b8     LIBCMTD:wassert.obj
 0003:0001692c       ??_C@_1DM@MADKGDLO@?$AA?$CI?$AAL?$AA?$CC?$AAB?$AAu?$AAf?$AAf?$AAe?$AAr?$AA?5?$AAi?$AAs?$AA?5?$AAt?$AAo?$AAo?$AA?5?$AAs?$AAm?$AAa?$AAl?$AAl?$AA?$CC?$AA?5?$AA?$CG?$AA?$CG?$AA?5?$AA0?$AA?$CJ?$AA?$AA@ 0063a92c     LIBCMTD:strcpy_s.obj
 0003:00016974       ??_C@_1CI@HCPHDDLE@?$AAB?$AAu?$AAf?$AAf?$AAe?$AAr?$AA?5?$AAi?$AAs?$AA?5?$AAt?$AAo?$AAo?$AA?5?$AAs?$AAm?$AAa?$AAl?$AAl?$AA?$AA@ 0063a974     LIBCMTD:strcpy_s.obj
 0003:000169a4       ??_C@_1CG@OFBJMIGJ@?$AA?$CI?$AA?$CI?$AA?$CI?$AA_?$AAS?$AAr?$AAc?$AA?$CJ?$AA?$CJ?$AA?$CJ?$AA?5?$AA?$CB?$AA?$DN?$AA?5?$AAN?$AAU?$AAL?$AAL?$AA?$AA@ 0063a9a4     LIBCMTD:strcpy_s.obj
 0003:000169d4       ??_C@_1BC@CFJEPFGF@?$AAs?$AAt?$AAr?$AAc?$AAp?$AAy?$AA_?$AAs?$AA?$AA@ 0063a9d4     LIBCMTD:strcpy_s.obj
 0003:000169f0       ??_C@_1GI@BGBNCIMA@?$AAf?$AA?3?$AA?2?$AAd?$AAd?$AA?2?$AAv?$AAc?$AAt?$AAo?$AAo?$AAl?$AAs?$AA?2?$AAc?$AAr?$AAt?$AA_?$AAb?$AAl?$AAd?$AA?2?$AAs?$AAe?$AAl?$AAf?$AA_?$AAx?$AA8?$AA6?$AA?2?$AAc@ 0063a9f0     LIBCMTD:strcpy_s.obj
 0003:00016a70       ??_C@_1FC@NCPEPIBI@?$AA?$CI?$AA?$CI?$AA_?$AAD?$AAs?$AAt?$AA?$CJ?$AA?$CJ?$AA?5?$AA?$CB?$AA?$DN?$AA?5?$AAN?$AAU?$AAL?$AAL?$AA?5?$AA?$CG?$AA?$CG?$AA?5?$AA?$CI?$AA?$CI?$AA_?$AAS?$AAi?$AAz?$AAe?$AAI?$AAn?$AAB?$AAy?$AAt@ 0063aa70     LIBCMTD:strcpy_s.obj
 0003:00016ad4       ??_C@_03KHICJKCI@?4?4?4?$AA@ 0063aad4     LIBCMTD:dbgrpt.obj
 0003:00016ad8       ??_C@_0BB@NAGLCMLI@Assertion?5Failed?$AA@ 0063aad8     LIBCMTD:dbgrpt.obj
 0003:00016aec       ??_C@_05NAOIJFC@Error?$AA@ 0063aaec     LIBCMTD:dbgrpt.obj
 0003:00016af4       ??_C@_07KGMMFLDN@Warning?$AA@ 0063aaf4     LIBCMTD:dbgrpt.obj
 0003:00016b10       ??_C@_1CG@GNMJDMIO@?$AA_?$AAC?$AAr?$AAt?$AAS?$AAe?$AAt?$AAR?$AAe?$AAp?$AAo?$AAr?$AAt?$AAH?$AAo?$AAo?$AAk?$AA2?$AA?$AA@ 0063ab10     LIBCMTD:dbgrpt.obj
 0003:00016b40       ??_C@_0CD@EBCGLDDL@Microsoft?5Visual?5C?$CL?$CL?5Debug?5Libra@ 0063ab40     LIBCMTD:dbgrpt.obj
 0003:00016b6c       ??_C@_0CL@EACFGMNB@_CrtDbgReport?3?5String?5too?5long?5o@ 0063ab6c     LIBCMTD:dbgrpt.obj
 0003:00016ba0       ??_C@_1JG@CPKCIOEE@?$AAs?$AAt?$AAr?$AAc?$AAp?$AAy?$AA_?$AAs?$AA?$CI?$AAs?$AAz?$AAO?$AAu?$AAt?$AAM?$AAe?$AAs?$AAs?$AAa?$AAg?$AAe?$AA?0?$AA?5?$AA4?$AA0?$AA9?$AA6?$AA?0?$AA?5?$AA?$CC?$AA_?$AAC@ 0063aba0     LIBCMTD:dbgrpt.obj
 0003:00016c58       ??_C@_0FF@CCONDJCB@Debug?5?$CFs?$CB?6?6Program?3?5?$CFs?$CFs?$CFs?$CFs?$CFs?$CFs@ 0063ac58     LIBCMTD:dbgrpt.obj
 0003:00016cc0       ??_C@_09OFBFHMBK@?6Module?3?5?$AA@ 0063acc0     LIBCMTD:dbgrpt.obj
 0003:00016ccc       ??_C@_07OPHPPLBG@?6File?3?5?$AA@ 0063accc     LIBCMTD:dbgrpt.obj
 0003:00016cd8       ??_C@_07DBMPPHDI@?6Line?3?5?$AA@ 0063acd8     LIBCMTD:dbgrpt.obj
 0003:00016ce4       ??_C@_02PHMGELLB@?6?6?$AA@ 0063ace4     LIBCMTD:dbgrpt.obj
 0003:00016ce8       ??_C@_0N@MEECIJGN@Expression?3?5?$AA@ 0063ace8     LIBCMTD:dbgrpt.obj
 0003:00016cf8       ??_C@_0HD@GNBNFCCL@?6?6For?5information?5on?5how?5your?5pr@ 0063acf8     LIBCMTD:dbgrpt.obj
 0003:00016d84       ??_C@_0BH@DNAGHKFM@?$DMprogram?5name?5unknown?$DO?$AA@ 0063ad84     LIBCMTD:dbgrpt.obj
 0003:00016da0       ??_C@_1GG@DLDHOIGE@?$AAs?$AAt?$AAr?$AAc?$AAp?$AAy?$AA_?$AAs?$AA?$CI?$AAs?$AAz?$AAE?$AAx?$AAe?$AAN?$AAa?$AAm?$AAe?$AA?0?$AA?5?$AA2?$AA6?$AA0?$AA?0?$AA?5?$AA?$CC?$AA?$DM?$AAp?$AAr?$AAo?$AAg?$AAr@ 0063ada0     LIBCMTD:dbgrpt.obj
 0003:00016e1c       ??_C@_1CI@IDOKFLAJ@?$AA_?$AA_?$AAc?$AAr?$AAt?$AAM?$AAe?$AAs?$AAs?$AAa?$AAg?$AAe?$AAW?$AAi?$AAn?$AAd?$AAo?$AAw?$AAA?$AA?$AA@ 0063ae1c     LIBCMTD:dbgrpt.obj
 0003:00016e4c       ??_C@_1CC@JLPHKJPH@?$AAc?$AAo?$AAu?$AAn?$AAt?$AA?5?$AA?$DM?$AA?$DN?$AA?5?$AAI?$AAN?$AAT?$AA_?$AAM?$AAA?$AAX?$AA?$AA@ 0063ae4c     LIBCMTD:strnicmp.obj
 0003:00016e74       ??_C@_1BI@BJLEPLEF@?$AA_?$AAs?$AAt?$AAr?$AAn?$AAi?$AAc?$AAm?$AAp?$AA_?$AAl?$AA?$AA@ 0063ae74     LIBCMTD:strnicmp.obj
 0003:00016e90       ??_C@_1GE@CONPOJMA@?$AAf?$AA?3?$AA?2?$AAd?$AAd?$AA?2?$AAv?$AAc?$AAt?$AAo?$AAo?$AAl?$AAs?$AA?2?$AAc?$AAr?$AAt?$AA_?$AAb?$AAl?$AAd?$AA?2?$AAs?$AAe?$AAl?$AAf?$AA_?$AAx?$AA8?$AA6?$AA?2?$AAc@ 0063ae90     LIBCMTD:strnicmp.obj
 0003:00016f08       ??_C@_1BE@BHJDFFNA@?$AA_?$AAs?$AAt?$AAr?$AAn?$AAi?$AAc?$AAm?$AAp?$AA?$AA@ 0063af08     LIBCMTD:strnicmp.obj
 0003:00016f20       ??_C@_1BG@JBLBIELB@?$AA_?$AAm?$AAb?$AAs?$AAr?$AAc?$AAh?$AAr?$AA_?$AAl?$AA?$AA@ 0063af20     LIBCMTD:mbsrchr.obj
 0003:00016f40       ??_C@_1GC@BCLIFEEN@?$AAf?$AA?3?$AA?2?$AAd?$AAd?$AA?2?$AAv?$AAc?$AAt?$AAo?$AAo?$AAl?$AAs?$AA?2?$AAc?$AAr?$AAt?$AA_?$AAb?$AAl?$AAd?$AA?2?$AAs?$AAe?$AAl?$AAf?$AA_?$AAx?$AA8?$AA6?$AA?2?$AAc@ 0063af40     LIBCMTD:mbsrchr.obj
 0003:00016fb8       ??_C@_1BI@MFCLPIBM@?$AAs?$AAt?$AAr?$AA?5?$AA?$CB?$AA?$DN?$AA?5?$AAN?$AAU?$AAL?$AAL?$AA?$AA@ 0063afb8     LIBCMTD:mbsrchr.obj
 0003:00016fd4       __FPinit                   0063afd4     LIBCMTD:_fpinit_.obj
 0003:00016fd8       ??_C@_1CK@EJMACHNH@?$AA?$CI?$AA?5?$AAs?$AAi?$AAz?$AAe?$AAI?$AAn?$AAC?$AAh?$AAa?$AAr?$AAs?$AA?5?$AA?$DO?$AA?$DN?$AA?5?$AA9?$AA?5?$AA?$CJ?$AA?$AA@ 0063afd8     LIBCMTD:strtime.obj
 0003:0001700c       ??_C@_1BG@GMOAACJH@?$AA_?$AAs?$AAt?$AAr?$AAt?$AAi?$AAm?$AAe?$AA_?$AAs?$AA?$AA@ 0063b00c     LIBCMTD:strtime.obj
 0003:00017028       ??_C@_1GC@OHJDJFKC@?$AAf?$AA?3?$AA?2?$AAd?$AAd?$AA?2?$AAv?$AAc?$AAt?$AAo?$AAo?$AAl?$AAs?$AA?2?$AAc?$AAr?$AAt?$AA_?$AAb?$AAl?$AAd?$AA?2?$AAs?$AAe?$AAl?$AAf?$AA_?$AAx?$AA8?$AA6?$AA?2?$AAc@ 0063b028     LIBCMTD:strtime.obj
 0003:000170a0       ??_C@_1EM@GNJBJFJJ@?$AA?$CI?$AA?5?$AAb?$AAu?$AAf?$AAf?$AAe?$AAr?$AA?5?$AA?$CB?$AA?$DN?$AA?5?$AAN?$AAU?$AAL?$AAL?$AA?5?$AA?$CG?$AA?$CG?$AA?5?$AAs?$AAi?$AAz?$AAe?$AAI?$AAn?$AAC?$AAh?$AAa?$AAr?$AAs?$AA?5@ 0063b0a0     LIBCMTD:strtime.obj
 0003:000170fc       ??_C@_1CG@GLMCLJFL@?$AA?$CI?$AAs?$AAi?$AAz?$AAe?$AAI?$AAn?$AAC?$AAh?$AAa?$AAr?$AAs?$AA?5?$AA?$DO?$AA?$DN?$AA?5?$AA9?$AA?$CJ?$AA?$AA@ 0063b0fc     LIBCMTD:strdate.obj
 0003:0001712c       ??_C@_1BG@NHOFOCCH@?$AA_?$AAs?$AAt?$AAr?$AAd?$AAa?$AAt?$AAe?$AA_?$AAs?$AA?$AA@ 0063b12c     LIBCMTD:strdate.obj
 0003:00017148       ??_C@_1GC@FMJGHFBC@?$AAf?$AA?3?$AA?2?$AAd?$AAd?$AA?2?$AAv?$AAc?$AAt?$AAo?$AAo?$AAl?$AAs?$AA?2?$AAc?$AAr?$AAt?$AA_?$AAb?$AAl?$AAd?$AA?2?$AAs?$AAe?$AAl?$AAf?$AA_?$AAx?$AA8?$AA6?$AA?2?$AAc@ 0063b148     LIBCMTD:strdate.obj
 0003:000171c0       ??_C@_1EA@GEPBEDLJ@?$AAs?$AAt?$AAr?$AAn?$AAc?$AAp?$AAy?$AA_?$AAs?$AA?$CI?$AAt?$AAz?$AAn?$AAa?$AAm?$AAe?$AA?$FL?$AA1?$AA?$FN?$AA?0?$AA?5?$AA6?$AA4?$AA?0?$AA?5?$AAT?$AAZ?$AA?0?$AA?5?$AA3?$AA?$CJ?$AA?$AA@ 0063b1c0     LIBCMTD:tzset.obj
 0003:00017210       ??_C@_1EA@FIJBKALB@?$AAs?$AAt?$AAr?$AAn?$AAc?$AAp?$AAy?$AA_?$AAs?$AA?$CI?$AAt?$AAz?$AAn?$AAa?$AAm?$AAe?$AA?$FL?$AA0?$AA?$FN?$AA?0?$AA?5?$AA6?$AA4?$AA?0?$AA?5?$AAT?$AAZ?$AA?0?$AA?5?$AA3?$AA?$CJ?$AA?$AA@ 0063b210     LIBCMTD:tzset.obj
 0003:00017260       ??_C@_1EK@MCAIMDPB@?$AAs?$AAt?$AAr?$AAc?$AAp?$AAy?$AA_?$AAs?$AA?$CI?$AAl?$AAa?$AAs?$AAt?$AAT?$AAZ?$AA?0?$AA?5?$AAs?$AAt?$AAr?$AAl?$AAe?$AAn?$AA?$CI?$AAT?$AAZ?$AA?$CJ?$AA?5?$AA?$CL?$AA?5?$AA1?$AA?0@ 0063b260     LIBCMTD:tzset.obj
 0003:000172b8       ??_C@_0CP@FODJBIFF@f?3?2dd?2vctools?2crt_bld?2self_x86?2c@ 0063b2b8     LIBCMTD:tzset.obj
 0003:000172f0       ??_C@_02CLFPBFFP@TZ?$AA@   0063b2f0     LIBCMTD:tzset.obj
 0003:000172f4       ??_C@_1CO@IMMOMMCB@?$AA_?$AAg?$AAe?$AAt?$AA_?$AAd?$AAs?$AAt?$AAb?$AAi?$AAa?$AAs?$AA?$CI?$AA?$CG?$AAd?$AAs?$AAt?$AAb?$AAi?$AAa?$AAs?$AA?$CJ?$AA?$AA@ 0063b2f4     LIBCMTD:tzset.obj
 0003:0001732c       ??_C@_1DC@MEHEMOPB@?$AA_?$AAg?$AAe?$AAt?$AA_?$AAd?$AAa?$AAy?$AAl?$AAi?$AAg?$AAh?$AAt?$AA?$CI?$AA?$CG?$AAd?$AAa?$AAy?$AAl?$AAi?$AAg?$AAh?$AAt?$AA?$CJ?$AA?$AA@ 0063b32c     LIBCMTD:tzset.obj
 0003:00017368       ??_C@_1DC@CMKCHHFC@?$AA_?$AAg?$AAe?$AAt?$AA_?$AAt?$AAi?$AAm?$AAe?$AAz?$AAo?$AAn?$AAe?$AA?$CI?$AA?$CG?$AAt?$AAi?$AAm?$AAe?$AAz?$AAo?$AAn?$AAe?$AA?$CJ?$AA?$AA@ 0063b368     LIBCMTD:tzset.obj
 0003:000173a4       ??_C@_1BM@IIODHMJC@?$AA_?$AAt?$AAz?$AAs?$AAe?$AAt?$AA_?$AAn?$AAo?$AAl?$AAo?$AAc?$AAk?$AA?$AA@ 0063b3a4     LIBCMTD:tzset.obj
 0003:000173c8       ??_C@_1FO@MLHAIHAB@?$AAf?$AA?3?$AA?2?$AAd?$AAd?$AA?2?$AAv?$AAc?$AAt?$AAo?$AAo?$AAl?$AAs?$AA?2?$AAc?$AAr?$AAt?$AA_?$AAb?$AAl?$AAd?$AA?2?$AAs?$AAe?$AAl?$AAf?$AA_?$AAx?$AA8?$AA6?$AA?2?$AAc@ 0063b3c8     LIBCMTD:tzset.obj
 0003:00017438       ??_C@_1CA@GOLIIEDM@?$AA_?$AAi?$AAs?$AAi?$AAn?$AAd?$AAs?$AAt?$AA_?$AAn?$AAo?$AAl?$AAo?$AAc?$AAk?$AA?$AA@ 0063b438     LIBCMTD:tzset.obj
 0003:00017460       ??_C@_1BA@GOCKIDGO@?$AAc?$AAv?$AAt?$AAd?$AAa?$AAt?$AAe?$AA?$AA@ 0063b460     LIBCMTD:tzset.obj
 0003:00017474       ??_C@_1BE@JKKFLIKJ@?$AA_?$AAm?$AAb?$AAs?$AAc?$AAh?$AAr?$AA_?$AAl?$AA?$AA@ 0063b474     LIBCMTD:mbschr.obj
 0003:00017490       ??_C@_1GA@GDCAGKMG@?$AAf?$AA?3?$AA?2?$AAd?$AAd?$AA?2?$AAv?$AAc?$AAt?$AAo?$AAo?$AAl?$AAs?$AA?2?$AAc?$AAr?$AAt?$AA_?$AAb?$AAl?$AAd?$AA?2?$AAs?$AAe?$AAl?$AAf?$AA_?$AAx?$AA8?$AA6?$AA?2?$AAc@ 0063b490     LIBCMTD:mbschr.obj
 0003:00017504       ??_C@_1BO@JIBAMMGI@?$AAs?$AAt?$AAr?$AAi?$AAn?$AAg?$AA?5?$AA?$CB?$AA?$DN?$AA?5?$AAN?$AAU?$AAL?$AAL?$AA?$AA@ 0063b504     LIBCMTD:mbschr.obj
 0003:00017528       ??_C@_1BE@NDMJHJJG@?$AAs?$AAt?$AAr?$AAn?$AAc?$AAp?$AAy?$AA_?$AAs?$AA?$AA@ 0063b528     LIBCMTD:strncpy_s.obj
 0003:00017540       ??_C@_1GK@PAJJBKJF@?$AAf?$AA?3?$AA?2?$AAd?$AAd?$AA?2?$AAv?$AAc?$AAt?$AAo?$AAo?$AAl?$AAs?$AA?2?$AAc?$AAr?$AAt?$AA_?$AAb?$AAl?$AAd?$AA?2?$AAs?$AAe?$AAl?$AAf?$AA_?$AAx?$AA8?$AA6?$AA?2?$AAc@ 0063b540     LIBCMTD:strncpy_s.obj
 0003:000175c0       ??_C@_1O@GKDHFACN@?$AAp?$AAr?$AAi?$AAn?$AAt?$AAf?$AA?$AA@ 0063b5c0     LIBCMTD:printf.obj
 0003:000175d0       ??_C@_1GA@LHEGHOAF@?$AAf?$AA?3?$AA?2?$AAd?$AAd?$AA?2?$AAv?$AAc?$AAt?$AAo?$AAo?$AAl?$AAs?$AA?2?$AAc?$AAr?$AAt?$AA_?$AAb?$AAl?$AAd?$AA?2?$AAs?$AAe?$AAl?$AAf?$AA_?$AAx?$AA8?$AA6?$AA?2?$AAc@ 0063b5d0     LIBCMTD:printf.obj
 0003:00017644       ??_C@_1CI@KEDPFCAL@?$AA?$CI?$AA?$CK?$AAm?$AAo?$AAd?$AAe?$AA?5?$AA?$DN?$AA?$DN?$AA?5?$AA_?$AAT?$AA?$CI?$AA?8?$AA?2?$AA0?$AA?8?$AA?$CJ?$AA?$CJ?$AA?$AA@ 0063b644     LIBCMTD:fdopen.obj
 0003:00017674       ??_C@_1DK@PKMJBLLN@?$AA?$CI?$AA?$CC?$AAI?$AAn?$AAv?$AAa?$AAl?$AAi?$AAd?$AA?5?$AAf?$AAi?$AAl?$AAe?$AA?5?$AAo?$AAp?$AAe?$AAn?$AA?5?$AAm?$AAo?$AAd?$AAe?$AA?$CC?$AA?0?$AA0?$AA?$CJ?$AA?$AA@ 0063b674     LIBCMTD:fdopen.obj
 0003:000176bc       ??_C@_1DG@LNNHNFHJ@?$AA?$CI?$AA_?$AAo?$AAs?$AAf?$AAi?$AAl?$AAe?$AA?$CI?$AAf?$AAi?$AAl?$AAe?$AAd?$AAe?$AAs?$AA?$CJ?$AA?5?$AA?$CG?$AA?5?$AAF?$AAO?$AAP?$AAE?$AAN?$AA?$CJ?$AA?$AA@ 0063b6bc     LIBCMTD:fdopen.obj
 0003:00017700       ??_C@_1HC@KFLBHHBC@?$AA?$CI?$AAf?$AAi?$AAl?$AAe?$AAd?$AAe?$AAs?$AA?5?$AA?$DO?$AA?$DN?$AA?5?$AA0?$AA?5?$AA?$CG?$AA?$CG?$AA?5?$AA?$CI?$AAu?$AAn?$AAs?$AAi?$AAg?$AAn?$AAe?$AAd?$AA?$CJ?$AAf?$AAi?$AAl?$AAe?$AAd@ 0063b700     LIBCMTD:fdopen.obj
 0003:00017788       ??_C@_1BA@FMAFIKI@?$AA_?$AAf?$AAd?$AAo?$AAp?$AAe?$AAn?$AA?$AA@ 0063b788     LIBCMTD:fdopen.obj
 0003:000177a0       ??_C@_1GA@CEENENNF@?$AAf?$AA?3?$AA?2?$AAd?$AAd?$AA?2?$AAv?$AAc?$AAt?$AAo?$AAo?$AAl?$AAs?$AA?2?$AAc?$AAr?$AAt?$AA_?$AAb?$AAl?$AAd?$AA?2?$AAs?$AAe?$AAl?$AAf?$AA_?$AAx?$AA8?$AA6?$AA?2?$AAc@ 0063b7a0     LIBCMTD:fdopen.obj
 0003:00017814       ??_C@_1BK@HGLMNMEC@?$AAm?$AAo?$AAd?$AAe?$AA?5?$AA?$CB?$AA?$DN?$AA?5?$AAN?$AAU?$AAL?$AAL?$AA?$AA@ 0063b814     LIBCMTD:fdopen.obj
 0003:00017834       ??_C@_1DI@GIHAGANP@?$AA?$CI?$AA?$CI?$AAu?$AAn?$AAs?$AAi?$AAg?$AAn?$AAe?$AAd?$AA?$CJ?$AAf?$AAh?$AA2?$AA?5?$AA?$DM?$AA?5?$AA_?$AAN?$AAH?$AAA?$AAN?$AAD?$AAL?$AAE?$AA_?$AA?$CJ?$AA?$AA@ 0063b834     LIBCMTD:dup2.obj
 0003:00017878       ??_C@_1CO@GFKLAENC@?$AA?$CI?$AA_?$AAo?$AAs?$AAf?$AAi?$AAl?$AAe?$AA?$CI?$AAf?$AAh?$AA1?$AA?$CJ?$AA?5?$AA?$CG?$AA?5?$AAF?$AAO?$AAP?$AAE?$AAN?$AA?$CJ?$AA?$AA@ 0063b878     LIBCMTD:dup2.obj
 0003:000178b0       ??_C@_1M@KHHJPKPI@?$AA_?$AAd?$AAu?$AAp?$AA2?$AA?$AA@ 0063b8b0     LIBCMTD:dup2.obj
 0003:000178c0       ??_C@_1FM@BPMPJNAP@?$AAf?$AA?3?$AA?2?$AAd?$AAd?$AA?2?$AAv?$AAc?$AAt?$AAo?$AAo?$AAl?$AAs?$AA?2?$AAc?$AAr?$AAt?$AA_?$AAb?$AAl?$AAd?$AA?2?$AAs?$AAe?$AAl?$AAf?$AA_?$AAx?$AA8?$AA6?$AA?2?$AAc@ 0063b8c0     LIBCMTD:dup2.obj
 0003:00017930       ??_C@_1GC@EOODNGCK@?$AA?$CI?$AAf?$AAh?$AA1?$AA?5?$AA?$DO?$AA?$DN?$AA?5?$AA0?$AA?5?$AA?$CG?$AA?$CG?$AA?5?$AA?$CI?$AAu?$AAn?$AAs?$AAi?$AAg?$AAn?$AAe?$AAd?$AA?$CJ?$AAf?$AAh?$AA1?$AA?5?$AA?$DM?$AA?5?$AA?$CI?$AAu?$AAn@ 0063b930     LIBCMTD:dup2.obj
 0003:000179a8       ??_C@_1JE@ECKHFIFP@?$AA?$CI?$AA?$CC?$AAI?$AAn?$AAv?$AAa?$AAl?$AAi?$AAd?$AA?5?$AAf?$AAi?$AAl?$AAe?$AA?5?$AAd?$AAe?$AAs?$AAc?$AAr?$AAi?$AAp?$AAt?$AAo?$AAr?$AA?4?$AA?5?$AAF?$AAi?$AAl?$AAe?$AA?5@ 0063b9a8     LIBCMTD:dup2.obj
 0003:00017a5c       ??_C@_0CO@JAFEJCGE@f?3?2dd?2vctools?2crt_bld?2self_x86?2c@ 0063ba5c     LIBCMTD:dup2.obj
 0003:00017a94       ??_C@_0DB@KIKNCIEC@f?3?2dd?2vctools?2crt_bld?2self_x86?2c@ 0063ba94     LIBCMTD:osfinfo.obj
 0003:00017ad0       ??_C@_1CM@OKGMMMDH@?$AA?$CI?$AA_?$AAo?$AAs?$AAf?$AAi?$AAl?$AAe?$AA?$CI?$AAf?$AAh?$AA?$CJ?$AA?5?$AA?$CG?$AA?5?$AAF?$AAO?$AAP?$AAE?$AAN?$AA?$CJ?$AA?$AA@ 0063bad0     LIBCMTD:osfinfo.obj
 0003:00017b04       ??_C@_1BO@EMBOBGKE@?$AA_?$AAg?$AAe?$AAt?$AA_?$AAo?$AAs?$AAf?$AAh?$AAa?$AAn?$AAd?$AAl?$AAe?$AA?$AA@ 0063bb04     LIBCMTD:osfinfo.obj
 0003:00017b28       ??_C@_1GC@MLKLDJJG@?$AAf?$AA?3?$AA?2?$AAd?$AAd?$AA?2?$AAv?$AAc?$AAt?$AAo?$AAo?$AAl?$AAs?$AA?2?$AAc?$AAr?$AAt?$AA_?$AAb?$AAl?$AAd?$AA?2?$AAs?$AAe?$AAl?$AAf?$AA_?$AAx?$AA8?$AA6?$AA?2?$AAc@ 0063bb28     LIBCMTD:osfinfo.obj
 0003:00017ba0       ??_C@_1FO@LPCLHKGE@?$AA?$CI?$AAf?$AAh?$AA?5?$AA?$DO?$AA?$DN?$AA?5?$AA0?$AA?5?$AA?$CG?$AA?$CG?$AA?5?$AA?$CI?$AAu?$AAn?$AAs?$AAi?$AAg?$AAn?$AAe?$AAd?$AA?$CJ?$AAf?$AAh?$AA?5?$AA?$DM?$AA?5?$AA?$CI?$AAu?$AAn?$AAs?$AAi@ 0063bba0     LIBCMTD:osfinfo.obj
 0003:00017c10       ??_C@_1O@EGMJNCOI@?$AAf?$AAc?$AAl?$AAo?$AAs?$AAe?$AA?$AA@ 0063bc10     LIBCMTD:fclose.obj
 0003:00017c20       ??_C@_1GA@KMIDAPAP@?$AAf?$AA?3?$AA?2?$AAd?$AAd?$AA?2?$AAv?$AAc?$AAt?$AAo?$AAo?$AAl?$AAs?$AA?2?$AAc?$AAr?$AAt?$AA_?$AAb?$AAl?$AAd?$AA?2?$AAs?$AAe?$AAl?$AAf?$AA_?$AAx?$AA8?$AA6?$AA?2?$AAc@ 0063bc20     LIBCMTD:fclose.obj
 0003:00017c94       ??_C@_1CC@FADMNIL@?$AA?$CI?$AAs?$AAt?$AAr?$AAe?$AAa?$AAm?$AA?5?$AA?$CB?$AA?$DN?$AA?5?$AAN?$AAU?$AAL?$AAL?$AA?$CJ?$AA?$AA@ 0063bc94     LIBCMTD:fclose.obj
 0003:00017cbc       ??_C@_1BO@JINCABEC@?$AA_?$AAf?$AAc?$AAl?$AAo?$AAs?$AAe?$AA_?$AAn?$AAo?$AAl?$AAo?$AAc?$AAk?$AA?$AA@ 0063bcbc     LIBCMTD:fclose.obj
 0003:00017ce0       ??_C@_1BM@JMKHIAHP@?$AA?$CI?$AAs?$AAt?$AAr?$AA?5?$AA?$CB?$AA?$DN?$AA?5?$AAN?$AAU?$AAL?$AAL?$AA?$CJ?$AA?$AA@ 0063bce0     LIBCMTD:fclose.obj
 0003:00017d04       ??_C@_0CP@BNKDODJJ@f?3?2dd?2vctools?2crt_bld?2self_x86?2c@ 0063bd04     LIBCMTD:_file.obj
 0003:00017d3c       ??_C@_1BK@FHMHFMNL@?$AA_?$AAv?$AAs?$AAn?$AAp?$AAr?$AAi?$AAn?$AAt?$AAf?$AA_?$AAl?$AA?$AA@ 0063bd3c     LIBCMTD:vsnprint.obj
 0003:00017d60       ??_C@_1GE@DPADKNCG@?$AAf?$AA?3?$AA?2?$AAd?$AAd?$AA?2?$AAv?$AAc?$AAt?$AAo?$AAo?$AAl?$AAs?$AA?2?$AAc?$AAr?$AAt?$AA_?$AAb?$AAl?$AAd?$AA?2?$AAs?$AAe?$AAl?$AAf?$AA_?$AAx?$AA8?$AA6?$AA?2?$AAc@ 0063bd60     LIBCMTD:vsnprint.obj
 0003:00017dd8       ??_C@_0DA@HMCPFNKN@f?3?2dd?2vctools?2crt_bld?2self_x86?2c@ 0063bdd8     LIBCMTD:onexit.obj
 0003:00017e14       ??_C@_1DO@MOGEFOMO@?$AAs?$AAt?$AAr?$AAc?$AAp?$AAy?$AA_?$AAs?$AA?$CI?$AAm?$AAe?$AAm?$AAo?$AAr?$AAy?$AA?0?$AA?5?$AAs?$AAi?$AAz?$AAe?$AA?0?$AA?5?$AAs?$AAt?$AAr?$AAi?$AAn?$AAg?$AA?$CJ?$AA?$AA@ 0063be14     LIBCMTD:strdup.obj
 0003:00017e60       ??_C@_1BI@CBNECNIC@?$AA_?$AAs?$AAt?$AAr?$AAd?$AAu?$AAp?$AA_?$AAd?$AAb?$AAg?$AA?$AA@ 0063be60     LIBCMTD:strdup.obj
 0003:00017e80       ??_C@_1GA@JIPKHGPB@?$AAf?$AA?3?$AA?2?$AAd?$AAd?$AA?2?$AAv?$AAc?$AAt?$AAo?$AAo?$AAl?$AAs?$AA?2?$AAc?$AAr?$AAt?$AA_?$AAb?$AAl?$AAd?$AA?2?$AAs?$AAe?$AAl?$AAf?$AA_?$AAx?$AA8?$AA6?$AA?2?$AAc@ 0063be80     LIBCMTD:strdup.obj
 0003:00017ef8       ??_C@_1FA@HILOOCMA@?$AA?$CI?$AA_?$AAt?$AAc?$AAs?$AAn?$AAl?$AAe?$AAn?$AA?$CI?$AAo?$AAp?$AAt?$AAi?$AAo?$AAn?$AA?0?$AA?5?$AA_?$AAM?$AAA?$AAX?$AA_?$AAE?$AAN?$AAV?$AA?$CJ?$AA?5?$AA?$DM?$AA?5?$AA_?$AAM@ 0063bef8     LIBCMTD:getenv.obj
 0003:00017f58       ??_C@_1O@GMKGKCJO@?$AAg?$AAe?$AAt?$AAe?$AAn?$AAv?$AA?$AA@ 0063bf58     LIBCMTD:getenv.obj
 0003:00017f68       ??_C@_1GA@IPPICGKB@?$AAf?$AA?3?$AA?2?$AAd?$AAd?$AA?2?$AAv?$AAc?$AAt?$AAo?$AAo?$AAl?$AAs?$AA?2?$AAc?$AAr?$AAt?$AA_?$AAb?$AAl?$AAd?$AA?2?$AAs?$AAe?$AAl?$AAf?$AA_?$AAx?$AA8?$AA6?$AA?2?$AAc@ 0063bf68     LIBCMTD:getenv.obj
 0003:00017fdc       ??_C@_1CC@FKAOHHLO@?$AA?$CI?$AAo?$AAp?$AAt?$AAi?$AAo?$AAn?$AA?5?$AA?$CB?$AA?$DN?$AA?5?$AAN?$AAU?$AAL?$AAL?$AA?$CJ?$AA?$AA@ 0063bfdc     LIBCMTD:getenv.obj
 0003:00018008       ??_C@_1GI@JBIFPFJH@?$AA_?$AAt?$AAc?$AAs?$AAn?$AAl?$AAe?$AAn?$AA?$CI?$AA?$CK?$AAs?$AAe?$AAa?$AAr?$AAc?$AAh?$AA?5?$AA?$CL?$AA?5?$AAl?$AAe?$AAn?$AAg?$AAt?$AAh?$AA?5?$AA?$CL?$AA?5?$AA1?$AA?0?$AA?5?$AA_@ 0063c008     LIBCMTD:getenv.obj
 0003:00018088       ??_C@_1EI@HHOBPCFK@?$AAs?$AAt?$AAr?$AAc?$AAp?$AAy?$AA_?$AAs?$AA?$CI?$AAb?$AAu?$AAf?$AAf?$AAe?$AAr?$AA?0?$AA?5?$AAs?$AAi?$AAz?$AAe?$AAI?$AAn?$AAT?$AAC?$AAh?$AAa?$AAr?$AAs?$AA?0?$AA?5?$AAs@ 0063c088     LIBCMTD:getenv.obj
 0003:000180e0       ??_C@_1JM@NLPGJJPH@?$AA?$CI?$AAb?$AAu?$AAf?$AAf?$AAe?$AAr?$AA?5?$AA?$CB?$AA?$DN?$AA?5?$AAN?$AAU?$AAL?$AAL?$AA?5?$AA?$CG?$AA?$CG?$AA?5?$AAs?$AAi?$AAz?$AAe?$AAI?$AAn?$AAT?$AAC?$AAh?$AAa?$AAr?$AAs?$AA?5@ 0063c0e0     LIBCMTD:getenv.obj
 0003:0001819c       ??_C@_1CC@BAJKDIIF@?$AA_?$AAg?$AAe?$AAt?$AAe?$AAn?$AAv?$AA_?$AAs?$AA_?$AAh?$AAe?$AAl?$AAp?$AAe?$AAr?$AA?$AA@ 0063c19c     LIBCMTD:getenv.obj
 0003:000181c4       ??_C@_1CK@PIKDAOCL@?$AAp?$AAR?$AAe?$AAt?$AAu?$AAr?$AAn?$AAV?$AAa?$AAl?$AAu?$AAe?$AA?5?$AA?$CB?$AA?$DN?$AA?5?$AAN?$AAU?$AAL?$AAL?$AA?$AA@ 0063c1c4     LIBCMTD:getenv.obj
 0003:000181f8       ??_C@_1DM@GNKNEGJO@?$AAs?$AAt?$AAr?$AAc?$AAp?$AAy?$AA_?$AAs?$AA?$CI?$AA?$CK?$AAp?$AAB?$AAu?$AAf?$AAf?$AAe?$AAr?$AA?0?$AA?5?$AAs?$AAi?$AAz?$AAe?$AA?0?$AA?5?$AAs?$AAt?$AAr?$AA?$CJ?$AA?$AA@ 0063c1f8     LIBCMTD:getenv.obj
 0003:00018240       ??_C@_1CA@GDBKELOE@?$AAv?$AAa?$AAr?$AAn?$AAa?$AAm?$AAe?$AA?5?$AA?$CB?$AA?$DN?$AA?5?$AAN?$AAU?$AAL?$AAL?$AA?$AA@ 0063c240     LIBCMTD:getenv.obj
 0003:00018268       ??_C@_1CC@KPLOPIEM@?$AA_?$AAd?$AAu?$AAp?$AAe?$AAn?$AAv?$AA_?$AAs?$AA_?$AAh?$AAe?$AAl?$AAp?$AAe?$AAr?$AA?$AA@ 0063c268     LIBCMTD:getenv.obj
 0003:00018290       ??_C@_1CA@FHNFMDOJ@?$AAp?$AAB?$AAu?$AAf?$AAf?$AAe?$AAr?$AA?5?$AA?$CB?$AA?$DN?$AA?5?$AAN?$AAU?$AAL?$AAL?$AA?$AA@ 0063c290     LIBCMTD:getenv.obj
 0003:000182b8       ??_C@_03LLEJOLGL@?4?1?2?$AA@ 0063c2b8     LIBCMTD:stati32.obj
 0003:000182bc       ??_C@_02EAOCEIGI@?$DP?$CK?$AA@ 0063c2bc     LIBCMTD:stati32.obj
 0003:000182c0       ??_C@_1BM@KFJLMBPG@?$AA?$CI?$AAb?$AAu?$AAf?$AA?5?$AA?$CB?$AA?$DN?$AA?5?$AAN?$AAU?$AAL?$AAL?$AA?$CJ?$AA?$AA@ 0063c2c0     LIBCMTD:stati32.obj
 0003:000182e4       ??_C@_1BG@KDNAAFDC@?$AA_?$AAs?$AAt?$AAa?$AAt?$AA6?$AA4?$AAi?$AA3?$AA2?$AA?$AA@ 0063c2e4     LIBCMTD:stati32.obj
 0003:00018300       ??_C@_1GA@FGGLPCAO@?$AAf?$AA?3?$AA?2?$AAd?$AAd?$AA?2?$AAv?$AAc?$AAt?$AAo?$AAo?$AAl?$AAs?$AA?2?$AAc?$AAr?$AAt?$AA_?$AAb?$AAl?$AAd?$AA?2?$AAs?$AAe?$AAl?$AAf?$AA_?$AAx?$AA8?$AA6?$AA?2?$AAc@ 0063c300     LIBCMTD:stati32.obj
 0003:00018374       ??_C@_1BO@PCMLKEJK@?$AA?$CI?$AAn?$AAa?$AAm?$AAe?$AA?5?$AA?$CB?$AA?$DN?$AA?5?$AAN?$AAU?$AAL?$AAL?$AA?$CJ?$AA?$AA@ 0063c374     LIBCMTD:stati32.obj
 0003:00018398       ??_C@_1CM@DCGCAFIP@?$AA?$CI?$AA?$CI?$AAa?$AAm?$AAo?$AAd?$AAe?$AA?5?$AA?$CG?$AA?5?$AA?$CI?$AA?$HO?$AA6?$AA?$CJ?$AA?$CJ?$AA?5?$AA?$DN?$AA?$DN?$AA?5?$AA0?$AA?$CJ?$AA?$AA@ 0063c398     LIBCMTD:access.obj
 0003:000183cc       ??_C@_1BE@LKCFPEPG@?$AA_?$AAa?$AAc?$AAc?$AAe?$AAs?$AAs?$AA_?$AAs?$AA?$AA@ 0063c3cc     LIBCMTD:access.obj
 0003:000183e8       ??_C@_1GA@ELNKGBFA@?$AAf?$AA?3?$AA?2?$AAd?$AAd?$AA?2?$AAv?$AAc?$AAt?$AAo?$AAo?$AAl?$AAs?$AA?2?$AAc?$AAr?$AAt?$AA_?$AAb?$AAl?$AAd?$AA?2?$AAs?$AAe?$AAl?$AAf?$AA_?$AAx?$AA8?$AA6?$AA?2?$AAc@ 0063c3e8     LIBCMTD:access.obj
 0003:0001845c       ??_C@_1BO@DPAOGEII@?$AA?$CI?$AAp?$AAa?$AAt?$AAh?$AA?5?$AA?$CB?$AA?$DN?$AA?5?$AAN?$AAU?$AAL?$AAL?$AA?$CJ?$AA?$AA@ 0063c45c     LIBCMTD:access.obj
 0003:00018480       ??_C@_1BM@BMDEPKPP@?$AA_?$AAf?$AAu?$AAl?$AAl?$AAp?$AAa?$AAt?$AAh?$AA_?$AAd?$AAb?$AAg?$AA?$AA@ 0063c480     LIBCMTD:fullpath.obj
 0003:000184a8       ??_C@_1GE@EJNCNJPK@?$AAf?$AA?3?$AA?2?$AAd?$AAd?$AA?2?$AAv?$AAc?$AAt?$AAo?$AAo?$AAl?$AAs?$AA?2?$AAc?$AAr?$AAt?$AA_?$AAb?$AAl?$AAd?$AA?2?$AAs?$AAe?$AAl?$AAf?$AA_?$AAx?$AA8?$AA6?$AA?2?$AAc@ 0063c4a8     LIBCMTD:fullpath.obj
 0003:00018520       ??_C@_1BK@NOHKJANJ@?$AA?$CI?$AAm?$AAa?$AAx?$AAl?$AAe?$AAn?$AA?5?$AA?$DO?$AA?5?$AA0?$AA?$CJ?$AA?$AA@ 0063c520     LIBCMTD:fullpath.obj
 0003:00018540       ??_C@_0P@MIGLKIOC@CorExitProcess?$AA@ 0063c540     LIBCMTD:crt0dat.obj
 0003:00018554       ??_C@_1BI@BGOHAHKC@?$AAm?$AAs?$AAc?$AAo?$AAr?$AAe?$AAe?$AA?4?$AAd?$AAl?$AAl?$AA?$AA@ 0063c554     LIBCMTD:crt0dat.obj
 0003:00018570       ??_C@_1CC@CDIPMFPD@?$AA_?$AAw?$AAp?$AAg?$AAm?$AAp?$AAt?$AAr?$AA?5?$AA?$CB?$AA?$DN?$AA?5?$AAN?$AAU?$AAL?$AAL?$AA?$AA@ 0063c570     LIBCMTD:crt0dat.obj
 0003:00018598       ??_C@_1BK@PNLDCCDP@?$AA_?$AAg?$AAe?$AAt?$AA_?$AAw?$AAp?$AAg?$AAm?$AAp?$AAt?$AAr?$AA?$AA@ 0063c598     LIBCMTD:crt0dat.obj
 0003:000185b8       ??_C@_1GC@DGCPEDNJ@?$AAf?$AA?3?$AA?2?$AAd?$AAd?$AA?2?$AAv?$AAc?$AAt?$AAo?$AAo?$AAl?$AAs?$AA?2?$AAc?$AAr?$AAt?$AA_?$AAb?$AAl?$AAd?$AA?2?$AAs?$AAe?$AAl?$AAf?$AA_?$AAx?$AA8?$AA6?$AA?2?$AAc@ 0063c5b8     LIBCMTD:crt0dat.obj
 0003:00018630       ??_C@_1BO@LKEBEKJP@?$AAp?$AAV?$AAa?$AAl?$AAu?$AAe?$AA?5?$AA?$CB?$AA?$DN?$AA?5?$AAN?$AAU?$AAL?$AAL?$AA?$AA@ 0063c630     LIBCMTD:crt0dat.obj
 0003:00018654       ??_C@_1CA@BBNAFCKO@?$AA_?$AAp?$AAg?$AAm?$AAp?$AAt?$AAr?$AA?5?$AA?$CB?$AA?$DN?$AA?5?$AAN?$AAU?$AAL?$AAL?$AA?$AA@ 0063c654     LIBCMTD:crt0dat.obj
 0003:0001867c       ??_C@_1BI@COAAPHJK@?$AA_?$AAg?$AAe?$AAt?$AA_?$AAp?$AAg?$AAm?$AAp?$AAt?$AAr?$AA?$AA@ 0063c67c     LIBCMTD:crt0dat.obj
 0003:00018698       ??_C@_1GA@HNJOAPAE@?$AAf?$AA?3?$AA?2?$AAd?$AAd?$AA?2?$AAv?$AAc?$AAt?$AAo?$AAo?$AAl?$AAs?$AA?2?$AAc?$AAr?$AAt?$AA_?$AAb?$AAl?$AAd?$AA?2?$AAs?$AAe?$AAl?$AAf?$AA_?$AAx?$AA8?$AA6?$AA?2?$AAc@ 0063c698     LIBCMTD:setbuf.obj
 0003:0001870c       ??_C@_1BO@KIJENGPH@?$AAs?$AAt?$AAr?$AAe?$AAa?$AAm?$AA?5?$AA?$CB?$AA?$DN?$AA?5?$AAN?$AAU?$AAL?$AAL?$AA?$AA@ 0063c70c     LIBCMTD:setbuf.obj
 0003:00018730       ??_C@_1BAA@ODEGEDCK@?$AA?$CI?$AA?5?$AA?$CI?$AA_?$AAS?$AAt?$AAr?$AAe?$AAa?$AAm?$AA?9?$AA?$DO?$AA_?$AAf?$AAl?$AAa?$AAg?$AA?5?$AA?$CG?$AA?5?$AA_?$AAI?$AAO?$AAS?$AAT?$AAR?$AAG?$AA?$CJ?$AA?5?$AA?$HM?$AA?$HM?$AA?5@ 0063c730     LIBCMTD:fprintf.obj
 0003:00018864       ??_C@_1BA@DNOHIGNM@?$AAf?$AAp?$AAr?$AAi?$AAn?$AAt?$AAf?$AA?$AA@ 0063c864     LIBCMTD:fprintf.obj
 0003:00018878       ??_C@_1GC@NHJDDBOH@?$AAf?$AA?3?$AA?2?$AAd?$AAd?$AA?2?$AAv?$AAc?$AAt?$AAo?$AAo?$AAl?$AAs?$AA?2?$AAc?$AAr?$AAt?$AA_?$AAb?$AAl?$AAd?$AA?2?$AAs?$AAe?$AAl?$AAf?$AA_?$AAx?$AA8?$AA6?$AA?2?$AAc@ 0063c878     LIBCMTD:fprintf.obj
 0003:000188f0       ??_C@_1BG@OMGGMME@?$AA_?$AAf?$AAt?$AAi?$AAm?$AAe?$AA6?$AA4?$AA_?$AAs?$AA?$AA@ 0063c8f0     LIBCMTD:ftime64.obj
 0003:00018910       ??_C@_1GC@IFLFPLPB@?$AAf?$AA?3?$AA?2?$AAd?$AAd?$AA?2?$AAv?$AAc?$AAt?$AAo?$AAo?$AAl?$AAs?$AA?2?$AAc?$AAr?$AAt?$AA_?$AAb?$AAl?$AAd?$AA?2?$AAs?$AAe?$AAl?$AAf?$AA_?$AAx?$AA8?$AA6?$AA?2?$AAc@ 0063c910     LIBCMTD:ftime64.obj
 0003:00018988       ??_C@_1BO@BCOPJGHK@?$AA?$CI?$AA?5?$AAt?$AAp?$AA?5?$AA?$CB?$AA?$DN?$AA?5?$AAN?$AAU?$AAL?$AAL?$AA?5?$AA?$CJ?$AA?$AA@ 0063c988     LIBCMTD:ftime64.obj
 0003:000189b0       ??_C@_1GM@HFLCJPGH@?$AAs?$AAt?$AAr?$AAc?$AAp?$AAy?$AA_?$AAs?$AA?$CI?$AAe?$AAr?$AAr?$AAm?$AAs?$AAg?$AA?0?$AA?5?$AA?$CI?$AA9?$AA4?$AA?$CL?$AA3?$AA8?$AA?$CL?$AA2?$AA?$CJ?$AA?0?$AA?5?$AA_?$AAg?$AAe?$AAt@ 0063c9b0     LIBCMTD:strerror.obj
 0003:00018a34       ??_C@_1BC@CPPAPMCG@?$AAs?$AAt?$AAr?$AAe?$AAr?$AAr?$AAo?$AAr?$AA?$AA@ 0063ca34     LIBCMTD:strerror.obj
 0003:00018a50       ??_C@_1GE@IMODLDCP@?$AAf?$AA?3?$AA?2?$AAd?$AAd?$AA?2?$AAv?$AAc?$AAt?$AAo?$AAo?$AAl?$AAs?$AA?2?$AAc?$AAr?$AAt?$AA_?$AAb?$AAl?$AAd?$AA?2?$AAs?$AAe?$AAl?$AAf?$AA_?$AAx?$AA8?$AA6?$AA?2?$AAc@ 0063ca50     LIBCMTD:strerror.obj
 0003:00018ac8       ??_C@_0DC@PHLJOGAJ@f?3?2dd?2vctools?2crt_bld?2self_x86?2c@ 0063cac8     LIBCMTD:strerror.obj
 0003:00018b08       ??_C@_0EA@FCLIIPNN@Visual?5C?$CL?$CL?5CRT?3?5Not?5enough?5memor@ 0063cb08     LIBCMTD:strerror.obj
 0003:00018b58       ??_C@_1JI@GAHGOJMC@?$AAs?$AAt?$AAr?$AAn?$AAc?$AAp?$AAy?$AA_?$AAs?$AA?$CI?$AAb?$AAu?$AAf?$AAf?$AAe?$AAr?$AA?0?$AA?5?$AAs?$AAi?$AAz?$AAe?$AAI?$AAn?$AAT?$AAC?$AAh?$AAa?$AAr?$AAs?$AA?0?$AA?5@ 0063cb58     LIBCMTD:strerror.obj
 0003:00018c10       ??_C@_1CC@JNJFIMGE@?$AAs?$AAi?$AAz?$AAe?$AAI?$AAn?$AAT?$AAC?$AAh?$AAa?$AAr?$AAs?$AA?5?$AA?$DO?$AA?5?$AA0?$AA?$AA@ 0063cc10     LIBCMTD:strerror.obj
 0003:00018c38       ??_C@_1BG@CLIBDOC@?$AAs?$AAt?$AAr?$AAe?$AAr?$AAr?$AAo?$AAr?$AA_?$AAs?$AA?$AA@ 0063cc38     LIBCMTD:strerror.obj
 0003:00018c54       ??_C@_1BO@PNINNIGK@?$AAb?$AAu?$AAf?$AAf?$AAe?$AAr?$AA?5?$AA?$CB?$AA?$DN?$AA?5?$AAN?$AAU?$AAL?$AAL?$AA?$AA@ 0063cc54     LIBCMTD:strerror.obj
 0003:00018c78       ??_C@_07LCBHPJJN@LC_TIME?$AA@ 0063cc78     LIBCMTD:setlocal.obj
 0003:00018c84       ??_C@_0L@DLHIECNL@LC_NUMERIC?$AA@ 0063cc84     LIBCMTD:setlocal.obj
 0003:00018c94       ??_C@_0M@MIENIKLA@LC_MONETARY?$AA@ 0063cc94     LIBCMTD:setlocal.obj
 0003:00018ca4       ??_C@_08EADHIDAD@LC_CTYPE?$AA@ 0063cca4     LIBCMTD:setlocal.obj
 0003:00018cb0       ??_C@_0L@KFJHEKIK@LC_COLLATE?$AA@ 0063ccb0     LIBCMTD:setlocal.obj
 0003:00018cc0       ??_C@_06NEFDFEKB@LC_ALL?$AA@ 0063ccc0     LIBCMTD:setlocal.obj
 0003:00018cc8       ___lc_category             0063ccc8     LIBCMTD:setlocal.obj
 0003:00018db8       ??_C@_1CI@FGIONOJM@?$AA_?$AAc?$AAo?$AAn?$AAf?$AAi?$AAg?$AAt?$AAh?$AAr?$AAe?$AAa?$AAd?$AAl?$AAo?$AAc?$AAa?$AAl?$AAe?$AA?$AA@ 0063cdb8     LIBCMTD:setlocal.obj
 0003:00018de8       ??_C@_1GE@OLEIGPBJ@?$AAf?$AA?3?$AA?2?$AAd?$AAd?$AA?2?$AAv?$AAc?$AAt?$AAo?$AAo?$AAl?$AAs?$AA?2?$AAc?$AAr?$AAt?$AA_?$AAb?$AAl?$AAd?$AA?2?$AAs?$AAe?$AAl?$AAf?$AA_?$AAx?$AA8?$AA6?$AA?2?$AAc@ 0063cde8     LIBCMTD:setlocal.obj
 0003:00018e60       ??_C@_1GA@LDEGDKD@?$AA?$CI?$AA?$CC?$AAI?$AAn?$AAv?$AAa?$AAl?$AAi?$AAd?$AA?5?$AAp?$AAa?$AAr?$AAa?$AAm?$AAe?$AAt?$AAe?$AAr?$AA?5?$AAf?$AAo?$AAr?$AA?5?$AA_?$AAc?$AAo?$AAn?$AAf?$AAi?$AAg?$AAt@ 0063ce60     LIBCMTD:setlocal.obj
 0003:00018ed4       ??_C@_0DC@JCPFNMID@f?3?2dd?2vctools?2crt_bld?2self_x86?2c@ 0063ced4     LIBCMTD:setlocal.obj
 0003:00018f10       ??_C@_1BE@DBJGBOJC@?$AAs?$AAe?$AAt?$AAl?$AAo?$AAc?$AAa?$AAl?$AAe?$AA?$AA@ 0063cf10     LIBCMTD:setlocal.obj
 0003:00018f28       ??_C@_1FG@OHLFEKMC@?$AAL?$AAC?$AA_?$AAM?$AAI?$AAN?$AA?5?$AA?$DM?$AA?$DN?$AA?5?$AA_?$AAc?$AAa?$AAt?$AAe?$AAg?$AAo?$AAr?$AAy?$AA?5?$AA?$CG?$AA?$CG?$AA?5?$AA_?$AAc?$AAa?$AAt?$AAe?$AAg?$AAo?$AAr?$AAy@ 0063cf28     LIBCMTD:setlocal.obj
 0003:00018f90       ??_C@_1IA@PFIKKKFB@?$AAs?$AAt?$AAr?$AAn?$AAc?$AAp?$AAy?$AA_?$AAs?$AA?$CI?$AAl?$AAc?$AAt?$AAe?$AAm?$AAp?$AA?0?$AA?5?$AA?$CI?$AAs?$AAi?$AAz?$AAe?$AAo?$AAf?$AA?$CI?$AAl?$AAc?$AAt?$AAe?$AAm?$AAp@ 0063cf90     LIBCMTD:setlocal.obj
 0003:0001902c       ??_C@_1CE@OFNHIOO@?$AA_?$AAs?$AAe?$AAt?$AAl?$AAo?$AAc?$AAa?$AAl?$AAe?$AA_?$AAn?$AAo?$AAl?$AAo?$AAc?$AAk?$AA?$AA@ 0063d02c     LIBCMTD:setlocal.obj
 0003:00019058       ??_C@_01ICJEACDI@?$DL?$AA@ 0063d058     LIBCMTD:setlocal.obj
 0003:0001905c       ??_C@_02BALPLPBG@?$DN?$DL?$AA@ 0063d05c     LIBCMTD:setlocal.obj
 0003:00019060       ??_C@_1GO@JALHLJEH@?$AAs?$AAt?$AAr?$AAc?$AAp?$AAy?$AA_?$AAs?$AA?$CI?$AAp?$AAc?$AAh?$AA?5?$AA?$CL?$AA?5?$AAs?$AAi?$AAz?$AAe?$AAo?$AAf?$AA?$CI?$AAi?$AAn?$AAt?$AA?$CJ?$AA?0?$AA?5?$AAc?$AAc?$AAh?$AA?5@ 0063d060     LIBCMTD:setlocal.obj
 0003:000190e4       ??_C@_1CG@IEFIICPK@?$AA_?$AAs?$AAe?$AAt?$AAl?$AAo?$AAc?$AAa?$AAl?$AAe?$AA_?$AAs?$AAe?$AAt?$AA_?$AAc?$AAa?$AAt?$AA?$AA@ 0063d0e4     LIBCMTD:setlocal.obj
 0003:00019114       ??_C@_1DA@GDKKLCLM@?$AAs?$AAt?$AAr?$AAc?$AAa?$AAt?$AA_?$AAs?$AA?$CI?$AAp?$AAc?$AAh?$AA?0?$AA?5?$AAc?$AAc?$AAh?$AA?0?$AA?5?$AA?$CC?$AA?$DL?$AA?$CC?$AA?$CJ?$AA?$AA@ 0063d114     LIBCMTD:setlocal.obj
 0003:00019150       ??_C@_1CG@NNFIJLDA@?$AA_?$AAs?$AAe?$AAt?$AAl?$AAo?$AAc?$AAa?$AAl?$AAe?$AA_?$AAg?$AAe?$AAt?$AA_?$AAa?$AAl?$AAl?$AA?$AA@ 0063d150     LIBCMTD:setlocal.obj
 0003:00019180       ??_C@_01NEMOKFLO@?$DN?$AA@ 0063d180     LIBCMTD:setlocal.obj
 0003:00019188       ??_C@_1FA@MHAOOIBO@?$AAs?$AAt?$AAr?$AAc?$AAp?$AAy?$AA_?$AAs?$AA?$CI?$AAo?$AAu?$AAt?$AAp?$AAu?$AAt?$AA?0?$AA?5?$AAs?$AAi?$AAz?$AAe?$AAI?$AAn?$AAC?$AAh?$AAa?$AAr?$AAs?$AA?0?$AA?5?$AAc?$AAa@ 0063d188     LIBCMTD:setlocal.obj
 0003:000191e8       ??_C@_1IA@ONNFOEDA@?$AAs?$AAt?$AAr?$AAn?$AAc?$AAp?$AAy?$AA_?$AAs?$AA?$CI?$AAc?$AAa?$AAc?$AAh?$AAe?$AAi?$AAn?$AA?0?$AA?5?$AAc?$AAa?$AAc?$AAh?$AAe?$AAi?$AAn?$AAS?$AAi?$AAz?$AAe?$AA?0?$AA?5@ 0063d1e8     LIBCMTD:setlocal.obj
 0003:00019284       ??_C@_01GFHCPBMG@C?$AA@    0063d284     LIBCMTD:setlocal.obj
 0003:00019288       ??_C@_1EG@MOMHKOD@?$AAs?$AAt?$AAr?$AAc?$AAp?$AAy?$AA_?$AAs?$AA?$CI?$AAo?$AAu?$AAt?$AAp?$AAu?$AAt?$AA?0?$AA?5?$AAs?$AAi?$AAz?$AAe?$AAI?$AAn?$AAC?$AAh?$AAa?$AAr?$AAs?$AA?0?$AA?5?$AA?$CC?$AAC@ 0063d288     LIBCMTD:setlocal.obj
 0003:000192dc       ??_C@_1BM@OIIBLEFG@?$AA_?$AAe?$AAx?$AAp?$AAa?$AAn?$AAd?$AAl?$AAo?$AAc?$AAa?$AAl?$AAe?$AA?$AA@ 0063d2dc     LIBCMTD:setlocal.obj
 0003:00019300       ??_C@_1BGM@IJDLABMC@?$AAs?$AAt?$AAr?$AAc?$AAa?$AAt?$AA_?$AAs?$AA?$CI?$AAo?$AAu?$AAt?$AAs?$AAt?$AAr?$AA?0?$AA?5?$AAs?$AAi?$AAz?$AAe?$AAI?$AAn?$AAB?$AAy?$AAt?$AAe?$AAs?$AA?0?$AA?5?$AA?$CI?$AA?5@ 0063d300     LIBCMTD:setlocal.obj
 0003:000194b4       ??_C@_1BC@PIABMDIP@?$AA_?$AAs?$AAt?$AAr?$AAc?$AAa?$AAt?$AAs?$AA?$AA@ 0063d4b4     LIBCMTD:setlocal.obj
 0003:000194d0       ??_C@_1MM@NOPMGFHF@?$AAs?$AAt?$AAr?$AAn?$AAc?$AAp?$AAy?$AA_?$AAs?$AA?$CI?$AAn?$AAa?$AAm?$AAe?$AAs?$AA?9?$AA?$DO?$AAs?$AAz?$AAC?$AAo?$AAd?$AAe?$AAP?$AAa?$AAg?$AAe?$AA?0?$AA?5?$AA?$CI?$AAs?$AAi@ 0063d4d0     LIBCMTD:setlocal.obj
 0003:000195c8       ??_C@_1MG@PHNILIAG@?$AAs?$AAt?$AAr?$AAn?$AAc?$AAp?$AAy?$AA_?$AAs?$AA?$CI?$AAn?$AAa?$AAm?$AAe?$AAs?$AA?9?$AA?$DO?$AAs?$AAz?$AAC?$AAo?$AAu?$AAn?$AAt?$AAr?$AAy?$AA?0?$AA?5?$AA?$CI?$AAs?$AAi?$AAz@ 0063d5c8     LIBCMTD:setlocal.obj
 0003:000196b8       ??_C@_1MM@BFEECMAF@?$AAs?$AAt?$AAr?$AAn?$AAc?$AAp?$AAy?$AA_?$AAs?$AA?$CI?$AAn?$AAa?$AAm?$AAe?$AAs?$AA?9?$AA?$DO?$AAs?$AAz?$AAL?$AAa?$AAn?$AAg?$AAu?$AAa?$AAg?$AAe?$AA?0?$AA?5?$AA?$CI?$AAs?$AAi@ 0063d6b8     LIBCMTD:setlocal.obj
 0003:000197ac       ??_C@_03EGDHDPFD@_?4?0?$AA@ 0063d7ac     LIBCMTD:setlocal.obj
 0003:000197b0       ??_C@_1NG@FMOPGKGG@?$AAs?$AAt?$AAr?$AAn?$AAc?$AAp?$AAy?$AA_?$AAs?$AA?$CI?$AAn?$AAa?$AAm?$AAe?$AAs?$AA?9?$AA?$DO?$AAs?$AAz?$AAC?$AAo?$AAd?$AAe?$AAP?$AAa?$AAg?$AAe?$AA?0?$AA?5?$AA?$CI?$AAs?$AAi@ 0063d7b0     LIBCMTD:setlocal.obj
 0003:000198b0       ??_C@_1BK@CBMMLAGJ@?$AA_?$AA_?$AAl?$AAc?$AA_?$AAs?$AAt?$AAr?$AAt?$AAo?$AAl?$AAc?$AA?$AA@ 0063d8b0     LIBCMTD:setlocal.obj
 0003:000198d0       ??_C@_01LFCBOECM@?4?$AA@   0063d8d0     LIBCMTD:setlocal.obj
 0003:000198d4       ??_C@_01IDAFKMJL@_?$AA@    0063d8d4     LIBCMTD:setlocal.obj
 0003:000198d8       ??_C@_1HC@IBDBLKCB@?$AAs?$AAt?$AAr?$AAc?$AAp?$AAy?$AA_?$AAs?$AA?$CI?$AAl?$AAo?$AAc?$AAa?$AAl?$AAe?$AA?0?$AA?5?$AAs?$AAi?$AAz?$AAe?$AAI?$AAn?$AAB?$AAy?$AAt?$AAe?$AAs?$AA?0?$AA?5?$AA?$CI?$AAc@ 0063d8d8     LIBCMTD:setlocal.obj
 0003:00019960       ??_C@_1BK@FGDJDEPG@?$AA_?$AA_?$AAl?$AAc?$AA_?$AAl?$AAc?$AAt?$AAo?$AAs?$AAt?$AAr?$AA?$AA@ 0063d960     LIBCMTD:setlocal.obj
 0003:00019980       ??_C@_1O@KOFKDHPL@?$AA_?$AAw?$AAr?$AAi?$AAt?$AAe?$AA?$AA@ 0063d980     LIBCMTD:write.obj
 0003:00019990       ??_C@_1FO@EPLDPDDL@?$AAf?$AA?3?$AA?2?$AAd?$AAd?$AA?2?$AAv?$AAc?$AAt?$AAo?$AAo?$AAl?$AAs?$AA?2?$AAc?$AAr?$AAt?$AA_?$AAb?$AAl?$AAd?$AA?2?$AAs?$AAe?$AAl?$AAf?$AA_?$AAx?$AA8?$AA6?$AA?2?$AAc@ 0063d990     LIBCMTD:write.obj
 0003:00019a00       ??_C@_1DI@CNMHHHLG@?$AAi?$AAs?$AAl?$AAe?$AAa?$AAd?$AAb?$AAy?$AAt?$AAe?$AA?$CI?$AA_?$AAd?$AAb?$AAc?$AAs?$AAB?$AAu?$AAf?$AAf?$AAe?$AAr?$AA?$CI?$AAf?$AAh?$AA?$CJ?$AA?$CJ?$AA?$AA@ 0063da00     LIBCMTD:write.obj
 0003:00019a44       ??_C@_1CC@EEOLPHGO@?$AA?$CI?$AA?$CI?$AAc?$AAn?$AAt?$AA?5?$AA?$CG?$AA?5?$AA1?$AA?$CJ?$AA?5?$AA?$DN?$AA?$DN?$AA?5?$AA0?$AA?$CJ?$AA?$AA@ 0063da44     LIBCMTD:write.obj
 0003:00019a6c       ??_C@_1BM@NCANHCIP@?$AA_?$AAw?$AAr?$AAi?$AAt?$AAe?$AA_?$AAn?$AAo?$AAl?$AAo?$AAc?$AAk?$AA?$AA@ 0063da6c     LIBCMTD:write.obj
 0003:00019a90       ??_C@_1BA@JGHIEKKM@?$AA_?$AAf?$AAi?$AAl?$AAe?$AAn?$AAo?$AA?$AA@ 0063da90     LIBCMTD:fileno.obj
 0003:00019aa8       ??_C@_1GA@PBJHELNC@?$AAf?$AA?3?$AA?2?$AAd?$AAd?$AA?2?$AAv?$AAc?$AAt?$AAo?$AAo?$AAl?$AAs?$AA?2?$AAc?$AAr?$AAt?$AA_?$AAb?$AAl?$AAd?$AA?2?$AAs?$AAe?$AAl?$AAf?$AA_?$AAx?$AA8?$AA6?$AA?2?$AAc@ 0063daa8     LIBCMTD:fileno.obj
 0003:00019b20       ??_C@_1FA@MJKDNFFB@?$AA?$CI?$AAL?$AA?$CC?$AAS?$AAt?$AAr?$AAi?$AAn?$AAg?$AA?5?$AAi?$AAs?$AA?5?$AAn?$AAo?$AAt?$AA?5?$AAn?$AAu?$AAl?$AAl?$AA?5?$AAt?$AAe?$AAr?$AAm?$AAi?$AAn?$AAa?$AAt?$AAe?$AAd@ 0063db20     LIBCMTD:strcat_s.obj
 0003:00019b80       ??_C@_1DM@FHLMIEG@?$AAS?$AAt?$AAr?$AAi?$AAn?$AAg?$AA?5?$AAi?$AAs?$AA?5?$AAn?$AAo?$AAt?$AA?5?$AAn?$AAu?$AAl?$AAl?$AA?5?$AAt?$AAe?$AAr?$AAm?$AAi?$AAn?$AAa?$AAt?$AAe?$AAd?$AA?$AA@ 0063db80     LIBCMTD:strcat_s.obj
 0003:00019bc8       ??_C@_1BC@HGPNAKGC@?$AAs?$AAt?$AAr?$AAc?$AAa?$AAt?$AA_?$AAs?$AA?$AA@ 0063dbc8     LIBCMTD:strcat_s.obj
 0003:00019be0       ??_C@_1GI@NOKGIAGA@?$AAf?$AA?3?$AA?2?$AAd?$AAd?$AA?2?$AAv?$AAc?$AAt?$AAo?$AAo?$AAl?$AAs?$AA?2?$AAc?$AAr?$AAt?$AA_?$AAb?$AAl?$AAd?$AA?2?$AAs?$AAe?$AAl?$AAf?$AA_?$AAx?$AA8?$AA6?$AA?2?$AAc@ 0063dbe0     LIBCMTD:strcat_s.obj
 0003:00019c5c       ??_C@_1BE@FHKNNLOF@?$AA_?$AAp?$AAu?$AAt?$AAe?$AAn?$AAv?$AA_?$AAs?$AA?$AA@ 0063dc5c     LIBCMTD:putenv.obj
 0003:00019c78       ??_C@_1GA@KGFCEOED@?$AAf?$AA?3?$AA?2?$AAd?$AAd?$AA?2?$AAv?$AAc?$AAt?$AAo?$AAo?$AAl?$AAs?$AA?2?$AAc?$AAr?$AAt?$AA_?$AAb?$AAl?$AAd?$AA?2?$AAs?$AAe?$AAl?$AAf?$AA_?$AAx?$AA8?$AA6?$AA?2?$AAc@ 0063dc78     LIBCMTD:putenv.obj
 0003:00019cec       ??_C@_1BM@IFHPBCCM@?$AAv?$AAa?$AAl?$AAu?$AAe?$AA?5?$AA?$CB?$AA?$DN?$AA?5?$AAN?$AAU?$AAL?$AAL?$AA?$AA@ 0063dcec     LIBCMTD:putenv.obj
 0003:00019d10       ??_C@_1CI@LJIGMPML@?$AAv?$AAa?$AAl?$AAu?$AAe?$AAl?$AAe?$AAn?$AA?5?$AA?$DM?$AA?5?$AA_?$AAM?$AAA?$AAX?$AA_?$AAE?$AAN?$AAV?$AA?$AA@ 0063dd10     LIBCMTD:putenv.obj
 0003:00019d40       ??_C@_1CG@JIKAKFCE@?$AAn?$AAa?$AAm?$AAe?$AAl?$AAe?$AAn?$AA?5?$AA?$DM?$AA?5?$AA_?$AAM?$AAA?$AAX?$AA_?$AAE?$AAN?$AAV?$AA?$AA@ 0063dd40     LIBCMTD:putenv.obj
 0003:00019d70       ??_C@_0DA@EIEPGPNE@f?3?2dd?2vctools?2crt_bld?2self_x86?2c@ 0063dd70     LIBCMTD:putenv.obj
 0003:00019db0       ??_C@_1FC@EEJIEIDF@?$AA_?$AAt?$AAc?$AAs?$AAn?$AAl?$AAe?$AAn?$AA?$CI?$AAe?$AAq?$AAu?$AAa?$AAl?$AA?5?$AA?$CL?$AA?5?$AA1?$AA?0?$AA?5?$AA_?$AAM?$AAA?$AAX?$AA_?$AAE?$AAN?$AAV?$AA?$CJ?$AA?5?$AA?$DM?$AA?5@ 0063ddb0     LIBCMTD:putenv.obj
 0003:00019e14       ??_C@_1DA@EDDBCKIK@?$AAe?$AAq?$AAu?$AAa?$AAl?$AA?5?$AA?9?$AA?5?$AAn?$AAa?$AAm?$AAe?$AA?5?$AA?$DM?$AA?5?$AA_?$AAM?$AAA?$AAX?$AA_?$AAE?$AAN?$AAV?$AA?$AA@ 0063de14     LIBCMTD:putenv.obj
 0003:00019e50       ??_C@_1BO@PHFMKDLM@?$AA_?$AAp?$AAu?$AAt?$AAe?$AAn?$AAv?$AA_?$AAh?$AAe?$AAl?$AAp?$AAe?$AAr?$AA?$AA@ 0063de50     LIBCMTD:putenv.obj
 0003:00019e74       ??_C@_1BK@EILABNJE@?$AAn?$AAa?$AAm?$AAe?$AA?5?$AA?$CB?$AA?$DN?$AA?5?$AAN?$AAU?$AAL?$AAL?$AA?$AA@ 0063de74     LIBCMTD:putenv.obj
 0003:00019e94       ??_C@_1O@EDEJGJBM@?$AA_?$AAc?$AAl?$AAo?$AAs?$AAe?$AA?$AA@ 0063de94     LIBCMTD:close.obj
 0003:00019ea8       ??_C@_1FO@NNGNFGFH@?$AAf?$AA?3?$AA?2?$AAd?$AAd?$AA?2?$AAv?$AAc?$AAt?$AAo?$AAo?$AAl?$AAs?$AA?2?$AAc?$AAr?$AAt?$AA_?$AAb?$AAl?$AAd?$AA?2?$AAs?$AAe?$AAl?$AAf?$AA_?$AAx?$AA8?$AA6?$AA?2?$AAc@ 0063dea8     LIBCMTD:close.obj
 0003:00019f18       ??_C@_1CC@HBLPFNKH@?$AA?$CI?$AAc?$AAn?$AAt?$AA?5?$AA?$DM?$AA?$DN?$AA?5?$AAI?$AAN?$AAT?$AA_?$AAM?$AAA?$AAX?$AA?$CJ?$AA?$AA@ 0063df18     LIBCMTD:read.obj
 0003:00019f40       ??_C@_1M@NHJOLLDM@?$AA_?$AAr?$AAe?$AAa?$AAd?$AA?$AA@ 0063df40     LIBCMTD:read.obj
 0003:00019f50       ??_C@_1FM@NGICBHLO@?$AAf?$AA?3?$AA?2?$AAd?$AAd?$AA?2?$AAv?$AAc?$AAt?$AAo?$AAo?$AAl?$AAs?$AA?2?$AAc?$AAr?$AAt?$AA_?$AAb?$AAl?$AAd?$AA?2?$AAs?$AAe?$AAl?$AAf?$AA_?$AAx?$AA8?$AA6?$AA?2?$AAc@ 0063df50     LIBCMTD:read.obj
 0003:00019fc0       ??_C@_0CO@CEGKNHEH@f?3?2dd?2vctools?2crt_bld?2self_x86?2c@ 0063dfc0     LIBCMTD:read.obj
 0003:00019ff8       ??_C@_1CG@OHLJHGGK@?$AA?$CI?$AAi?$AAn?$AAp?$AAu?$AAt?$AAb?$AAu?$AAf?$AA?5?$AA?$CB?$AA?$DN?$AA?5?$AAN?$AAU?$AAL?$AAL?$AA?$CJ?$AA?$AA@ 0063dff8     LIBCMTD:read.obj
 0003:0001a028       ??_C@_1BK@JJBHNDKJ@?$AA_?$AAr?$AAe?$AAa?$AAd?$AA_?$AAn?$AAo?$AAl?$AAo?$AAc?$AAk?$AA?$AA@ 0063e028     LIBCMTD:read.obj
 0003:0001a048       ??_C@_1O@EDOIKGHF@?$AA_?$AAl?$AAs?$AAe?$AAe?$AAk?$AA?$AA@ 0063e048     LIBCMTD:lseek.obj
 0003:0001a058       ??_C@_1FO@LGKMLCAL@?$AAf?$AA?3?$AA?2?$AAd?$AAd?$AA?2?$AAv?$AAc?$AAt?$AAo?$AAo?$AAl?$AAs?$AA?2?$AAc?$AAr?$AAt?$AA_?$AAb?$AAl?$AAd?$AA?2?$AAs?$AAe?$AAl?$AAf?$AA_?$AAx?$AA8?$AA6?$AA?2?$AAc@ 0063e058     LIBCMTD:lseek.obj
 0003:0001a0c8       ??_C@_1DM@LMLOLGJ@?$AA?$CI?$AA?$CC?$AAI?$AAn?$AAv?$AAa?$AAl?$AAi?$AAd?$AA?5?$AAf?$AAi?$AAl?$AAe?$AA?5?$AAd?$AAe?$AAs?$AAc?$AAr?$AAi?$AAp?$AAt?$AAo?$AAr?$AA?$CC?$AA?0?$AA0?$AA?$CJ?$AA?$AA@ 0063e0c8     LIBCMTD:lseek.obj
 0003:0001a110       ??_C@_1BG@KCMPBBDK@?$AA_?$AAg?$AAe?$AAt?$AA_?$AAe?$AAr?$AAr?$AAn?$AAo?$AA?$AA@ 0063e110     LIBCMTD:dosmap.obj
 0003:0001a130       ??_C@_1GA@MFGIMPNL@?$AAf?$AA?3?$AA?2?$AAd?$AAd?$AA?2?$AAv?$AAc?$AAt?$AAo?$AAo?$AAl?$AAs?$AA?2?$AAc?$AAr?$AAt?$AA_?$AAb?$AAl?$AAd?$AA?2?$AAs?$AAe?$AAl?$AAf?$AA_?$AAx?$AA8?$AA6?$AA?2?$AAc@ 0063e130     LIBCMTD:dosmap.obj
 0003:0001a1a4       ??_C@_1BM@INIPHHDD@?$AA_?$AAg?$AAe?$AAt?$AA_?$AAd?$AAo?$AAs?$AAe?$AAr?$AAr?$AAn?$AAo?$AA?$AA@ 0063e1a4     LIBCMTD:dosmap.obj
 0003:0001a1c8       ??_C@_1M@MFLJCMFJ@?$AA_?$AAo?$AAp?$AAe?$AAn?$AA?$AA@ 0063e1c8     LIBCMTD:open.obj
 0003:0001a1d8       ??_C@_1FM@LFKHNNH@?$AAf?$AA?3?$AA?2?$AAd?$AAd?$AA?2?$AAv?$AAc?$AAt?$AAo?$AAo?$AAl?$AAs?$AA?2?$AAc?$AAr?$AAt?$AA_?$AAb?$AAl?$AAd?$AA?2?$AAs?$AAe?$AAl?$AAf?$AA_?$AAx?$AA8?$AA6?$AA?2?$AAc@ 0063e1d8     LIBCMTD:open.obj
 0003:0001a248       ??_C@_1FG@NFINBJCM@?$AA?$CI?$AA?$CI?$AAp?$AAm?$AAo?$AAd?$AAe?$AA?5?$AA?$CG?$AA?5?$AA?$CI?$AA?$HO?$AA?$CI?$AA_?$AAS?$AA_?$AAI?$AAR?$AAE?$AAA?$AAD?$AA?5?$AA?$HM?$AA?5?$AA_?$AAS?$AA_?$AAI?$AAW?$AAR?$AAI?$AAT@ 0063e248     LIBCMTD:open.obj
 0003:0001a2b0       ??_C@_1BM@IOBAMMHO@?$AA_?$AAs?$AAo?$AAp?$AAe?$AAn?$AA_?$AAh?$AAe?$AAl?$AAp?$AAe?$AAr?$AA?$AA@ 0063e2b0     LIBCMTD:open.obj
 0003:0001a2d4       ??_C@_1BM@PGEEHLHE@?$AA?$CI?$AAp?$AAf?$AAh?$AA?5?$AA?$CB?$AA?$DN?$AA?5?$AAN?$AAU?$AAL?$AAL?$AA?$CJ?$AA?$AA@ 0063e2d4     LIBCMTD:open.obj
 0003:0001a2f8       ??_C@_1IA@IENOJNJF@?$AA0?$AA?5?$AA?$CG?$AA?$CG?$AA?5?$AA?$CC?$AAO?$AAn?$AAl?$AAy?$AA?5?$AAU?$AAT?$AAF?$AA?9?$AA1?$AA6?$AA?5?$AAl?$AAi?$AAt?$AAt?$AAl?$AAe?$AA?5?$AAe?$AAn?$AAd?$AAi?$AAa?$AAn?$AA?5@ 0063e2f8     LIBCMTD:open.obj
 0003:0001a394       ??_C@_1CM@IDLMKMPG@?$AA0?$AA?5?$AA?$CG?$AA?$CG?$AA?5?$AA?$CC?$AAI?$AAn?$AAt?$AAe?$AAr?$AAn?$AAa?$AAl?$AA?5?$AAE?$AAr?$AAr?$AAo?$AAr?$AA?$CC?$AA?$AA@ 0063e394     LIBCMTD:open.obj
 0003:0001a3c8       ??_C@_1HM@GJANBLHJ@?$AA?$CI?$AAo?$AAf?$AAl?$AAa?$AAg?$AA?5?$AA?$CG?$AA?5?$AA?$CI?$AA_?$AAO?$AA_?$AAT?$AAE?$AAX?$AAT?$AA?5?$AA?$HM?$AA?5?$AA_?$AAO?$AA_?$AAW?$AAT?$AAE?$AAX?$AAT?$AA?5?$AA?$HM?$AA?5?$AA_@ 0063e3c8     LIBCMTD:open.obj
 0003:0001a45c       ??_C@_1DO@PJLMOANO@?$AA?$CI?$AA?5?$AA?$CC?$AAI?$AAn?$AAv?$AAa?$AAl?$AAi?$AAd?$AA?5?$AAs?$AAh?$AAa?$AAr?$AAi?$AAn?$AAg?$AA?5?$AAf?$AAl?$AAa?$AAg?$AA?$CC?$AA?5?$AA?0?$AA?5?$AA0?$AA?5?$AA?$CJ?$AA?$AA@ 0063e45c     LIBCMTD:open.obj
 0003:0001a4a8       ??_C@_1DI@DGKIFCCE@?$AA?$CI?$AA?5?$AA?$CC?$AAI?$AAn?$AAv?$AAa?$AAl?$AAi?$AAd?$AA?5?$AAo?$AAp?$AAe?$AAn?$AA?5?$AAf?$AAl?$AAa?$AAg?$AA?$CC?$AA?5?$AA?0?$AA?5?$AA0?$AA?5?$AA?$CJ?$AA?$AA@ 0063e4a8     LIBCMTD:open.obj
 0003:0001a4ec       ??_C@_1CG@ICBEBDJJ@?$AA_?$AAg?$AAe?$AAt?$AA_?$AAf?$AAm?$AAo?$AAd?$AAe?$AA?$CI?$AA?$CG?$AAf?$AAm?$AAo?$AAd?$AAe?$AA?$CJ?$AA?$AA@ 0063e4ec     LIBCMTD:open.obj
 0003:0001a51c       ??_C@_1BO@JOPFMPGH@?$AA_?$AAt?$AAs?$AAo?$AAp?$AAe?$AAn?$AA_?$AAn?$AAo?$AAl?$AAo?$AAc?$AAk?$AA?$AA@ 0063e51c     LIBCMTD:open.obj
 0003:0001a540       ??_C@_1CI@HBNALCBB@?$AA?$CI?$AA?$CK?$AAm?$AAo?$AAd?$AAe?$AA?5?$AA?$CB?$AA?$DN?$AA?5?$AA_?$AAT?$AA?$CI?$AA?8?$AA?2?$AA0?$AA?8?$AA?$CJ?$AA?$CJ?$AA?$AA@ 0063e540     LIBCMTD:fopen.obj
 0003:0001a570       ??_C@_1BO@MJMKAKCJ@?$AA?$CI?$AAm?$AAo?$AAd?$AAe?$AA?5?$AA?$CB?$AA?$DN?$AA?5?$AAN?$AAU?$AAL?$AAL?$AA?$CJ?$AA?$AA@ 0063e570     LIBCMTD:fopen.obj
 0003:0001a594       ??_C@_1BA@HNEAFMNL@?$AA_?$AAf?$AAs?$AAo?$AAp?$AAe?$AAn?$AA?$AA@ 0063e594     LIBCMTD:fopen.obj
 0003:0001a5a8       ??_C@_1FO@NCADDBOO@?$AAf?$AA?3?$AA?2?$AAd?$AAd?$AA?2?$AAv?$AAc?$AAt?$AAo?$AAo?$AAl?$AAs?$AA?2?$AAc?$AAr?$AAt?$AA_?$AAb?$AAl?$AAd?$AA?2?$AAs?$AAe?$AAl?$AAf?$AA_?$AAx?$AA8?$AA6?$AA?2?$AAc@ 0063e5a8     LIBCMTD:fopen.obj
 0003:0001a618       ??_C@_1BO@CLGIAEOJ@?$AA?$CI?$AAf?$AAi?$AAl?$AAe?$AA?5?$AA?$CB?$AA?$DN?$AA?5?$AAN?$AAU?$AAL?$AAL?$AA?$CJ?$AA?$AA@ 0063e618     LIBCMTD:fopen.obj
 0003:0001a63c       ??_C@_1BA@PBGKCCAP@?$AAf?$AAo?$AAp?$AAe?$AAn?$AA_?$AAs?$AA?$AA@ 0063e63c     LIBCMTD:fopen.obj
 0003:0001a650       ??_C@_1CA@LLJLFCDN@?$AA?$CI?$AAp?$AAf?$AAi?$AAl?$AAe?$AA?5?$AA?$CB?$AA?$DN?$AA?5?$AAN?$AAU?$AAL?$AAL?$AA?$CJ?$AA?$AA@ 0063e650     LIBCMTD:fopen.obj
 0003:0001a678       ??_C@_1O@MECPGLJO@?$AA_?$AAc?$AAh?$AAm?$AAo?$AAd?$AA?$AA@ 0063e678     LIBCMTD:chmod.obj
 0003:0001a688       ??_C@_1FO@NJMCCGCL@?$AAf?$AA?3?$AA?2?$AAd?$AAd?$AA?2?$AAv?$AAc?$AAt?$AAo?$AAo?$AAl?$AAs?$AA?2?$AAc?$AAr?$AAt?$AA_?$AAb?$AAl?$AAd?$AA?2?$AAs?$AAe?$AAl?$AAf?$AA_?$AAx?$AA8?$AA6?$AA?2?$AAc@ 0063e688     LIBCMTD:chmod.obj
 0003:0001a6f8       ??_C@_1BA@LEBDGIHM@?$AA_?$AAi?$AAs?$AAa?$AAt?$AAt?$AAy?$AA?$AA@ 0063e6f8     LIBCMTD:isatty.obj
 0003:0001a710       ??_C@_1GA@LPGDJDEN@?$AAf?$AA?3?$AA?2?$AAd?$AAd?$AA?2?$AAv?$AAc?$AAt?$AAo?$AAo?$AAl?$AAs?$AA?2?$AAc?$AAr?$AAt?$AA_?$AAb?$AAl?$AAd?$AA?2?$AAs?$AAe?$AAl?$AAf?$AA_?$AAx?$AA8?$AA6?$AA?2?$AAc@ 0063e710     LIBCMTD:isatty.obj
 0003:0001a784       ??_C@_1M@OIJMPNCO@?$AAf?$AAp?$AAu?$AAt?$AAc?$AA?$AA@ 0063e784     LIBCMTD:fputc.obj
 0003:0001a798       ??_C@_1FO@CJOPDBGD@?$AAf?$AA?3?$AA?2?$AAd?$AAd?$AA?2?$AAv?$AAc?$AAt?$AAo?$AAo?$AAl?$AAs?$AA?2?$AAc?$AAr?$AAt?$AA_?$AAb?$AAl?$AAd?$AA?2?$AAs?$AAe?$AAl?$AAf?$AA_?$AAx?$AA8?$AA6?$AA?2?$AAc@ 0063e798     LIBCMTD:fputc.obj
 0003:0001a808       ??_C@_19LHKMJKNP@?$AAp?$AAu?$AAt?$AAc?$AA?$AA@ 0063e808     LIBCMTD:fputc.obj
 0003:0001a814       ??_C@_1CE@EHHPAMNN@?$AA?$CI?$AA?5?$AAp?$AAt?$AAi?$AAm?$AAe?$AA?5?$AA?$CB?$AA?$DN?$AA?5?$AAN?$AAU?$AAL?$AAL?$AA?5?$AA?$CJ?$AA?$AA@ 0063e814     LIBCMTD:loctim64.obj
 0003:0001a840       ??_C@_1BO@OIBEEOEM@?$AA_?$AAl?$AAo?$AAc?$AAa?$AAl?$AAt?$AAi?$AAm?$AAe?$AA6?$AA4?$AA_?$AAs?$AA?$AA@ 0063e840     LIBCMTD:loctim64.obj
 0003:0001a868       ??_C@_1GE@FPHBIHGB@?$AAf?$AA?3?$AA?2?$AAd?$AAd?$AA?2?$AAv?$AAc?$AAt?$AAo?$AAo?$AAl?$AAs?$AA?2?$AAc?$AAr?$AAt?$AA_?$AAb?$AAl?$AAd?$AA?2?$AAs?$AAe?$AAl?$AAf?$AA_?$AAx?$AA8?$AA6?$AA?2?$AAc@ 0063e868     LIBCMTD:loctim64.obj
 0003:0001a8e0       ??_C@_1CA@NJFECEIO@?$AA?$CI?$AA?5?$AAp?$AAt?$AAm?$AA?5?$AA?$CB?$AA?$DN?$AA?5?$AAN?$AAU?$AAL?$AAL?$AA?5?$AA?$CJ?$AA?$AA@ 0063e8e0     LIBCMTD:loctim64.obj
 0003:0001a908       ??_C@_1CA@JJKIFLJO@?$AA_?$AAm?$AAa?$AAk?$AAe?$AA_?$AA_?$AAt?$AAi?$AAm?$AAe?$AA6?$AA4?$AA_?$AAt?$AA?$AA@ 0063e908     LIBCMTD:mktime64.obj
 0003:0001a930       ??_C@_1GE@DJPENLKG@?$AAf?$AA?3?$AA?2?$AAd?$AAd?$AA?2?$AAv?$AAc?$AAt?$AAo?$AAo?$AAl?$AAs?$AA?2?$AAc?$AAr?$AAt?$AA_?$AAb?$AAl?$AAd?$AA?2?$AAs?$AAe?$AAl?$AAf?$AA_?$AAx?$AA8?$AA6?$AA?2?$AAc@ 0063e930     LIBCMTD:mktime64.obj
 0003:0001a9a8       ??_C@_1BO@LELPCFEI@?$AA?$CI?$AA?5?$AAt?$AAb?$AA?5?$AA?$CB?$AA?$DN?$AA?5?$AAN?$AAU?$AAL?$AAL?$AA?5?$AA?$CJ?$AA?$AA@ 0063e9a8     LIBCMTD:mktime64.obj
 0003:0001a9d0       ??_C@_1FO@DGDAMKHF@?$AAf?$AA?3?$AA?2?$AAd?$AAd?$AA?2?$AAv?$AAc?$AAt?$AAo?$AAo?$AAl?$AAs?$AA?2?$AAc?$AAr?$AAt?$AA_?$AAb?$AAl?$AAd?$AA?2?$AAs?$AAe?$AAl?$AAf?$AA_?$AAx?$AA8?$AA6?$AA?2?$AAc@ 0063e9d0     LIBCMTD:mblen.obj
 0003:0001aa40       ??_C@_1NC@EINCOKCO@?$AA_?$AAl?$AAo?$AAc?$AA_?$AAu?$AAp?$AAd?$AAa?$AAt?$AAe?$AA?4?$AAG?$AAe?$AAt?$AAL?$AAo?$AAc?$AAa?$AAl?$AAe?$AAT?$AA?$CI?$AA?$CJ?$AA?9?$AA?$DO?$AAl?$AAo?$AAc?$AAi?$AAn?$AAf@ 0063ea40     LIBCMTD:mblen.obj
 0003:0001ab3c       ??_C@_1DG@NMBGBDM@?$AAp?$AAl?$AAo?$AAc?$AAi?$AA?9?$AA?$DO?$AAc?$AAt?$AAy?$AAp?$AAe?$AA1?$AA_?$AAr?$AAe?$AAf?$AAc?$AAo?$AAu?$AAn?$AAt?$AA?5?$AA?$DO?$AA?5?$AA0?$AA?$AA@ 0063eb3c     LIBCMTD:initctyp.obj
 0003:0001ab80       ??_C@_1GE@OCPKBDKE@?$AAf?$AA?3?$AA?2?$AAd?$AAd?$AA?2?$AAv?$AAc?$AAt?$AAo?$AAo?$AAl?$AAs?$AA?2?$AAc?$AAr?$AAt?$AA_?$AAb?$AAl?$AAd?$AA?2?$AAs?$AAe?$AAl?$AAf?$AA_?$AAx?$AA8?$AA6?$AA?2?$AAc@ 0063eb80     LIBCMTD:initctyp.obj
 0003:0001abf8       ??_C@_0DC@EHLBFILA@f?3?2dd?2vctools?2crt_bld?2self_x86?2c@ 0063ebf8     LIBCMTD:initctyp.obj
 0003:0001ac34       ??_C@_1BA@GDAOKFNN@?$AA_?$AAm?$AAb?$AAs?$AAi?$AAn?$AAc?$AA?$AA@ 0063ec34     LIBCMTD:mbsinc.obj
 0003:0001ac48       ??_C@_1GA@DEBIMDFF@?$AAf?$AA?3?$AA?2?$AAd?$AAd?$AA?2?$AAv?$AAc?$AAt?$AAo?$AAo?$AAl?$AAs?$AA?2?$AAc?$AAr?$AAt?$AA_?$AAb?$AAl?$AAd?$AA?2?$AAs?$AAe?$AAl?$AAf?$AA_?$AAx?$AA8?$AA6?$AA?2?$AAc@ 0063ec48     LIBCMTD:mbsinc.obj
 0003:0001acbc       ??_C@_1CA@HPEMMJMJ@?$AAc?$AAu?$AAr?$AAr?$AAe?$AAn?$AAt?$AA?5?$AA?$CB?$AA?$DN?$AA?5?$AAN?$AAU?$AAL?$AAL?$AA?$AA@ 0063ecbc     LIBCMTD:mbsinc.obj
 0003:0001ace4       ??_C@_1CC@FPMHPAM@?$AA?$CI?$AA?5?$AAt?$AAi?$AAm?$AAp?$AA?5?$AA?$CB?$AA?$DN?$AA?5?$AAN?$AAU?$AAL?$AAL?$AA?5?$AA?$CJ?$AA?$AA@ 0063ece4     LIBCMTD:gmtime64.obj
 0003:0001ad0c       ??_C@_1BI@BFNFPMLP@?$AA_?$AAg?$AAm?$AAt?$AAi?$AAm?$AAe?$AA6?$AA4?$AA_?$AAs?$AA?$AA@ 0063ed0c     LIBCMTD:gmtime64.obj
 0003:0001ad28       ??_C@_1GE@CKMEKJPD@?$AAf?$AA?3?$AA?2?$AAd?$AAd?$AA?2?$AAv?$AAc?$AAt?$AAo?$AAo?$AAl?$AAs?$AA?2?$AAc?$AAr?$AAt?$AA_?$AAb?$AAl?$AAd?$AA?2?$AAs?$AAe?$AAl?$AAf?$AA_?$AAx?$AA8?$AA6?$AA?2?$AAc@ 0063ed28     LIBCMTD:gmtime64.obj
 0003:0001ada0       ??_C@_1BA@DIKNJIGG@?$AA_?$AAs?$AAt?$AAr?$AAu?$AAp?$AAr?$AA?$AA@ 0063eda0     LIBCMTD:strupr.obj
 0003:0001adb8       ??_C@_1GA@KLELBLFL@?$AAf?$AA?3?$AA?2?$AAd?$AAd?$AA?2?$AAv?$AAc?$AAt?$AAo?$AAo?$AAl?$AAs?$AA?2?$AAc?$AAr?$AAt?$AA_?$AAb?$AAl?$AAd?$AA?2?$AAs?$AAe?$AAl?$AAf?$AA_?$AAx?$AA8?$AA6?$AA?2?$AAc@ 0063edb8     LIBCMTD:strupr.obj
 0003:0001ae2c       ??_C@_1CC@NFHGNMIC@?$AA_?$AAs?$AAt?$AAr?$AAu?$AAp?$AAr?$AA_?$AAs?$AA_?$AAl?$AA_?$AAs?$AAt?$AAa?$AAt?$AA?$AA@ 0063ee2c     LIBCMTD:strupr.obj
 0003:0001ae54       ??_C@_1BK@HJGMBFLF@?$AAc?$AAo?$AAm?$AAp?$AA?5?$AA?$CB?$AA?$DN?$AA?5?$AAN?$AAU?$AAL?$AAL?$AA?$AA@ 0063ee54     LIBCMTD:qsort.obj
 0003:0001ae74       ??_C@_1BE@NJBEBBME@?$AAw?$AAi?$AAd?$AAt?$AAh?$AA?5?$AA?$DO?$AA?5?$AA0?$AA?$AA@ 0063ee74     LIBCMTD:qsort.obj
 0003:0001ae8c       ??_C@_1M@INMHODIG@?$AAq?$AAs?$AAo?$AAr?$AAt?$AA?$AA@ 0063ee8c     LIBCMTD:qsort.obj
 0003:0001aea0       ??_C@_1FO@NDBPJPLL@?$AAf?$AA?3?$AA?2?$AAd?$AAd?$AA?2?$AAv?$AAc?$AAt?$AAo?$AAo?$AAl?$AAs?$AA?2?$AAc?$AAr?$AAt?$AA_?$AAb?$AAl?$AAd?$AA?2?$AAs?$AAe?$AAl?$AAf?$AA_?$AAx?$AA8?$AA6?$AA?2?$AAc@ 0063eea0     LIBCMTD:qsort.obj
 0003:0001af10       ??_C@_1DC@HAGCIKOA@?$AAb?$AAa?$AAs?$AAe?$AA?5?$AA?$CB?$AA?$DN?$AA?5?$AAN?$AAU?$AAL?$AAL?$AA?5?$AA?$HM?$AA?$HM?$AA?5?$AAn?$AAu?$AAm?$AA?5?$AA?$DN?$AA?$DN?$AA?5?$AA0?$AA?$AA@ 0063ef10     LIBCMTD:qsort.obj
 0003:0001af4c       ??_C@_1CA@EHPEFHFN@?$AA?$CI?$AA?5?$AAs?$AAt?$AAr?$AA?5?$AA?$CB?$AA?$DN?$AA?5?$AAN?$AAU?$AAL?$AAL?$AA?5?$AA?$CJ?$AA?$AA@ 0063ef4c     LIBCMTD:fgets.obj
 0003:0001af74       ??_C@_1BO@CLMMCNLO@?$AA?$CI?$AA?5?$AAc?$AAo?$AAu?$AAn?$AAt?$AA?5?$AA?$DO?$AA?$DN?$AA?5?$AA0?$AA?5?$AA?$CJ?$AA?$AA@ 0063ef74     LIBCMTD:fgets.obj
 0003:0001af98       ??_C@_1M@BEMABAL@?$AAf?$AAg?$AAe?$AAt?$AAs?$AA?$AA@ 0063ef98     LIBCMTD:fgets.obj
 0003:0001afa8       ??_C@_1FO@FKDDHLBI@?$AAf?$AA?3?$AA?2?$AAd?$AAd?$AA?2?$AAv?$AAc?$AAt?$AAo?$AAo?$AAl?$AAs?$AA?2?$AAc?$AAr?$AAt?$AA_?$AAb?$AAl?$AAd?$AA?2?$AAs?$AAe?$AAl?$AAf?$AA_?$AAx?$AA8?$AA6?$AA?2?$AAc@ 0063efa8     LIBCMTD:fgets.obj
 0003:0001b018       ??_C@_1EK@KICPAPCG@?$AA?$CI?$AA?5?$AAs?$AAt?$AAr?$AAi?$AAn?$AAg?$AA?5?$AA?$CB?$AA?$DN?$AA?5?$AAN?$AAU?$AAL?$AAL?$AA?5?$AA?$CJ?$AA?5?$AA?$HM?$AA?$HM?$AA?5?$AA?$CI?$AA?5?$AAc?$AAo?$AAu?$AAn?$AAt?$AA?5?$AA?$DN?$AA?$DN@ 0063f018     LIBCMTD:fgets.obj
 0003:0001b070       ??_C@_1BC@JBGGJDCM@?$AA_?$AAs?$AAe?$AAt?$AAm?$AAo?$AAd?$AAe?$AA?$AA@ 0063f070     LIBCMTD:setmode.obj
 0003:0001b088       ??_C@_1GC@KODPFLLJ@?$AAf?$AA?3?$AA?2?$AAd?$AAd?$AA?2?$AAv?$AAc?$AAt?$AAo?$AAo?$AAl?$AAs?$AA?2?$AAc?$AAr?$AAt?$AA_?$AAb?$AAl?$AAd?$AA?2?$AAs?$AAe?$AAl?$AAf?$AA_?$AAx?$AA8?$AA6?$AA?2?$AAc@ 0063f088     LIBCMTD:setmode.obj
 0003:0001b100       ??_C@_1OA@HGPJIFPM@?$AA?$CI?$AA?$CI?$AAm?$AAo?$AAd?$AAe?$AA?5?$AA?$DN?$AA?$DN?$AA?5?$AA_?$AAO?$AA_?$AAT?$AAE?$AAX?$AAT?$AA?$CJ?$AA?5?$AA?$HM?$AA?$HM?$AA?5?$AA?$CI?$AAm?$AAo?$AAd?$AAe?$AA?5?$AA?$DN?$AA?$DN?$AA?5?$AA_@ 0063f100     LIBCMTD:setmode.obj
 0003:0001b20c       ??_C@_1BG@IEEHLOCL@?$AA_?$AAs?$AAe?$AAt?$AA_?$AAf?$AAm?$AAo?$AAd?$AAe?$AA?$AA@ 0063f20c     LIBCMTD:setmode.obj
 0003:0001b228       ??_C@_1IC@NDCJMLB@?$AA?$CI?$AA?$CI?$AAm?$AAo?$AAd?$AAe?$AA?5?$AA?$DN?$AA?$DN?$AA?5?$AA_?$AAO?$AA_?$AAT?$AAE?$AAX?$AAT?$AA?$CJ?$AA?5?$AA?$HM?$AA?$HM?$AA?5?$AA?$CI?$AAm?$AAo?$AAd?$AAe?$AA?5?$AA?$DN?$AA?$DN?$AA?5?$AA_@ 0063f228     LIBCMTD:setmode.obj
 0003:0001b2c4       ??_C@_1BG@CKGMPOFH@?$AA_?$AAg?$AAe?$AAt?$AA_?$AAf?$AAm?$AAo?$AAd?$AAe?$AA?$AA@ 0063f2c4     LIBCMTD:setmode.obj
 0003:0001b2e0       ??_C@_1CA@GPIGPPFN@?$AA?$CI?$AAp?$AAM?$AAo?$AAd?$AAe?$AA?5?$AA?$CB?$AA?$DN?$AA?5?$AAN?$AAU?$AAL?$AAL?$AA?$CJ?$AA?$AA@ 0063f2e0     LIBCMTD:setmode.obj
 0003:0001b308       ??_C@_0CP@CGEOCNHO@f?3?2dd?2vctools?2crt_bld?2self_x86?2c@ 0063f308     LIBCMTD:chdir.obj
 0003:0001b340       ??_C@_1O@HIELJLOL@?$AA_?$AAc?$AAh?$AAd?$AAi?$AAr?$AA?$AA@ 0063f340     LIBCMTD:chdir.obj
 0003:0001b350       ??_C@_1FO@PDKBFEFB@?$AAf?$AA?3?$AA?2?$AAd?$AAd?$AA?2?$AAv?$AAc?$AAt?$AAo?$AAo?$AAl?$AAs?$AA?2?$AAc?$AAr?$AAt?$AA_?$AAb?$AAl?$AAd?$AA?2?$AAs?$AAe?$AAl?$AAf?$AA_?$AAx?$AA8?$AA6?$AA?2?$AAc@ 0063f350     LIBCMTD:chdir.obj
 0003:0001b3c0       ??_C@_1CA@EAHAIGAM@?$AA_?$AAg?$AAe?$AAt?$AAd?$AAc?$AAw?$AAd?$AA_?$AAl?$AAk?$AA_?$AAd?$AAb?$AAg?$AA?$AA@ 0063f3c0     LIBCMTD:getcwd.obj
 0003:0001b3e8       ??_C@_1GA@IFOABPDF@?$AAf?$AA?3?$AA?2?$AAd?$AAd?$AA?2?$AAv?$AAc?$AAt?$AAo?$AAo?$AAl?$AAs?$AA?2?$AAc?$AAr?$AAt?$AA_?$AAb?$AAl?$AAd?$AA?2?$AAs?$AAe?$AAl?$AAf?$AA_?$AAx?$AA8?$AA6?$AA?2?$AAc@ 0063f3e8     LIBCMTD:getcwd.obj
 0003:0001b45c       ??_C@_1CI@ICBAMKHM@?$AA?$CI?$AA?$CC?$AAI?$AAn?$AAv?$AAa?$AAl?$AAi?$AAd?$AA?5?$AAD?$AAr?$AAi?$AAv?$AAe?$AA?$CC?$AA?0?$AA0?$AA?$CJ?$AA?$AA@ 0063f45c     LIBCMTD:getcwd.obj
 0003:0001b490       ??_C@_1IO@PMHBOLJK@?$AA?$CI?$AA?$CI?$AAw?$AAh?$AAe?$AAn?$AAc?$AAe?$AA?5?$AA?$DN?$AA?$DN?$AA?5?$AAS?$AAE?$AAE?$AAK?$AA_?$AAS?$AAE?$AAT?$AA?$CJ?$AA?5?$AA?$HM?$AA?$HM?$AA?5?$AA?$CI?$AAw?$AAh?$AAe?$AAn?$AAc?$AAe@ 0063f490     LIBCMTD:fseek.obj
 0003:0001b53c       ??_C@_1M@HCCOIONH@?$AAf?$AAs?$AAe?$AAe?$AAk?$AA?$AA@ 0063f53c     LIBCMTD:fseek.obj
 0003:0001b550       ??_C@_1FO@ECBPAICH@?$AAf?$AA?3?$AA?2?$AAd?$AAd?$AA?2?$AAv?$AAc?$AAt?$AAo?$AAo?$AAl?$AAs?$AA?2?$AAc?$AAr?$AAt?$AA_?$AAb?$AAl?$AAd?$AA?2?$AAs?$AAe?$AAl?$AAf?$AA_?$AAx?$AA8?$AA6?$AA?2?$AAc@ 0063f550     LIBCMTD:fseek.obj
 0003:0001b5c0       ??_C@_01EEMJAFIK@?6?$AA@   0063f5c0     LIBCMTD:perror.obj
 0003:0001b5c4       ??_C@_0DB@MIGHMKAN@f?3?2dd?2vctools?2crt_bld?2self_x86?2c@ 0063f5c4     LIBCMTD:setvbuf.obj
 0003:0001b600       ??_C@_1EG@IJNJIDNB@?$AA?$CI?$AA?$CI?$AA2?$AA?5?$AA?$DM?$AA?$DN?$AA?5?$AAs?$AAi?$AAz?$AAe?$AA?$CJ?$AA?5?$AA?$CG?$AA?$CG?$AA?5?$AA?$CI?$AAs?$AAi?$AAz?$AAe?$AA?5?$AA?$DM?$AA?$DN?$AA?5?$AAI?$AAN?$AAT?$AA_?$AAM?$AAA?$AAX@ 0063f600     LIBCMTD:setvbuf.obj
 0003:0001b658       ??_C@_1HC@CBFEDAGG@?$AA?$CI?$AAt?$AAy?$AAp?$AAe?$AA?5?$AA?$DN?$AA?$DN?$AA?5?$AA_?$AAI?$AAO?$AAN?$AAB?$AAF?$AA?$CJ?$AA?5?$AA?$HM?$AA?$HM?$AA?5?$AA?$CI?$AAt?$AAy?$AAp?$AAe?$AA?5?$AA?$DN?$AA?$DN?$AA?5?$AA_?$AAI?$AAO@ 0063f658     LIBCMTD:setvbuf.obj
 0003:0001b6e0       ??_C@_1BA@OGODIODK@?$AAs?$AAe?$AAt?$AAv?$AAb?$AAu?$AAf?$AA?$AA@ 0063f6e0     LIBCMTD:setvbuf.obj
 0003:0001b6f8       ??_C@_1GC@FPPJLAOD@?$AAf?$AA?3?$AA?2?$AAd?$AAd?$AA?2?$AAv?$AAc?$AAt?$AAo?$AAo?$AAl?$AAs?$AA?2?$AAc?$AAr?$AAt?$AA_?$AAb?$AAl?$AAd?$AA?2?$AAs?$AAe?$AAl?$AAf?$AA_?$AAx?$AA8?$AA6?$AA?2?$AAc@ 0063f6f8     LIBCMTD:setvbuf.obj
 0003:0001b770       ??_C@_19LPGIFIDB@?$AAf?$AAe?$AAo?$AAf?$AA?$AA@ 0063f770     LIBCMTD:feoferr.obj
 0003:0001b780       ??_C@_1GC@CAEOCPLB@?$AAf?$AA?3?$AA?2?$AAd?$AAd?$AA?2?$AAv?$AAc?$AAt?$AAo?$AAo?$AAl?$AAs?$AA?2?$AAc?$AAr?$AAt?$AA_?$AAb?$AAl?$AAd?$AA?2?$AAs?$AAe?$AAl?$AAf?$AA_?$AAx?$AA8?$AA6?$AA?2?$AAc@ 0063f780     LIBCMTD:feoferr.obj
 0003:0001b7f8       ??_C@_1O@MOPHEPGP@?$AAf?$AAe?$AAr?$AAr?$AAo?$AAr?$AA?$AA@ 0063f7f8     LIBCMTD:feoferr.obj
 0003:0001b808       ??_C@_1M@CKCKPMNP@?$AAf?$AAt?$AAe?$AAl?$AAl?$AA?$AA@ 0063f808     LIBCMTD:ftell.obj
 0003:0001b818       ??_C@_1FO@NBACIADE@?$AAf?$AA?3?$AA?2?$AAd?$AAd?$AA?2?$AAv?$AAc?$AAt?$AAo?$AAo?$AAl?$AAs?$AA?2?$AAc?$AAr?$AAt?$AA_?$AAb?$AAl?$AAd?$AA?2?$AAs?$AAe?$AAl?$AAf?$AA_?$AAx?$AA8?$AA6?$AA?2?$AAc@ 0063f818     LIBCMTD:ftell.obj
 0003:0001b888       ??_C@_1BM@EPIDANEK@?$AA_?$AAf?$AAt?$AAe?$AAl?$AAl?$AA_?$AAn?$AAo?$AAl?$AAo?$AAc?$AAk?$AA?$AA@ 0063f888     LIBCMTD:ftell.obj
 0003:0001b8ac       ??_C@_1BA@CMLCEIGG@?$AAf?$AAr?$AAe?$AAa?$AAd?$AA_?$AAs?$AA?$AA@ 0063f8ac     LIBCMTD:fread.obj
 0003:0001b8c0       ??_C@_1FO@PNLFLIH@?$AAf?$AA?3?$AA?2?$AAd?$AAd?$AA?2?$AAv?$AAc?$AAt?$AAo?$AAo?$AAl?$AAs?$AA?2?$AAc?$AAr?$AAt?$AA_?$AAb?$AAl?$AAd?$AA?2?$AAs?$AAe?$AAl?$AAf?$AA_?$AAx?$AA8?$AA6?$AA?2?$AAc@ 0063f8c0     LIBCMTD:fread.obj
 0003:0001b930       ??_C@_1DA@DKEFLDMG@?$AA?$CI?$AA?$CC?$AAb?$AAu?$AAf?$AAf?$AAe?$AAr?$AA?5?$AAt?$AAo?$AAo?$AA?5?$AAs?$AAm?$AAa?$AAl?$AAl?$AA?$CC?$AA?0?$AA?5?$AA0?$AA?$CJ?$AA?$AA@ 0063f930     LIBCMTD:fread.obj
 0003:0001b970       ??_C@_1LG@DCNDJCHK@?$AA?$CI?$AA?$CC?$AAI?$AAn?$AAc?$AAo?$AAn?$AAs?$AAi?$AAs?$AAt?$AAe?$AAn?$AAt?$AA?5?$AAS?$AAt?$AAr?$AAe?$AAa?$AAm?$AA?5?$AAC?$AAo?$AAu?$AAn?$AAt?$AA?4?$AA?5?$AAF?$AAl?$AAu@ 0063f970     LIBCMTD:fread.obj
 0003:0001ba50       ??_C@_1EA@FAMECDND@?$AAn?$AAu?$AAm?$AA?5?$AA?$DM?$AA?$DN?$AA?5?$AA?$CI?$AAS?$AAI?$AAZ?$AAE?$AA_?$AAM?$AAA?$AAX?$AA?5?$AA?1?$AA?5?$AAe?$AAl?$AAe?$AAm?$AAe?$AAn?$AAt?$AAS?$AAi?$AAz?$AAe?$AA?$CJ?$AA?$AA@ 0063fa50     LIBCMTD:fread.obj
 0003:0001ba9c       ??_C@_1CA@IDPOGFL@?$AA_?$AAf?$AAr?$AAe?$AAa?$AAd?$AA_?$AAn?$AAo?$AAl?$AAo?$AAc?$AAk?$AA_?$AAs?$AA?$AA@ 0063fa9c     LIBCMTD:fread.obj
 0003:0001bac4       ??_C@_1CC@CGFEEBMC@?$AA?$CI?$AAb?$AAu?$AAf?$AAf?$AAe?$AAr?$AA?5?$AA?$CB?$AA?$DN?$AA?5?$AAN?$AAU?$AAL?$AAL?$AA?$CJ?$AA?$AA@ 0063fac4     LIBCMTD:fread.obj
 0003:0001baec       ??_C@_1M@FBFFFGJE@?$AAf?$AAg?$AAe?$AAt?$AAc?$AA?$AA@ 0063faec     LIBCMTD:fgetc.obj
 0003:0001bb00       ??_C@_1FO@CGIIEKDD@?$AAf?$AA?3?$AA?2?$AAd?$AAd?$AA?2?$AAv?$AAc?$AAt?$AAo?$AAo?$AAl?$AAs?$AA?2?$AAc?$AAr?$AAt?$AA_?$AAb?$AAl?$AAd?$AA?2?$AAs?$AAe?$AAl?$AAf?$AA_?$AAx?$AA8?$AA6?$AA?2?$AAc@ 0063fb00     LIBCMTD:fgetc.obj
 0003:0001bb70       ??_C@_19OGFDBGF@?$AAg?$AAe?$AAt?$AAc?$AA?$AA@ 0063fb70     LIBCMTD:fgetc.obj
 0003:0001bb7c       ??_C@_1BG@GHDODAOE@?$AAc?$AAl?$AAe?$AAa?$AAr?$AAe?$AAr?$AAr?$AA_?$AAs?$AA?$AA@ 0063fb7c     LIBCMTD:clearerr.obj
 0003:0001bb98       ??_C@_1GE@OJGFJACJ@?$AAf?$AA?3?$AA?2?$AAd?$AAd?$AA?2?$AAv?$AAc?$AAt?$AAo?$AAo?$AAl?$AAs?$AA?2?$AAc?$AAr?$AAt?$AA_?$AAb?$AAl?$AAd?$AA?2?$AAs?$AAe?$AAl?$AAf?$AA_?$AAx?$AA8?$AA6?$AA?2?$AAc@ 0063fb98     LIBCMTD:clearerr.obj
 0003:0001bc10       ??_C@_1O@KLNKIMAP@?$AAf?$AAw?$AAr?$AAi?$AAt?$AAe?$AA?$AA@ 0063fc10     LIBCMTD:fwrite.obj
 0003:0001bc20       ??_C@_1GA@DOFNKKGD@?$AAf?$AA?3?$AA?2?$AAd?$AAd?$AA?2?$AAv?$AAc?$AAt?$AAo?$AAo?$AAl?$AAs?$AA?2?$AAc?$AAr?$AAt?$AA_?$AAb?$AAl?$AAd?$AA?2?$AAs?$AAe?$AAl?$AAf?$AA_?$AAx?$AA8?$AA6?$AA?2?$AAc@ 0063fc20     LIBCMTD:fwrite.obj
 0003:0001bc94       ??_C@_1DC@FHEPNAPF@?$AAn?$AAu?$AAm?$AA?5?$AA?$DM?$AA?$DN?$AA?5?$AA?$CI?$AAS?$AAI?$AAZ?$AAE?$AA_?$AAM?$AAA?$AAX?$AA?5?$AA?1?$AA?5?$AAs?$AAi?$AAz?$AAe?$AA?$CJ?$AA?$AA@ 0063fc94     LIBCMTD:fwrite.obj
 0003:0001bcd0       ??_C@_1BO@JGPKCBCE@?$AA_?$AAf?$AAw?$AAr?$AAi?$AAt?$AAe?$AA_?$AAn?$AAo?$AAl?$AAo?$AAc?$AAk?$AA?$AA@ 0063fcd0     LIBCMTD:fwrite.obj
 0003:0001bcf4       ??_C@_1DE@GMHIHBND@?$AA?$CI?$AA_?$AAo?$AAs?$AAf?$AAi?$AAl?$AAe?$AA?$CI?$AAf?$AAi?$AAl?$AAd?$AAe?$AAs?$AA?$CJ?$AA?5?$AA?$CG?$AA?5?$AAF?$AAO?$AAP?$AAE?$AAN?$AA?$CJ?$AA?$AA@ 0063fcf4     LIBCMTD:fstati32.obj
 0003:0001bd38       ??_C@_1GO@IHCMJFJC@?$AA?$CI?$AAf?$AAi?$AAl?$AAd?$AAe?$AAs?$AA?5?$AA?$DO?$AA?$DN?$AA?5?$AA0?$AA?5?$AA?$CG?$AA?$CG?$AA?5?$AA?$CI?$AAu?$AAn?$AAs?$AAi?$AAg?$AAn?$AAe?$AAd?$AA?$CJ?$AAf?$AAi?$AAl?$AAd?$AAe?$AAs@ 0063fd38     LIBCMTD:fstati32.obj
 0003:0001bdbc       ??_C@_1BI@JNJJGKPB@?$AA_?$AAf?$AAs?$AAt?$AAa?$AAt?$AA6?$AA4?$AAi?$AA3?$AA2?$AA?$AA@ 0063fdbc     LIBCMTD:fstati32.obj
 0003:0001bdd8       ??_C@_1GC@DGLOLNOM@?$AAf?$AA?3?$AA?2?$AAd?$AAd?$AA?2?$AAv?$AAc?$AAt?$AAo?$AAo?$AAl?$AAs?$AA?2?$AAc?$AAr?$AAt?$AA_?$AAb?$AAl?$AAd?$AA?2?$AAs?$AAe?$AAl?$AAf?$AA_?$AAx?$AA8?$AA6?$AA?2?$AAc@ 0063fdd8     LIBCMTD:fstati32.obj
 0003:0001be50       ??_C@_0DC@EFKEANPM@f?3?2dd?2vctools?2crt_bld?2self_x86?2c@ 0063fe50     LIBCMTD:threadex.obj
 0003:0001be8c       ??_C@_1BO@FIKPNENM@?$AA_?$AAb?$AAe?$AAg?$AAi?$AAn?$AAt?$AAh?$AAr?$AAe?$AAa?$AAd?$AAe?$AAx?$AA?$AA@ 0063fe8c     LIBCMTD:threadex.obj
 0003:0001beb0       ??_C@_1GE@KFNOMGAL@?$AAf?$AA?3?$AA?2?$AAd?$AAd?$AA?2?$AAv?$AAc?$AAt?$AAo?$AAo?$AAl?$AAs?$AA?2?$AAc?$AAr?$AAt?$AA_?$AAb?$AAl?$AAd?$AA?2?$AAs?$AAe?$AAl?$AAf?$AA_?$AAx?$AA8?$AA6?$AA?2?$AAc@ 0063feb0     LIBCMTD:threadex.obj
 0003:0001bf28       ??_C@_1CI@JCFHILLH@?$AAi?$AAn?$AAi?$AAt?$AAi?$AAa?$AAl?$AAc?$AAo?$AAd?$AAe?$AA?5?$AA?$CB?$AA?$DN?$AA?5?$AAN?$AAU?$AAL?$AAL?$AA?$AA@ 0063ff28     LIBCMTD:threadex.obj
 0003:0001bf68       ??_C@_1HG@KNCBMCDD@?$AAf?$AA?3?$AA?2?$AAd?$AAd?$AA?2?$AAv?$AAc?$AAt?$AAo?$AAo?$AAl?$AAs?$AA?2?$AAc?$AAr?$AAt?$AA_?$AAb?$AAl?$AAd?$AA?2?$AAs?$AAe?$AAl?$AAf?$AA_?$AAx?$AA8?$AA6?$AA?2?$AAc@ 0063ff68     LIBCMTD:typname.obj
 0003:0001bff8       ??_C@_1CK@GELGGBDK@?$AAp?$AAN?$AAo?$AAd?$AAe?$AA?9?$AA?$DO?$AA_?$AAN?$AAe?$AAx?$AAt?$AA?5?$AA?$CB?$AA?$DN?$AA?5?$AAN?$AAU?$AAL?$AAL?$AA?$AA@ 0063fff8     LIBCMTD:typname.obj
 0003:0001c030       ??_C@_1JK@NAFNEPGC@?$AAs?$AAt?$AAr?$AAc?$AAp?$AAy?$AA_?$AAs?$AA?5?$AA?$CI?$AA?$CI?$AAc?$AAh?$AAa?$AAr?$AA?5?$AA?$CK?$AA?$CJ?$AA?$CI?$AA?$CI?$AAt?$AAy?$AAp?$AAe?$AA_?$AAi?$AAn?$AAf?$AAo?$AA?5?$AA?$CK?$AA?$CJ@ 00640030     LIBCMTD:typname.obj
 0003:0001c0e8       ??_C@_1CM@OOICDMK@?$AAt?$AAy?$AAp?$AAe?$AA_?$AAi?$AAn?$AAf?$AAo?$AA?3?$AA?3?$AA_?$AAN?$AAa?$AAm?$AAe?$AA_?$AAb?$AAa?$AAs?$AAe?$AA?$AA@ 006400e8     LIBCMTD:typname.obj
 0003:0001c120       ??_C@_1GI@EAJKJPED@?$AAs?$AAt?$AAr?$AAc?$AAp?$AAy?$AA_?$AAs?$AA?5?$AA?$CI?$AAp?$AAT?$AAm?$AAp?$AAT?$AAy?$AAp?$AAe?$AAN?$AAa?$AAm?$AAe?$AA?0?$AA?5?$AAl?$AAe?$AAn?$AA?$CL?$AA2?$AA?0?$AA?5?$AA?$CI@ 00640120     LIBCMTD:typname.obj
 0003:0001c19c       ??_C@_1DO@OJJLFJPE@?$AAt?$AAy?$AAp?$AAe?$AA_?$AAi?$AAn?$AAf?$AAo?$AA?3?$AA?3?$AA_?$AAN?$AAa?$AAm?$AAe?$AA_?$AAb?$AAa?$AAs?$AAe?$AA_?$AAi?$AAn?$AAt?$AAe?$AAr?$AAn?$AAa?$AAl?$AA?$AA@ 0064019c     LIBCMTD:typname.obj
 0003:0001c1e8       ??_C@_0CP@MKONOLCI@f?3?2dd?2vctools?2crt_bld?2self_x86?2c@ 006401e8     LIBCMTD:mlock.obj
 0003:0001c220       ??_C@_06PJIGMIJB@Client?$AA@ 00640220     LIBCMTD:dbgheap.obj
 0003:0001c228       ??_C@_06KMEJCCGM@Ignore?$AA@ 00640228     LIBCMTD:dbgheap.obj
 0003:0001c230       ??_C@_03OGPFLFLO@CRT?$AA@  00640230     LIBCMTD:dbgheap.obj
 0003:0001c234       ??_C@_06EFAGIKOH@Normal?$AA@ 00640234     LIBCMTD:dbgheap.obj
 0003:0001c23c       ??_C@_04HJMOFLDF@Free?$AA@ 0064023c     LIBCMTD:dbgheap.obj
 0003:0001c25c       ??_C@_0DC@JEMAGEKG@Error?3?5memory?5allocation?3?5bad?5me@ 0064025c     LIBCMTD:dbgheap.obj
 0003:0001c298       ??_C@_0CF@BICKFLAF@Invalid?5allocation?5size?3?5?$CFIu?5byt@ 00640298     LIBCMTD:dbgheap.obj
 0003:0001c2c4       ??_C@_02DKCKIIND@?$CFs?$AA@ 006402c4     LIBCMTD:dbgheap.obj
 0003:0001c2c8       ??_C@_0CB@CCLOLAHO@Client?5hook?5allocation?5failure?4?6@ 006402c8     LIBCMTD:dbgheap.obj
 0003:0001c2f0       ??_C@_0DF@BBEGIFEK@Client?5hook?5allocation?5failure?5a@ 006402f0     LIBCMTD:dbgheap.obj
 0003:0001c330       ??_C@_1GC@DNJKKEAA@?$AAf?$AA?3?$AA?2?$AAd?$AAd?$AA?2?$AAv?$AAc?$AAt?$AAo?$AAo?$AAl?$AAs?$AA?2?$AAc?$AAr?$AAt?$AA_?$AAb?$AAl?$AAd?$AA?2?$AAs?$AAe?$AAl?$AAf?$AA_?$AAx?$AA8?$AA6?$AA?2?$AAc@ 00640330     LIBCMTD:dbgheap.obj
 0003:0001c3a8       ??_C@_1CE@LJFEPPMP@?$AA_?$AAC?$AAr?$AAt?$AAC?$AAh?$AAe?$AAc?$AAk?$AAM?$AAe?$AAm?$AAo?$AAr?$AAy?$AA?$CI?$AA?$CJ?$AA?$AA@ 006403a8     LIBCMTD:dbgheap.obj
 0003:0001c3d4       ??_C@_1DE@KOOKLFBB@?$AA_?$AAp?$AAF?$AAi?$AAr?$AAs?$AAt?$AAB?$AAl?$AAo?$AAc?$AAk?$AA?5?$AA?$DN?$AA?$DN?$AA?5?$AAp?$AAO?$AAl?$AAd?$AAB?$AAl?$AAo?$AAc?$AAk?$AA?$AA@ 006403d4     LIBCMTD:dbgheap.obj
 0003:0001c414       ??_C@_1DC@GEFKNOOL@?$AA_?$AAp?$AAL?$AAa?$AAs?$AAt?$AAB?$AAl?$AAo?$AAc?$AAk?$AA?5?$AA?$DN?$AA?$DN?$AA?5?$AAp?$AAO?$AAl?$AAd?$AAB?$AAl?$AAo?$AAc?$AAk?$AA?$AA@ 00640414     LIBCMTD:dbgheap.obj
 0003:0001c450       ??_C@_1GE@PCKLOLAO@?$AAf?$AAR?$AAe?$AAa?$AAl?$AAl?$AAo?$AAc?$AA?5?$AA?$HM?$AA?$HM?$AA?5?$AA?$CI?$AA?$CB?$AAf?$AAR?$AAe?$AAa?$AAl?$AAl?$AAo?$AAc?$AA?5?$AA?$CG?$AA?$CG?$AA?5?$AAp?$AAN?$AAe?$AAw?$AAB?$AAl@ 00640450     LIBCMTD:dbgheap.obj
 0003:0001c4c8       ??_C@_0DA@HFBKENN@Error?3?5possible?5heap?5corruption?5@ 006404c8     LIBCMTD:dbgheap.obj
 0003:0001c508       ??_C@_1IK@DCPKDGNH@?$AAp?$AAO?$AAl?$AAd?$AAB?$AAl?$AAo?$AAc?$AAk?$AA?9?$AA?$DO?$AAn?$AAL?$AAi?$AAn?$AAe?$AA?5?$AA?$DN?$AA?$DN?$AA?5?$AAI?$AAG?$AAN?$AAO?$AAR?$AAE?$AA_?$AAL?$AAI?$AAN?$AAE?$AA?5@ 00640508     LIBCMTD:dbgheap.obj
 0003:0001c5b0       ??_C@_1EE@GFOPCECE@?$AA_?$AAC?$AAr?$AAt?$AAI?$AAs?$AAV?$AAa?$AAl?$AAi?$AAd?$AAH?$AAe?$AAa?$AAp?$AAP?$AAo?$AAi?$AAn?$AAt?$AAe?$AAr?$AA?$CI?$AAp?$AAU?$AAs?$AAe?$AAr?$AAD?$AAa?$AAt?$AAa@ 006405b0     LIBCMTD:dbgheap.obj
 0003:0001c608       ??_C@_0EM@LGFLMAGJ@The?5Block?5at?50x?$CFp?5was?5allocated?5@ 00640608     LIBCMTD:dbgheap.obj
 0003:0001c668       ??_C@_0FA@EFEIGJKG@Error?3?5memory?5allocation?3?5bad?5me@ 00640668     LIBCMTD:dbgheap.obj
 0003:0001c6c8       ??_C@_0ED@GPCPBAGP@Invalid?5allocation?5size?3?5?$CFIu?5byt@ 006406c8     LIBCMTD:dbgheap.obj
 0003:0001c718       ??_C@_0CE@DOFMDOL@Client?5hook?5re?9allocation?5failur@ 00640718     LIBCMTD:dbgheap.obj
 0003:0001c744       ??_C@_0DI@KKJPDPGM@Client?5hook?5re?9allocation?5failur@ 00640744     LIBCMTD:dbgheap.obj
 0003:0001c788       ??_C@_1BI@HAPNGHDP@?$AA_?$AAe?$AAx?$AAp?$AAa?$AAn?$AAd?$AA_?$AAd?$AAb?$AAg?$AA?$AA@ 00640788     LIBCMTD:dbgheap.obj
 0003:0001c7a4       ??_C@_1CE@CJACEFBA@?$AAp?$AAU?$AAs?$AAe?$AAr?$AAD?$AAa?$AAt?$AAa?$AA?5?$AA?$CB?$AA?$DN?$AA?5?$AAN?$AAU?$AAL?$AAL?$AA?$AA@ 006407a4     LIBCMTD:dbgheap.obj
 0003:0001c7d0       ??_C@_1CM@MMAADDMD@?$AA_?$AAp?$AAF?$AAi?$AAr?$AAs?$AAt?$AAB?$AAl?$AAo?$AAc?$AAk?$AA?5?$AA?$DN?$AA?$DN?$AA?5?$AAp?$AAH?$AAe?$AAa?$AAd?$AA?$AA@ 006407d0     LIBCMTD:dbgheap.obj
 0003:0001c804       ??_C@_1CK@DMAGEMBG@?$AA_?$AAp?$AAL?$AAa?$AAs?$AAt?$AAB?$AAl?$AAo?$AAc?$AAk?$AA?5?$AA?$DN?$AA?$DN?$AA?5?$AAp?$AAH?$AAe?$AAa?$AAd?$AA?$AA@ 00640804     LIBCMTD:dbgheap.obj
 0003:0001c838       ??_C@_1DM@ODCJIDCP@?$AAp?$AAH?$AAe?$AAa?$AAd?$AA?9?$AA?$DO?$AAn?$AAB?$AAl?$AAo?$AAc?$AAk?$AAU?$AAs?$AAe?$AA?5?$AA?$DN?$AA?$DN?$AA?5?$AAn?$AAB?$AAl?$AAo?$AAc?$AAk?$AAU?$AAs?$AAe?$AA?$AA@ 00640838     LIBCMTD:dbgheap.obj
 0003:0001c880       ??_C@_1HK@HPCBMDFG@?$AAp?$AAH?$AAe?$AAa?$AAd?$AA?9?$AA?$DO?$AAn?$AAL?$AAi?$AAn?$AAe?$AA?5?$AA?$DN?$AA?$DN?$AA?5?$AAI?$AAG?$AAN?$AAO?$AAR?$AAE?$AA_?$AAL?$AAI?$AAN?$AAE?$AA?5?$AA?$CG?$AA?$CG?$AA?5?$AAp@ 00640880     LIBCMTD:dbgheap.obj
 0003:0001c918       ??_C@_0IG@LEMBDCJK@HEAP?5CORRUPTION?5DETECTED?3?5after?5@ 00640918     LIBCMTD:dbgheap.obj
 0003:0001c9b8       ??_C@_0KE@MBMNHHHN@HEAP?5CORRUPTION?5DETECTED?3?5after?5@ 006409b8     LIBCMTD:dbgheap.obj
 0003:0001ca80       ??_C@_0IK@PJCGLBOB@HEAP?5CORRUPTION?5DETECTED?3?5before@ 00640a80     LIBCMTD:dbgheap.obj
 0003:0001cb28       ??_C@_0KI@JGFOHMEB@HEAP?5CORRUPTION?5DETECTED?3?5before@ 00640b28     LIBCMTD:dbgheap.obj
 0003:0001cbf4       ??_C@_0BL@KEIPLFAC@Client?5hook?5free?5failure?4?6?$AA@ 00640bf4     LIBCMTD:dbgheap.obj
 0003:0001cc18       ??_C@_0EJ@HEIBCIMJ@The?5Block?5at?50x?$CFp?5was?5allocated?5@ 00640c18     LIBCMTD:dbgheap.obj
 0003:0001cc70       ??_C@_1BG@MBKOGDLD@?$AA_?$AAm?$AAs?$AAi?$AAz?$AAe?$AA_?$AAd?$AAb?$AAg?$AA?$AA@ 00640c70     LIBCMTD:dbgheap.obj
 0003:0001cc8c       ??_C@_0CI@JMLBEDHJ@?$CFhs?5located?5at?50x?$CFp?5is?5?$CFIu?5bytes@ 00640c8c     LIBCMTD:dbgheap.obj
 0003:0001ccc0       ??_C@_0EG@DGJMPDBH@?$CFhs?5located?5at?50x?$CFp?5is?5?$CFIu?5bytes@ 00640cc0     LIBCMTD:dbgheap.obj
 0003:0001cd18       ??_C@_0IC@BBJIOOJH@HEAP?5CORRUPTION?5DETECTED?3?5on?5top@ 00640d18     LIBCMTD:dbgheap.obj
 0003:0001cdb8       ??_C@_0KA@IHNJJKPL@HEAP?5CORRUPTION?5DETECTED?3?5on?5top@ 00640db8     LIBCMTD:dbgheap.obj
 0003:0001ce78       ??_C@_07OHKEFPKJ@DAMAGED?$AA@ 00640e78     LIBCMTD:dbgheap.obj
 0003:0001ce84       ??_C@_0CL@HNNNMKMJ@_heapchk?5fails?5with?5unknown?5retu@ 00640e84     LIBCMTD:dbgheap.obj
 0003:0001ceb8       ??_C@_0CC@MFFCHFHO@_heapchk?5fails?5with?5_HEAPBADPTR?4@ 00640eb8     LIBCMTD:dbgheap.obj
 0003:0001cee0       ??_C@_0CC@MJGLGBDG@_heapchk?5fails?5with?5_HEAPBADEND?4@ 00640ee0     LIBCMTD:dbgheap.obj
 0003:0001cf08       ??_C@_0CD@CPKEAPBD@_heapchk?5fails?5with?5_HEAPBADNODE@ 00640f08     LIBCMTD:dbgheap.obj
 0003:0001cf34       ??_C@_0CE@MKKHMBMK@_heapchk?5fails?5with?5_HEAPBADBEGI@ 00640f34     LIBCMTD:dbgheap.obj
 0003:0001cf60       ??_C@_1BO@GJFDNMNF@?$AA_?$AAC?$AAr?$AAt?$AAS?$AAe?$AAt?$AAD?$AAb?$AAg?$AAF?$AAl?$AAa?$AAg?$AA?$AA@ 00640f60     LIBCMTD:dbgheap.obj
 0003:0001cf88       ??_C@_1BHO@NNANJNF@?$AA?$CI?$AAf?$AAN?$AAe?$AAw?$AAB?$AAi?$AAt?$AAs?$AA?$DN?$AA?$DN?$AA_?$AAC?$AAR?$AAT?$AAD?$AAB?$AAG?$AA_?$AAR?$AAE?$AAP?$AAO?$AAR?$AAT?$AA_?$AAF?$AAL?$AAA?$AAG?$AA?$CJ?$AA?5@ 00640f88     LIBCMTD:dbgheap.obj
 0003:0001d154       ??_C@_1DE@GJCKCKEC@?$AA_?$AAC?$AAr?$AAt?$AAD?$AAo?$AAF?$AAo?$AAr?$AAA?$AAl?$AAl?$AAC?$AAl?$AAi?$AAe?$AAn?$AAt?$AAO?$AAb?$AAj?$AAe?$AAc?$AAt?$AAs?$AA?$AA@ 00641154     LIBCMTD:dbgheap.obj
 0003:0001d194       ??_C@_1BI@CJGCEEDL@?$AAp?$AAf?$AAn?$AA?5?$AA?$CB?$AA?$DN?$AA?5?$AAN?$AAU?$AAL?$AAL?$AA?$AA@ 00641194     LIBCMTD:dbgheap.obj
 0003:0001d1b0       ??_C@_0CB@EAAIGELO@Bad?5memory?5block?5found?5at?50x?$CFp?4?6@ 006411b0     LIBCMTD:dbgheap.obj
 0003:0001d1d8       ??_C@_0DP@LEFMFBOD@Bad?5memory?5block?5found?5at?50x?$CFp?4?6@ 006411d8     LIBCMTD:dbgheap.obj
 0003:0001d224       ??_C@_1CE@NJJKELF@?$AA_?$AAC?$AAr?$AAt?$AAM?$AAe?$AAm?$AAC?$AAh?$AAe?$AAc?$AAk?$AAp?$AAo?$AAi?$AAn?$AAt?$AA?$AA@ 00641224     LIBCMTD:dbgheap.obj
 0003:0001d250       ??_C@_1BM@MIMANDHC@?$AAs?$AAt?$AAa?$AAt?$AAe?$AA?5?$AA?$CB?$AA?$DN?$AA?5?$AAN?$AAU?$AAL?$AAL?$AA?$AA@ 00641250     LIBCMTD:dbgheap.obj
 0003:0001d274       ??_C@_1CC@DFPEDFBP@?$AAn?$AAe?$AAw?$AAS?$AAt?$AAa?$AAt?$AAe?$AA?5?$AA?$CB?$AA?$DN?$AA?5?$AAN?$AAU?$AAL?$AAL?$AA?$AA@ 00641274     LIBCMTD:dbgheap.obj
 0003:0001d29c       ??_C@_1CC@DHPFEMMN@?$AAo?$AAl?$AAd?$AAS?$AAt?$AAa?$AAt?$AAe?$AA?5?$AA?$CB?$AA?$DN?$AA?5?$AAN?$AAU?$AAL?$AAL?$AA?$AA@ 0064129c     LIBCMTD:dbgheap.obj
 0003:0001d2c4       ??_C@_1CE@PDIENACM@?$AA_?$AAC?$AAr?$AAt?$AAM?$AAe?$AAm?$AAD?$AAi?$AAf?$AAf?$AAe?$AAr?$AAe?$AAn?$AAc?$AAe?$AA?$AA@ 006412c4     LIBCMTD:dbgheap.obj
 0003:0001d2f0       ??_C@_0BH@GFGKJDCO@Object?5dump?5complete?4?6?$AA@ 006412f0     LIBCMTD:dbgheap.obj
 0003:0001d30c       ??_C@_0DA@MDLBNIBM@crt?5block?5at?50x?$CFp?0?5subtype?5?$CFx?0?5?$CF@ 0064130c     LIBCMTD:dbgheap.obj
 0003:0001d348       ??_C@_0CH@FAGDDGPN@normal?5block?5at?50x?$CFp?0?5?$CFIu?5bytes?5@ 00641348     LIBCMTD:dbgheap.obj
 0003:0001d378       ??_C@_0DD@GHNAAKBB@client?5block?5at?50x?$CFp?0?5subtype?5?$CFx@ 00641378     LIBCMTD:dbgheap.obj
 0003:0001d3b8       ??_C@_06PKLGBFGM@?$HL?$CFld?$HN?5?$AA@ 006413b8     LIBCMTD:dbgheap.obj
 0003:0001d3c0       ??_C@_0L@JMEFFCCJ@?$CFhs?$CI?$CFd?$CJ?5?3?5?$AA@ 006413c0     LIBCMTD:dbgheap.obj
 0003:0001d3d0       ??_C@_0BE@OIEFNFL@?$CDFile?5Error?$CD?$CI?$CFd?$CJ?5?3?5?$AA@ 006413d0     LIBCMTD:dbgheap.obj
 0003:0001d3e8       ??_C@_0BE@KCIPKCIA@Dumping?5objects?5?9?$DO?6?$AA@ 006413e8     LIBCMTD:dbgheap.obj
 0003:0001d400       ??_C@_0BA@HJBKCELP@?5Data?3?5?$DM?$CFs?$DO?5?$CFs?6?$AA@ 00641400     LIBCMTD:dbgheap.obj
 0003:0001d414       ??_C@_1CG@LPFIACGM@?$AA_?$AAp?$AAr?$AAi?$AAn?$AAt?$AAM?$AAe?$AAm?$AAB?$AAl?$AAo?$AAc?$AAk?$AAD?$AAa?$AAt?$AAa?$AA?$AA@ 00641414     LIBCMTD:dbgheap.obj
 0003:0001d444       ??_C@_05MKKEDADM@?$CF?42X?5?$AA@ 00641444     LIBCMTD:dbgheap.obj
 0003:0001d44c       ??_C@_0BI@JBFPOEJA@Detected?5memory?5leaks?$CB?6?$AA@ 0064144c     LIBCMTD:dbgheap.obj
 0003:0001d468       ??_C@_0BP@DEDHGGGI@Total?5allocations?3?5?$CFId?5bytes?4?6?$AA@ 00641468     LIBCMTD:dbgheap.obj
 0003:0001d490       ??_C@_0CB@BLHDAFNE@Largest?5number?5used?3?5?$CFId?5bytes?4?6@ 00641490     LIBCMTD:dbgheap.obj
 0003:0001d4b8       ??_C@_0BO@DACNIABB@?$CFId?5bytes?5in?5?$CFId?5?$CFhs?5Blocks?4?6?$AA@ 006414b8     LIBCMTD:dbgheap.obj
 0003:0001d4dc       ??_C@_1CM@MPNIBKGK@?$AA_?$AAC?$AAr?$AAt?$AAM?$AAe?$AAm?$AAD?$AAu?$AAm?$AAp?$AAS?$AAt?$AAa?$AAt?$AAi?$AAs?$AAt?$AAi?$AAc?$AAs?$AA?$AA@ 006414dc     LIBCMTD:dbgheap.obj
 0003:0001d510       ??_C@_1DK@LFLKFPDA@?$AAo?$AAf?$AAf?$AAs?$AAe?$AAt?$AA?5?$AA?$DN?$AA?$DN?$AA?5?$AA0?$AA?5?$AA?$HM?$AA?$HM?$AA?5?$AAo?$AAf?$AAf?$AAs?$AAe?$AAt?$AA?5?$AA?$DM?$AA?5?$AAs?$AAi?$AAz?$AAe?$AA?$AA@ 00641510     LIBCMTD:dbgheap.obj
 0003:0001d558       ??_C@_1DG@DONCJBBJ@?$AA_?$AAa?$AAl?$AAi?$AAg?$AAn?$AAe?$AAd?$AA_?$AAo?$AAf?$AAf?$AAs?$AAe?$AAt?$AA_?$AAm?$AAa?$AAl?$AAl?$AAo?$AAc?$AA_?$AAd?$AAb?$AAg?$AA?$AA@ 00641558     LIBCMTD:dbgheap.obj
 0003:0001d598       ??_C@_1CE@NPMGPNNP@?$AAI?$AAS?$AA_?$AA2?$AA_?$AAP?$AAO?$AAW?$AA_?$AAN?$AA?$CI?$AAa?$AAl?$AAi?$AAg?$AAn?$AA?$CJ?$AA?$AA@ 00641598     LIBCMTD:dbgheap.obj
 0003:0001d5c4       ??_C@_1DI@NINIKFFK@?$AA_?$AAa?$AAl?$AAi?$AAg?$AAn?$AAe?$AAd?$AA_?$AAo?$AAf?$AAf?$AAs?$AAe?$AAt?$AA_?$AAr?$AAe?$AAa?$AAl?$AAl?$AAo?$AAc?$AA_?$AAd?$AAb?$AAg?$AA?$AA@ 006415c4     LIBCMTD:dbgheap.obj
 0003:0001d608       ??_C@_0DL@PGHMMKNE@Damage?5before?50x?$CFp?5which?5was?5all@ 00641608     LIBCMTD:dbgheap.obj
 0003:0001d650       ??_C@_0EI@NDNJMAJK@The?5block?5at?50x?$CFp?5was?5not?5alloca@ 00641650     LIBCMTD:dbgheap.obj
 0003:0001d6a8       ??_C@_0EF@PGELACII@The?5block?5at?50x?$CFp?5was?5not?5alloca@ 006416a8     LIBCMTD:dbgheap.obj
 0003:0001d6fc       ??_C@_1CG@CEGMHIMN@?$AA_?$AAa?$AAl?$AAi?$AAg?$AAn?$AAe?$AAd?$AA_?$AAm?$AAs?$AAi?$AAz?$AAe?$AA_?$AAd?$AAb?$AAg?$AA?$AA@ 006416fc     LIBCMTD:dbgheap.obj
 0003:0001d72c       ??_C@_1CC@MOBIKHH@?$AAm?$AAe?$AAm?$AAb?$AAl?$AAo?$AAc?$AAk?$AA?5?$AA?$CB?$AA?$DN?$AA?5?$AAN?$AAU?$AAL?$AAL?$AA?$AA@ 0064172c     LIBCMTD:dbgheap.obj
 0003:0001d754       __pDestructExceptionObject 00641754     LIBCMTD:frame.obj
 0003:0001d758       ??_C@_0O@DPKOEFFH@bad?5exception?$AA@ 00641758     LIBCMTD:frame.obj
 0003:0001d76c       ??_7bad_exception@std@@6B@ 0064176c     LIBCMTD:frame.obj
 0003:0001d778       ??_C@_0DC@LMJHGCKC@f?3?2dd?2vctools?2crt_bld?2self_x86?2c@ 00641778     LIBCMTD:tidtable.obj
 0003:0001d7b4       ??_C@_07PEJMOBNF@FlsFree?$AA@ 006417b4     LIBCMTD:tidtable.obj
 0003:0001d7c0       ??_C@_0M@JCPCPOEF@FlsSetValue?$AA@ 006417c0     LIBCMTD:tidtable.obj
 0003:0001d7d0       ??_C@_0M@GDNOONDI@FlsGetValue?$AA@ 006417d0     LIBCMTD:tidtable.obj
 0003:0001d7e0       ??_C@_08KNHFBNJ@FlsAlloc?$AA@ 006417e0     LIBCMTD:tidtable.obj
 0003:0001d7ec       ??_C@_1BK@DBDEIDLH@?$AAK?$AAE?$AAR?$AAN?$AAE?$AAL?$AA3?$AA2?$AA?4?$AAD?$AAL?$AAL?$AA?$AA@ 006417ec     LIBCMTD:tidtable.obj
 0003:0001d810       ??_C@_1HO@MLMGPAFH@?$AA?$CI?$AA?$CC?$AAi?$AAn?$AAc?$AAo?$AAn?$AAs?$AAi?$AAs?$AAt?$AAe?$AAn?$AAt?$AA?5?$AAI?$AAO?$AAB?$AA?5?$AAf?$AAi?$AAe?$AAl?$AAd?$AAs?$AA?$CC?$AA?0?$AA?5?$AAs?$AAt?$AAr?$AAe@ 00641810     LIBCMTD:_flsbuf.obj
 0003:0001d8a8       ??_C@_1GC@GNCCMPNN@?$AAf?$AA?3?$AA?2?$AAd?$AAd?$AA?2?$AAv?$AAc?$AAt?$AAo?$AAo?$AAl?$AAs?$AA?2?$AAc?$AAr?$AAt?$AA_?$AAb?$AAl?$AAd?$AA?2?$AAs?$AAe?$AAl?$AAf?$AA_?$AAx?$AA8?$AA6?$AA?2?$AAc@ 006418a8     LIBCMTD:_flsbuf.obj
 0003:0001d920       ??_C@_1O@CEDCILHN@?$AA?$CI?$AAn?$AAu?$AAl?$AAl?$AA?$CJ?$AA?$AA@ 00641920     LIBCMTD:output.obj
 0003:0001d930       ??_C@_06OJHGLDPL@?$CInull?$CJ?$AA@ 00641930     LIBCMTD:output.obj
 0003:0001d938       ___lookuptable             00641938     LIBCMTD:output.obj
 0003:0001d9a4       ??_C@_0DA@NFBEBPEE@f?3?2dd?2vctools?2crt_bld?2self_x86?2c@ 006419a4     LIBCMTD:output.obj
 0003:0001d9e0       ??_C@_1EK@PNGFDECN@?$AA?$CI?$AA?$CC?$AA?8?$AAn?$AA?8?$AA?5?$AAf?$AAo?$AAr?$AAm?$AAa?$AAt?$AA?5?$AAs?$AAp?$AAe?$AAc?$AAi?$AAf?$AAi?$AAe?$AAr?$AA?5?$AAd?$AAi?$AAs?$AAa?$AAb?$AAl?$AAe?$AAd?$AA?$CC@ 006419e0     LIBCMTD:output.obj
 0003:0001da38       ??_C@_1CC@IFFHEMNF@?$AA?$CI?$AAc?$AAh?$AA?5?$AA?$CB?$AA?$DN?$AA?5?$AA_?$AAT?$AA?$CI?$AA?8?$AA?2?$AA0?$AA?8?$AA?$CJ?$AA?$CJ?$AA?$AA@ 00641a38     LIBCMTD:output.obj
 0003:0001da60       ??_C@_1BE@IONLIDNC@?$AA_?$AAo?$AAu?$AAt?$AAp?$AAu?$AAt?$AA_?$AAl?$AA?$AA@ 00641a60     LIBCMTD:output.obj
 0003:0001da78       ??_C@_1GA@HHFOFBLN@?$AAf?$AA?3?$AA?2?$AAd?$AAd?$AA?2?$AAv?$AAc?$AAt?$AAo?$AAo?$AAl?$AAs?$AA?2?$AAc?$AAr?$AAt?$AA_?$AAb?$AAl?$AAd?$AA?2?$AAs?$AAe?$AAl?$AAf?$AA_?$AAx?$AA8?$AA6?$AA?2?$AAc@ 00641a78     LIBCMTD:output.obj
 0003:0001daec       ??_C@_1BI@IGILPKD@?$AA_?$AAv?$AAs?$AAp?$AAr?$AAi?$AAn?$AAt?$AAf?$AA_?$AAl?$AA?$AA@ 00641aec     LIBCMTD:vsprintf.obj
 0003:0001db08       ??_C@_1CE@HMKDJHB@?$AA_?$AAv?$AAs?$AAc?$AAp?$AAr?$AAi?$AAn?$AAt?$AAf?$AA_?$AAh?$AAe?$AAl?$AAp?$AAe?$AAr?$AA?$AA@ 00641b08     LIBCMTD:vsprintf.obj
 0003:0001db34       ??_C@_1CE@PCFPEIFI@?$AA_?$AAv?$AAs?$AAn?$AAp?$AAr?$AAi?$AAn?$AAt?$AAf?$AA_?$AAh?$AAe?$AAl?$AAp?$AAe?$AAr?$AA?$AA@ 00641b34     LIBCMTD:vsnprnc.obj
 0003:0001db60       ??_C@_1DA@HPBFKMEB@?$AA?$CI?$AA?$CC?$AAB?$AAu?$AAf?$AAf?$AAe?$AAr?$AA?5?$AAt?$AAo?$AAo?$AA?5?$AAs?$AAm?$AAa?$AAl?$AAl?$AA?$CC?$AA?0?$AA?5?$AA0?$AA?$CJ?$AA?$AA@ 00641b60     LIBCMTD:vsnprnc.obj
 0003:0001dba0       ??_C@_1EE@OKCKIGFK@?$AAs?$AAt?$AAr?$AAi?$AAn?$AAg?$AA?5?$AA?$CB?$AA?$DN?$AA?5?$AAN?$AAU?$AAL?$AAL?$AA?5?$AA?$CG?$AA?$CG?$AA?5?$AAs?$AAi?$AAz?$AAe?$AAI?$AAn?$AAB?$AAy?$AAt?$AAe?$AAs?$AA?5?$AA?$DO?$AA?5@ 00641ba0     LIBCMTD:vsnprnc.obj
 0003:0001dbf4       ??_C@_1BM@BLJALHEF@?$AA_?$AAv?$AAs?$AAp?$AAr?$AAi?$AAn?$AAt?$AAf?$AA_?$AAs?$AA_?$AAl?$AA?$AA@ 00641bf4     LIBCMTD:vsnprnc.obj
 0003:0001dc18       ??_C@_1BO@MLMCMBKN@?$AAf?$AAo?$AAr?$AAm?$AAa?$AAt?$AA?5?$AA?$CB?$AA?$DN?$AA?5?$AAN?$AAU?$AAL?$AAL?$AA?$AA@ 00641c18     LIBCMTD:vsnprnc.obj
 0003:0001dc3c       ??_C@_1BO@MMPELNIM@?$AA_?$AAv?$AAs?$AAn?$AAp?$AAr?$AAi?$AAn?$AAt?$AAf?$AA_?$AAs?$AA_?$AAl?$AA?$AA@ 00641c3c     LIBCMTD:vsnprnc.obj
 0003:0001dc60       ??_C@_1GG@CDHAPCGF@?$AAf?$AA?3?$AA?2?$AAd?$AAd?$AA?2?$AAv?$AAc?$AAt?$AAo?$AAo?$AAl?$AAs?$AA?2?$AAc?$AAr?$AAt?$AA_?$AAb?$AAl?$AAd?$AA?2?$AAs?$AAe?$AAl?$AAf?$AA_?$AAx?$AA8?$AA6?$AA?2?$AAc@ 00641c60     LIBCMTD:handler.obj
 0003:0001dcdc       ??_C@_1BC@JLLICHIC@?$AAp?$AAn?$AAh?$AA?5?$AA?$DN?$AA?$DN?$AA?5?$AA0?$AA?$AA@ 00641cdc     LIBCMTD:handler.obj
 0003:0001dcf4       ??_C@_0DB@MHMEONEC@f?3?2dd?2vctools?2crt_bld?2self_x86?2c@ 00641cf4     LIBCMTD:mbctype.obj
 0003:0001dd30       ??_C@_1GE@HMAALBPJ@?$AAf?$AA?3?$AA?2?$AAd?$AAd?$AA?2?$AAv?$AAc?$AAt?$AAo?$AAo?$AAl?$AAs?$AA?2?$AAc?$AAr?$AAt?$AA_?$AAb?$AAl?$AAd?$AA?2?$AAs?$AAe?$AAl?$AAf?$AA_?$AAx?$AA8?$AA6?$AA?2?$AAc@ 00641d30     LIBCMTD:localref.obj
 0003:0001dda8       ??_C@_1BKC@GGIENNAK@?$AA?$CI?$AA?$CI?$AAp?$AAt?$AAl?$AAo?$AAc?$AAi?$AA?9?$AA?$DO?$AAl?$AAc?$AA_?$AAc?$AAa?$AAt?$AAe?$AAg?$AAo?$AAr?$AAy?$AA?$FL?$AAc?$AAa?$AAt?$AAe?$AAg?$AAo?$AAr?$AAy?$AA?$FN?$AA?4@ 00641da8     LIBCMTD:localref.obj
 0003:0001dfa0       ??_C@_1BC@GDGBMEMK@?$AAH?$AAH?$AA?3?$AAm?$AAm?$AA?3?$AAs?$AAs?$AA?$AA@ 00641fa0     LIBCMTD:nlsdata2.obj
 0003:0001dfb8       ??_C@_1CI@KNAKOEBC@?$AAd?$AAd?$AAd?$AAd?$AA?0?$AA?5?$AAM?$AAM?$AAM?$AAM?$AA?5?$AAd?$AAd?$AA?0?$AA?5?$AAy?$AAy?$AAy?$AAy?$AA?$AA@ 00641fb8     LIBCMTD:nlsdata2.obj
 0003:0001dfe8       ??_C@_1BC@IEBCMHCM@?$AAM?$AAM?$AA?1?$AAd?$AAd?$AA?1?$AAy?$AAy?$AA?$AA@ 00641fe8     LIBCMTD:nlsdata2.obj
 0003:0001e000       ??_C@_15CLMNNGEL@?$AAP?$AAM?$AA?$AA@ 00642000     LIBCMTD:nlsdata2.obj
 0003:0001e008       ??_C@_15ODEHAHHF@?$AAA?$AAM?$AA?$AA@ 00642008     LIBCMTD:nlsdata2.obj
 0003:0001e010       ??_C@_1BC@FEMKIFH@?$AAD?$AAe?$AAc?$AAe?$AAm?$AAb?$AAe?$AAr?$AA?$AA@ 00642010     LIBCMTD:nlsdata2.obj
 0003:0001e028       ??_C@_1BC@BGLIFPF@?$AAN?$AAo?$AAv?$AAe?$AAm?$AAb?$AAe?$AAr?$AA?$AA@ 00642028     LIBCMTD:nlsdata2.obj
 0003:0001e040       ??_C@_1BA@EPANDLNG@?$AAO?$AAc?$AAt?$AAo?$AAb?$AAe?$AAr?$AA?$AA@ 00642040     LIBCMTD:nlsdata2.obj
 0003:0001e054       ??_C@_1BE@DKAAMBJL@?$AAS?$AAe?$AAp?$AAt?$AAe?$AAm?$AAb?$AAe?$AAr?$AA?$AA@ 00642054     LIBCMTD:nlsdata2.obj
 0003:0001e06c       ??_C@_1O@PAHLKOAC@?$AAA?$AAu?$AAg?$AAu?$AAs?$AAt?$AA?$AA@ 0064206c     LIBCMTD:nlsdata2.obj
